
timer_per.elf:     file format elf32-littlearm

Sections:
Idx Name          Size      VMA       LMA       File off  Algn
  0 .text         00007354  00080000  00080000  00010000  2**3
                  CONTENTS, ALLOC, LOAD, READONLY, CODE
  1 .ARM.exidx    00000008  00087354  00087354  00017354  2**2
                  CONTENTS, ALLOC, LOAD, READONLY, DATA
  2 .relocate     00000b74  20070000  0008735c  00020000  2**3
                  CONTENTS, ALLOC, LOAD, CODE
  3 .bss          00000064  20070b74  00087ed0  00020b74  2**2
                  ALLOC
  4 .stack        00002000  20070bd8  00087f34  00020b74  2**0
                  ALLOC
  5 .ARM.attributes 00000029  00000000  00000000  00020b74  2**0
                  CONTENTS, READONLY
  6 .comment      000000ae  00000000  00000000  00020b9d  2**0
                  CONTENTS, READONLY
  7 .debug_info   00023350  00000000  00000000  00020c4b  2**0
                  CONTENTS, READONLY, DEBUGGING
  8 .debug_abbrev 00005dc9  00000000  00000000  00043f9b  2**0
                  CONTENTS, READONLY, DEBUGGING
  9 .debug_aranges 00000b88  00000000  00000000  00049d68  2**3
                  CONTENTS, READONLY, DEBUGGING
 10 .debug_ranges 00000c40  00000000  00000000  0004a8f0  2**0
                  CONTENTS, READONLY, DEBUGGING
 11 .debug_macro  000170f5  00000000  00000000  0004b530  2**0
                  CONTENTS, READONLY, DEBUGGING
 12 .debug_line   0000d116  00000000  00000000  00062625  2**0
                  CONTENTS, READONLY, DEBUGGING
 13 .debug_str    00066190  00000000  00000000  0006f73b  2**0
                  CONTENTS, READONLY, DEBUGGING
 14 .debug_frame  000027e4  00000000  00000000  000d58cc  2**2
                  CONTENTS, READONLY, DEBUGGING
 15 .debug_loc    0000c03b  00000000  00000000  000d80b0  2**0
                  CONTENTS, READONLY, DEBUGGING

Disassembly of section .text:

00080000 <exception_table>:
   80000:	d8 2b 07 20 35 12 08 00 2d 12 08 00 2d 12 08 00     .+. 5...-...-...
   80010:	2d 12 08 00 2d 12 08 00 2d 12 08 00 00 00 00 00     -...-...-.......
	...
   8002c:	2d 12 08 00 2d 12 08 00 00 00 00 00 2d 12 08 00     -...-.......-...
   8003c:	2d 12 08 00 2d 12 08 00 2d 12 08 00 2d 12 08 00     -...-...-...-...
   8004c:	2d 12 08 00 2d 12 08 00 2d 12 08 00 2d 12 08 00     -...-...-...-...
   8005c:	2d 12 08 00 2d 12 08 00 2d 12 08 00 00 00 00 00     -...-...-.......
   8006c:	2d 12 08 00 2d 12 08 00 2d 12 08 00 2d 12 08 00     -...-...-...-...
	...
   80084:	2d 12 08 00 2d 12 08 00 2d 12 08 00 2d 12 08 00     -...-...-...-...
   80094:	2d 12 08 00 2d 12 08 00 2d 12 08 00 2d 12 08 00     -...-...-...-...
   800a4:	00 00 00 00 2d 12 08 00 65 10 08 00 2d 12 08 00     ....-...e...-...
   800b4:	2d 12 08 00 2d 12 08 00 2d 12 08 00 2d 12 08 00     -...-...-...-...
   800c4:	2d 12 08 00 2d 12 08 00 2d 12 08 00 2d 12 08 00     -...-...-...-...
   800d4:	2d 12 08 00 2d 12 08 00 2d 12 08 00 2d 12 08 00     -...-...-...-...
   800e4:	2d 12 08 00 2d 12 08 00 2d 12 08 00 2d 12 08 00     -...-...-...-...

000800f4 <deregister_tm_clones>:
   800f4:	4803      	ldr	r0, [pc, #12]	; (80104 <deregister_tm_clones+0x10>)
   800f6:	4b04      	ldr	r3, [pc, #16]	; (80108 <deregister_tm_clones+0x14>)
   800f8:	4283      	cmp	r3, r0
   800fa:	d002      	beq.n	80102 <deregister_tm_clones+0xe>
   800fc:	4b03      	ldr	r3, [pc, #12]	; (8010c <deregister_tm_clones+0x18>)
   800fe:	b103      	cbz	r3, 80102 <deregister_tm_clones+0xe>
   80100:	4718      	bx	r3
   80102:	4770      	bx	lr
   80104:	0008735c 	.word	0x0008735c
   80108:	0008735c 	.word	0x0008735c
   8010c:	00000000 	.word	0x00000000

00080110 <register_tm_clones>:
   80110:	4805      	ldr	r0, [pc, #20]	; (80128 <register_tm_clones+0x18>)
   80112:	4906      	ldr	r1, [pc, #24]	; (8012c <register_tm_clones+0x1c>)
   80114:	1a09      	subs	r1, r1, r0
   80116:	1089      	asrs	r1, r1, #2
   80118:	eb01 71d1 	add.w	r1, r1, r1, lsr #31
   8011c:	1049      	asrs	r1, r1, #1
   8011e:	d002      	beq.n	80126 <register_tm_clones+0x16>
   80120:	4b03      	ldr	r3, [pc, #12]	; (80130 <register_tm_clones+0x20>)
   80122:	b103      	cbz	r3, 80126 <register_tm_clones+0x16>
   80124:	4718      	bx	r3
   80126:	4770      	bx	lr
   80128:	0008735c 	.word	0x0008735c
   8012c:	0008735c 	.word	0x0008735c
   80130:	00000000 	.word	0x00000000

00080134 <__do_global_dtors_aux>:
   80134:	b510      	push	{r4, lr}
   80136:	4c06      	ldr	r4, [pc, #24]	; (80150 <__do_global_dtors_aux+0x1c>)
   80138:	7823      	ldrb	r3, [r4, #0]
   8013a:	b943      	cbnz	r3, 8014e <__do_global_dtors_aux+0x1a>
   8013c:	f7ff ffda 	bl	800f4 <deregister_tm_clones>
   80140:	4b04      	ldr	r3, [pc, #16]	; (80154 <__do_global_dtors_aux+0x20>)
   80142:	b113      	cbz	r3, 8014a <__do_global_dtors_aux+0x16>
   80144:	4804      	ldr	r0, [pc, #16]	; (80158 <__do_global_dtors_aux+0x24>)
   80146:	f3af 8000 	nop.w
   8014a:	2301      	movs	r3, #1
   8014c:	7023      	strb	r3, [r4, #0]
   8014e:	bd10      	pop	{r4, pc}
   80150:	20070b74 	.word	0x20070b74
   80154:	00000000 	.word	0x00000000
   80158:	0008735c 	.word	0x0008735c

0008015c <frame_dummy>:
   8015c:	b508      	push	{r3, lr}
   8015e:	4b04      	ldr	r3, [pc, #16]	; (80170 <frame_dummy+0x14>)
   80160:	b11b      	cbz	r3, 8016a <frame_dummy+0xe>
   80162:	4904      	ldr	r1, [pc, #16]	; (80174 <frame_dummy+0x18>)
   80164:	4804      	ldr	r0, [pc, #16]	; (80178 <frame_dummy+0x1c>)
   80166:	f3af 8000 	nop.w
   8016a:	e8bd 4008 	ldmia.w	sp!, {r3, lr}
   8016e:	e7cf      	b.n	80110 <register_tm_clones>
   80170:	00000000 	.word	0x00000000
   80174:	20070b78 	.word	0x20070b78
   80178:	0008735c 	.word	0x0008735c

0008017c <osc_get_rate>:

	return 0;
}

static inline uint32_t osc_get_rate(uint32_t ul_id)
{
   8017c:	b480      	push	{r7}
   8017e:	b083      	sub	sp, #12
   80180:	af00      	add	r7, sp, #0
   80182:	6078      	str	r0, [r7, #4]
	switch (ul_id) {
   80184:	687b      	ldr	r3, [r7, #4]
   80186:	2b07      	cmp	r3, #7
   80188:	d825      	bhi.n	801d6 <osc_get_rate+0x5a>
   8018a:	a201      	add	r2, pc, #4	; (adr r2, 80190 <osc_get_rate+0x14>)
   8018c:	f852 f023 	ldr.w	pc, [r2, r3, lsl #2]
   80190:	000801b1 	.word	0x000801b1
   80194:	000801b7 	.word	0x000801b7
   80198:	000801bd 	.word	0x000801bd
   8019c:	000801c3 	.word	0x000801c3
   801a0:	000801c7 	.word	0x000801c7
   801a4:	000801cb 	.word	0x000801cb
   801a8:	000801cf 	.word	0x000801cf
   801ac:	000801d3 	.word	0x000801d3
	case OSC_SLCK_32K_RC:
		return OSC_SLCK_32K_RC_HZ;
   801b0:	f44f 43fa 	mov.w	r3, #32000	; 0x7d00
   801b4:	e010      	b.n	801d8 <osc_get_rate+0x5c>

	case OSC_SLCK_32K_XTAL:
		return BOARD_FREQ_SLCK_XTAL;
   801b6:	f44f 4300 	mov.w	r3, #32768	; 0x8000
   801ba:	e00d      	b.n	801d8 <osc_get_rate+0x5c>

	case OSC_SLCK_32K_BYPASS:
		return BOARD_FREQ_SLCK_BYPASS;
   801bc:	f44f 4300 	mov.w	r3, #32768	; 0x8000
   801c0:	e00a      	b.n	801d8 <osc_get_rate+0x5c>

	case OSC_MAINCK_4M_RC:
		return OSC_MAINCK_4M_RC_HZ;
   801c2:	4b08      	ldr	r3, [pc, #32]	; (801e4 <osc_get_rate+0x68>)
   801c4:	e008      	b.n	801d8 <osc_get_rate+0x5c>

	case OSC_MAINCK_8M_RC:
		return OSC_MAINCK_8M_RC_HZ;
   801c6:	4b08      	ldr	r3, [pc, #32]	; (801e8 <osc_get_rate+0x6c>)
   801c8:	e006      	b.n	801d8 <osc_get_rate+0x5c>

	case OSC_MAINCK_12M_RC:
		return OSC_MAINCK_12M_RC_HZ;
   801ca:	4b08      	ldr	r3, [pc, #32]	; (801ec <osc_get_rate+0x70>)
   801cc:	e004      	b.n	801d8 <osc_get_rate+0x5c>

	case OSC_MAINCK_XTAL:
		return BOARD_FREQ_MAINCK_XTAL;
   801ce:	4b07      	ldr	r3, [pc, #28]	; (801ec <osc_get_rate+0x70>)
   801d0:	e002      	b.n	801d8 <osc_get_rate+0x5c>

	case OSC_MAINCK_BYPASS:
		return BOARD_FREQ_MAINCK_BYPASS;
   801d2:	4b06      	ldr	r3, [pc, #24]	; (801ec <osc_get_rate+0x70>)
   801d4:	e000      	b.n	801d8 <osc_get_rate+0x5c>
	}

	return 0;
   801d6:	2300      	movs	r3, #0
}
   801d8:	4618      	mov	r0, r3
   801da:	370c      	adds	r7, #12
   801dc:	46bd      	mov	sp, r7
   801de:	bc80      	pop	{r7}
   801e0:	4770      	bx	lr
   801e2:	bf00      	nop
   801e4:	003d0900 	.word	0x003d0900
   801e8:	007a1200 	.word	0x007a1200
   801ec:	00b71b00 	.word	0x00b71b00

000801f0 <sysclk_get_main_hz>:
 */
#if (defined CONFIG_SYSCLK_DEFAULT_RETURNS_SLOW_OSC)
extern uint32_t sysclk_initialized;
#endif
static inline uint32_t sysclk_get_main_hz(void)
{
   801f0:	b580      	push	{r7, lr}
   801f2:	af00      	add	r7, sp, #0
	} else if (CONFIG_SYSCLK_SOURCE == SYSCLK_SRC_MAINCK_BYPASS) {
		return OSC_MAINCK_BYPASS_HZ;
	}
#ifdef CONFIG_PLL0_SOURCE
	else if (CONFIG_SYSCLK_SOURCE == SYSCLK_SRC_PLLACK) {
		return pll_get_default_rate(0);
   801f4:	2006      	movs	r0, #6
   801f6:	f7ff ffc1 	bl	8017c <osc_get_rate>
   801fa:	4602      	mov	r2, r0
   801fc:	4613      	mov	r3, r2
   801fe:	00db      	lsls	r3, r3, #3
   80200:	1a9b      	subs	r3, r3, r2
   80202:	005b      	lsls	r3, r3, #1
#endif
	else {
		/* unhandled_case(CONFIG_SYSCLK_SOURCE); */
		return 0;
	}
}
   80204:	4618      	mov	r0, r3
   80206:	bd80      	pop	{r7, pc}

00080208 <sysclk_get_cpu_hz>:
 * clocks.
 *
 * \return Frequency of the CPU clock, in Hz.
 */
static inline uint32_t sysclk_get_cpu_hz(void)
{
   80208:	b580      	push	{r7, lr}
   8020a:	af00      	add	r7, sp, #0
	/* CONFIG_SYSCLK_PRES is the register value for setting the expected */
	/* prescaler, not an immediate value. */
	return sysclk_get_main_hz() /
   8020c:	f7ff fff0 	bl	801f0 <sysclk_get_main_hz>
   80210:	4603      	mov	r3, r0
   80212:	085b      	lsrs	r3, r3, #1
		((CONFIG_SYSCLK_PRES == SYSCLK_PRES_3) ? 3 :
			(1 << (CONFIG_SYSCLK_PRES >> PMC_MCKR_PRES_Pos)));
}
   80214:	4618      	mov	r0, r3
   80216:	bd80      	pop	{r7, pc}

00080218 <sysclk_enable_peripheral_clock>:
 * \brief Enable a peripheral's clock.
 *
 * \param ul_id Id (number) of the peripheral clock.
 */
static inline void sysclk_enable_peripheral_clock(uint32_t ul_id)
{
   80218:	b580      	push	{r7, lr}
   8021a:	b082      	sub	sp, #8
   8021c:	af00      	add	r7, sp, #0
   8021e:	6078      	str	r0, [r7, #4]
	pmc_enable_periph_clk(ul_id);
   80220:	6878      	ldr	r0, [r7, #4]
   80222:	f001 fb25 	bl	81870 <pmc_enable_periph_clk>
}
   80226:	bf00      	nop
   80228:	3708      	adds	r7, #8
   8022a:	46bd      	mov	sp, r7
   8022c:	bd80      	pop	{r7, pc}

0008022e <ioport_init>:
 *
 * This function must be called before using any other functions in the IOPORT
 * service.
 */
static inline void ioport_init(void)
{
   8022e:	b580      	push	{r7, lr}
   80230:	af00      	add	r7, sp, #0
}

__always_inline static void arch_ioport_init(void)
{
#ifdef ID_PIOA
	sysclk_enable_peripheral_clock(ID_PIOA);
   80232:	200b      	movs	r0, #11
   80234:	f7ff fff0 	bl	80218 <sysclk_enable_peripheral_clock>
#endif
#ifdef ID_PIOB
	sysclk_enable_peripheral_clock(ID_PIOB);
   80238:	200c      	movs	r0, #12
   8023a:	f7ff ffed 	bl	80218 <sysclk_enable_peripheral_clock>
#endif
#ifdef ID_PIOC
	sysclk_enable_peripheral_clock(ID_PIOC);
   8023e:	200d      	movs	r0, #13
   80240:	f7ff ffea 	bl	80218 <sysclk_enable_peripheral_clock>
#endif
#ifdef ID_PIOD
	sysclk_enable_peripheral_clock(ID_PIOD);
   80244:	200e      	movs	r0, #14
   80246:	f7ff ffe7 	bl	80218 <sysclk_enable_peripheral_clock>
	arch_ioport_init();
}
   8024a:	bf00      	nop
   8024c:	bd80      	pop	{r7, pc}

0008024e <ioport_set_pin_dir>:
 * \param pin IOPORT pin to configure
 * \param dir Direction to set for the specified pin (\ref ioport_direction)
 */
static inline void ioport_set_pin_dir(ioport_pin_t pin,
		enum ioport_direction dir)
{
   8024e:	b480      	push	{r7}
   80250:	b08d      	sub	sp, #52	; 0x34
   80252:	af00      	add	r7, sp, #0
   80254:	6078      	str	r0, [r7, #4]
   80256:	460b      	mov	r3, r1
   80258:	70fb      	strb	r3, [r7, #3]
   8025a:	687b      	ldr	r3, [r7, #4]
   8025c:	62fb      	str	r3, [r7, #44]	; 0x2c
   8025e:	78fb      	ldrb	r3, [r7, #3]
   80260:	f887 302b 	strb.w	r3, [r7, #43]	; 0x2b
   80264:	6afb      	ldr	r3, [r7, #44]	; 0x2c
   80266:	627b      	str	r3, [r7, #36]	; 0x24
   80268:	6a7b      	ldr	r3, [r7, #36]	; 0x24
   8026a:	623b      	str	r3, [r7, #32]
	return pin >> 5;
   8026c:	6a3b      	ldr	r3, [r7, #32]
   8026e:	095b      	lsrs	r3, r3, #5
   80270:	61fb      	str	r3, [r7, #28]
	return (Pio *)((uintptr_t)IOPORT_BASE_ADDRESS +
   80272:	69fb      	ldr	r3, [r7, #28]
   80274:	f503 1300 	add.w	r3, r3, #2097152	; 0x200000
   80278:	f203 7307 	addw	r3, r3, #1799	; 0x707
   8027c:	025b      	lsls	r3, r3, #9
}

__always_inline static void arch_ioport_set_pin_dir(ioport_pin_t pin,
		enum ioport_direction dir)
{
	Pio *base = arch_ioport_pin_to_base(pin);
   8027e:	61bb      	str	r3, [r7, #24]

	if (dir == IOPORT_DIR_OUTPUT) {
   80280:	f897 302b 	ldrb.w	r3, [r7, #43]	; 0x2b
   80284:	2b01      	cmp	r3, #1
   80286:	d109      	bne.n	8029c <ioport_set_pin_dir+0x4e>
   80288:	6afb      	ldr	r3, [r7, #44]	; 0x2c
   8028a:	617b      	str	r3, [r7, #20]
	return 1U << (pin & 0x1F);
   8028c:	697b      	ldr	r3, [r7, #20]
   8028e:	f003 031f 	and.w	r3, r3, #31
   80292:	2201      	movs	r2, #1
   80294:	409a      	lsls	r2, r3
		base->PIO_OER = arch_ioport_pin_to_mask(pin);
   80296:	69bb      	ldr	r3, [r7, #24]
   80298:	611a      	str	r2, [r3, #16]
   8029a:	e00c      	b.n	802b6 <ioport_set_pin_dir+0x68>
	} else if (dir == IOPORT_DIR_INPUT) {
   8029c:	f897 302b 	ldrb.w	r3, [r7, #43]	; 0x2b
   802a0:	2b00      	cmp	r3, #0
   802a2:	d108      	bne.n	802b6 <ioport_set_pin_dir+0x68>
   802a4:	6afb      	ldr	r3, [r7, #44]	; 0x2c
   802a6:	613b      	str	r3, [r7, #16]
	return 1U << (pin & 0x1F);
   802a8:	693b      	ldr	r3, [r7, #16]
   802aa:	f003 031f 	and.w	r3, r3, #31
   802ae:	2201      	movs	r2, #1
   802b0:	409a      	lsls	r2, r3
		base->PIO_ODR = arch_ioport_pin_to_mask(pin);
   802b2:	69bb      	ldr	r3, [r7, #24]
   802b4:	615a      	str	r2, [r3, #20]
   802b6:	6afb      	ldr	r3, [r7, #44]	; 0x2c
   802b8:	60fb      	str	r3, [r7, #12]
	return 1U << (pin & 0x1F);
   802ba:	68fb      	ldr	r3, [r7, #12]
   802bc:	f003 031f 	and.w	r3, r3, #31
   802c0:	2201      	movs	r2, #1
   802c2:	409a      	lsls	r2, r3
	}

	base->PIO_OWER = arch_ioport_pin_to_mask(pin);
   802c4:	69bb      	ldr	r3, [r7, #24]
   802c6:	f8c3 20a0 	str.w	r2, [r3, #160]	; 0xa0
	arch_ioport_set_pin_dir(pin, dir);
}
   802ca:	bf00      	nop
   802cc:	3734      	adds	r7, #52	; 0x34
   802ce:	46bd      	mov	sp, r7
   802d0:	bc80      	pop	{r7}
   802d2:	4770      	bx	lr

000802d4 <ioport_set_pin_level>:
 *
 * \param pin IOPORT pin to configure
 * \param level Logical value of the pin
 */
static inline void ioport_set_pin_level(ioport_pin_t pin, bool level)
{
   802d4:	b480      	push	{r7}
   802d6:	b08b      	sub	sp, #44	; 0x2c
   802d8:	af00      	add	r7, sp, #0
   802da:	6078      	str	r0, [r7, #4]
   802dc:	460b      	mov	r3, r1
   802de:	70fb      	strb	r3, [r7, #3]
   802e0:	687b      	ldr	r3, [r7, #4]
   802e2:	627b      	str	r3, [r7, #36]	; 0x24
   802e4:	78fb      	ldrb	r3, [r7, #3]
   802e6:	f887 3023 	strb.w	r3, [r7, #35]	; 0x23
   802ea:	6a7b      	ldr	r3, [r7, #36]	; 0x24
   802ec:	61fb      	str	r3, [r7, #28]
   802ee:	69fb      	ldr	r3, [r7, #28]
   802f0:	61bb      	str	r3, [r7, #24]
	return pin >> 5;
   802f2:	69bb      	ldr	r3, [r7, #24]
   802f4:	095b      	lsrs	r3, r3, #5
   802f6:	617b      	str	r3, [r7, #20]
	return (Pio *)((uintptr_t)IOPORT_BASE_ADDRESS +
   802f8:	697b      	ldr	r3, [r7, #20]
   802fa:	f503 1300 	add.w	r3, r3, #2097152	; 0x200000
   802fe:	f203 7307 	addw	r3, r3, #1799	; 0x707
   80302:	025b      	lsls	r3, r3, #9
}

__always_inline static void arch_ioport_set_pin_level(ioport_pin_t pin,
		bool level)
{
	Pio *base = arch_ioport_pin_to_base(pin);
   80304:	613b      	str	r3, [r7, #16]

	if (level) {
   80306:	f897 3023 	ldrb.w	r3, [r7, #35]	; 0x23
   8030a:	2b00      	cmp	r3, #0
   8030c:	d009      	beq.n	80322 <ioport_set_pin_level+0x4e>
   8030e:	6a7b      	ldr	r3, [r7, #36]	; 0x24
   80310:	60fb      	str	r3, [r7, #12]
	return 1U << (pin & 0x1F);
   80312:	68fb      	ldr	r3, [r7, #12]
   80314:	f003 031f 	and.w	r3, r3, #31
   80318:	2201      	movs	r2, #1
   8031a:	409a      	lsls	r2, r3
		base->PIO_SODR = arch_ioport_pin_to_mask(pin);
   8031c:	693b      	ldr	r3, [r7, #16]
   8031e:	631a      	str	r2, [r3, #48]	; 0x30
	arch_ioport_set_pin_level(pin, level);
}
   80320:	e008      	b.n	80334 <ioport_set_pin_level+0x60>
   80322:	6a7b      	ldr	r3, [r7, #36]	; 0x24
   80324:	60bb      	str	r3, [r7, #8]
	return 1U << (pin & 0x1F);
   80326:	68bb      	ldr	r3, [r7, #8]
   80328:	f003 031f 	and.w	r3, r3, #31
   8032c:	2201      	movs	r2, #1
   8032e:	409a      	lsls	r2, r3
	} else {
		base->PIO_CODR = arch_ioport_pin_to_mask(pin);
   80330:	693b      	ldr	r3, [r7, #16]
   80332:	635a      	str	r2, [r3, #52]	; 0x34
   80334:	bf00      	nop
   80336:	372c      	adds	r7, #44	; 0x2c
   80338:	46bd      	mov	sp, r7
   8033a:	bc80      	pop	{r7}
   8033c:	4770      	bx	lr

0008033e <ioport_get_pin_level>:
 *
 * \param pin IOPORT pin to read
 * \return Current logical value of the specified pin
 */
static inline bool ioport_get_pin_level(ioport_pin_t pin)
{
   8033e:	b480      	push	{r7}
   80340:	b089      	sub	sp, #36	; 0x24
   80342:	af00      	add	r7, sp, #0
   80344:	6078      	str	r0, [r7, #4]
   80346:	687b      	ldr	r3, [r7, #4]
   80348:	61fb      	str	r3, [r7, #28]
   8034a:	69fb      	ldr	r3, [r7, #28]
   8034c:	61bb      	str	r3, [r7, #24]
   8034e:	69bb      	ldr	r3, [r7, #24]
   80350:	617b      	str	r3, [r7, #20]
	return pin >> 5;
   80352:	697b      	ldr	r3, [r7, #20]
   80354:	095b      	lsrs	r3, r3, #5
   80356:	613b      	str	r3, [r7, #16]
	return (Pio *)((uintptr_t)IOPORT_BASE_ADDRESS +
   80358:	693b      	ldr	r3, [r7, #16]
   8035a:	f503 1300 	add.w	r3, r3, #2097152	; 0x200000
   8035e:	f203 7307 	addw	r3, r3, #1799	; 0x707
   80362:	025b      	lsls	r3, r3, #9
	base->PIO_CODR = mask & ~level;
}

__always_inline static bool arch_ioport_get_pin_level(ioport_pin_t pin)
{
	return arch_ioport_pin_to_base(pin)->PIO_PDSR & arch_ioport_pin_to_mask(pin);
   80364:	6bda      	ldr	r2, [r3, #60]	; 0x3c
   80366:	69fb      	ldr	r3, [r7, #28]
   80368:	60fb      	str	r3, [r7, #12]
	return 1U << (pin & 0x1F);
   8036a:	68fb      	ldr	r3, [r7, #12]
   8036c:	f003 031f 	and.w	r3, r3, #31
   80370:	2101      	movs	r1, #1
   80372:	fa01 f303 	lsl.w	r3, r1, r3
	return arch_ioport_pin_to_base(pin)->PIO_PDSR & arch_ioport_pin_to_mask(pin);
   80376:	4013      	ands	r3, r2
   80378:	2b00      	cmp	r3, #0
   8037a:	bf14      	ite	ne
   8037c:	2301      	movne	r3, #1
   8037e:	2300      	moveq	r3, #0
   80380:	b2db      	uxtb	r3, r3
	return arch_ioport_get_pin_level(pin);
}
   80382:	4618      	mov	r0, r3
   80384:	3724      	adds	r7, #36	; 0x24
   80386:	46bd      	mov	sp, r7
   80388:	bc80      	pop	{r7}
   8038a:	4770      	bx	lr
   8038c:	0000      	movs	r0, r0
	...

00080390 <busy>:
  return position;

}

// Wait for busy state of LCD to end
void busy(void){
   80390:	e92d 4890 	stmdb	sp!, {r4, r7, fp, lr}
   80394:	b082      	sub	sp, #8
   80396:	af00      	add	r7, sp, #0

/*  ioport_set_port_dir(IOPORT_PIOC,\
                      _LCD_D4_PIO | _LCD_D5_PIO | _LCD_D6_PIO | _LCD_D7_PIO, IOPORT_DIR_INPUT);
                      */

  ioport_set_pin_dir(_PIN_LCD_D4, IOPORT_DIR_INPUT);
   80398:	2100      	movs	r1, #0
   8039a:	204d      	movs	r0, #77	; 0x4d
   8039c:	f7ff ff57 	bl	8024e <ioport_set_pin_dir>
  ioport_set_pin_dir(_PIN_LCD_D5, IOPORT_DIR_INPUT);
   803a0:	2100      	movs	r1, #0
   803a2:	204f      	movs	r0, #79	; 0x4f
   803a4:	f7ff ff53 	bl	8024e <ioport_set_pin_dir>
  ioport_set_pin_dir(_PIN_LCD_D6, IOPORT_DIR_INPUT);
   803a8:	2100      	movs	r1, #0
   803aa:	2051      	movs	r0, #81	; 0x51
   803ac:	f7ff ff4f 	bl	8024e <ioport_set_pin_dir>
  ioport_set_pin_dir(_PIN_LCD_D7, IOPORT_DIR_INPUT);
   803b0:	2100      	movs	r1, #0
   803b2:	2053      	movs	r0, #83	; 0x53
   803b4:	f7ff ff4b 	bl	8024e <ioport_set_pin_dir>


  ioport_set_pin_level(_PIN_LCD_RS, 0);
   803b8:	2100      	movs	r1, #0
   803ba:	204c      	movs	r0, #76	; 0x4c
   803bc:	f7ff ff8a 	bl	802d4 <ioport_set_pin_level>
  ioport_set_pin_level(_PIN_LCD_RW, 1);
   803c0:	2101      	movs	r1, #1
   803c2:	204e      	movs	r0, #78	; 0x4e
   803c4:	f7ff ff86 	bl	802d4 <ioport_set_pin_level>

  do
  {
    delay_us(1);
   803c8:	f7ff ff1e 	bl	80208 <sysclk_get_cpu_hz>
   803cc:	4603      	mov	r3, r0
   803ce:	f04f 0400 	mov.w	r4, #0
   803d2:	a245      	add	r2, pc, #276	; (adr r2, 804e8 <busy+0x158>)
   803d4:	e9d2 1200 	ldrd	r1, r2, [r2]
   803d8:	eb13 0b01 	adds.w	fp, r3, r1
   803dc:	eb44 0c02 	adc.w	ip, r4, r2
   803e0:	4658      	mov	r0, fp
   803e2:	4661      	mov	r1, ip
   803e4:	4a42      	ldr	r2, [pc, #264]	; (804f0 <busy+0x160>)
   803e6:	f04f 0300 	mov.w	r3, #0
   803ea:	f001 fb45 	bl	81a78 <__aeabi_uldivmod>
   803ee:	4603      	mov	r3, r0
   803f0:	460c      	mov	r4, r1
   803f2:	4618      	mov	r0, r3
   803f4:	f006 ffa8 	bl	87348 <__portable_delay_cycles_veneer>
    ioport_set_pin_level(_PIN_LCD_E, 1);
   803f8:	2101      	movs	r1, #1
   803fa:	2050      	movs	r0, #80	; 0x50
   803fc:	f7ff ff6a 	bl	802d4 <ioport_set_pin_level>
    delay_us(1);
   80400:	f7ff ff02 	bl	80208 <sysclk_get_cpu_hz>
   80404:	4603      	mov	r3, r0
   80406:	f04f 0400 	mov.w	r4, #0
   8040a:	a237      	add	r2, pc, #220	; (adr r2, 804e8 <busy+0x158>)
   8040c:	e9d2 1200 	ldrd	r1, r2, [r2]
   80410:	eb13 0b01 	adds.w	fp, r3, r1
   80414:	eb44 0c02 	adc.w	ip, r4, r2
   80418:	4658      	mov	r0, fp
   8041a:	4661      	mov	r1, ip
   8041c:	4a34      	ldr	r2, [pc, #208]	; (804f0 <busy+0x160>)
   8041e:	f04f 0300 	mov.w	r3, #0
   80422:	f001 fb29 	bl	81a78 <__aeabi_uldivmod>
   80426:	4603      	mov	r3, r0
   80428:	460c      	mov	r4, r1
   8042a:	4618      	mov	r0, r3
   8042c:	f006 ff8c 	bl	87348 <__portable_delay_cycles_veneer>
    busy_flag = ioport_get_pin_level(_PIN_LCD_D7);
   80430:	2053      	movs	r0, #83	; 0x53
   80432:	f7ff ff84 	bl	8033e <ioport_get_pin_level>
   80436:	4603      	mov	r3, r0
   80438:	607b      	str	r3, [r7, #4]
    ioport_set_pin_level(_PIN_LCD_E, 0);
   8043a:	2100      	movs	r1, #0
   8043c:	2050      	movs	r0, #80	; 0x50
   8043e:	f7ff ff49 	bl	802d4 <ioport_set_pin_level>
    delay_us(1);
   80442:	f7ff fee1 	bl	80208 <sysclk_get_cpu_hz>
   80446:	4603      	mov	r3, r0
   80448:	f04f 0400 	mov.w	r4, #0
   8044c:	a226      	add	r2, pc, #152	; (adr r2, 804e8 <busy+0x158>)
   8044e:	e9d2 1200 	ldrd	r1, r2, [r2]
   80452:	eb13 0b01 	adds.w	fp, r3, r1
   80456:	eb44 0c02 	adc.w	ip, r4, r2
   8045a:	4658      	mov	r0, fp
   8045c:	4661      	mov	r1, ip
   8045e:	4a24      	ldr	r2, [pc, #144]	; (804f0 <busy+0x160>)
   80460:	f04f 0300 	mov.w	r3, #0
   80464:	f001 fb08 	bl	81a78 <__aeabi_uldivmod>
   80468:	4603      	mov	r3, r0
   8046a:	460c      	mov	r4, r1
   8046c:	4618      	mov	r0, r3
   8046e:	f006 ff6b 	bl	87348 <__portable_delay_cycles_veneer>
    ioport_set_pin_level(_PIN_LCD_E, 1);
   80472:	2101      	movs	r1, #1
   80474:	2050      	movs	r0, #80	; 0x50
   80476:	f7ff ff2d 	bl	802d4 <ioport_set_pin_level>
    delay_us(1);
   8047a:	f7ff fec5 	bl	80208 <sysclk_get_cpu_hz>
   8047e:	4603      	mov	r3, r0
   80480:	f04f 0400 	mov.w	r4, #0
   80484:	a218      	add	r2, pc, #96	; (adr r2, 804e8 <busy+0x158>)
   80486:	e9d2 1200 	ldrd	r1, r2, [r2]
   8048a:	eb13 0b01 	adds.w	fp, r3, r1
   8048e:	eb44 0c02 	adc.w	ip, r4, r2
   80492:	4658      	mov	r0, fp
   80494:	4661      	mov	r1, ip
   80496:	4a16      	ldr	r2, [pc, #88]	; (804f0 <busy+0x160>)
   80498:	f04f 0300 	mov.w	r3, #0
   8049c:	f001 faec 	bl	81a78 <__aeabi_uldivmod>
   804a0:	4603      	mov	r3, r0
   804a2:	460c      	mov	r4, r1
   804a4:	4618      	mov	r0, r3
   804a6:	f006 ff4f 	bl	87348 <__portable_delay_cycles_veneer>
    ioport_set_pin_level(_PIN_LCD_E, 0);
   804aa:	2100      	movs	r1, #0
   804ac:	2050      	movs	r0, #80	; 0x50
   804ae:	f7ff ff11 	bl	802d4 <ioport_set_pin_level>
  } while(busy_flag);
   804b2:	687b      	ldr	r3, [r7, #4]
   804b4:	2b00      	cmp	r3, #0
   804b6:	d187      	bne.n	803c8 <busy+0x38>

  /*
  ioport_set_port_dir(IOPORT_PIOC,\
                      _LCD_D4_PIO | _LCD_D5_PIO | _LCD_D6_PIO | _LCD_D7_PIO, IOPORT_DIR_OUTPUT);
                      */
  ioport_set_pin_dir(_PIN_LCD_D4, IOPORT_DIR_OUTPUT);
   804b8:	2101      	movs	r1, #1
   804ba:	204d      	movs	r0, #77	; 0x4d
   804bc:	f7ff fec7 	bl	8024e <ioport_set_pin_dir>
  ioport_set_pin_dir(_PIN_LCD_D5, IOPORT_DIR_OUTPUT);
   804c0:	2101      	movs	r1, #1
   804c2:	204f      	movs	r0, #79	; 0x4f
   804c4:	f7ff fec3 	bl	8024e <ioport_set_pin_dir>
  ioport_set_pin_dir(_PIN_LCD_D6, IOPORT_DIR_OUTPUT);
   804c8:	2101      	movs	r1, #1
   804ca:	2051      	movs	r0, #81	; 0x51
   804cc:	f7ff febf 	bl	8024e <ioport_set_pin_dir>
  ioport_set_pin_dir(_PIN_LCD_D7, IOPORT_DIR_OUTPUT);
   804d0:	2101      	movs	r1, #1
   804d2:	2053      	movs	r0, #83	; 0x53
   804d4:	f7ff febb 	bl	8024e <ioport_set_pin_dir>

}
   804d8:	bf00      	nop
   804da:	3708      	adds	r7, #8
   804dc:	46bd      	mov	sp, r7
   804de:	e8bd 8890 	ldmia.w	sp!, {r4, r7, fp, pc}
   804e2:	bf00      	nop
   804e4:	f3af 8000 	nop.w
   804e8:	00d59f7f 	.word	0x00d59f7f
   804ec:	00000000 	.word	0x00000000
   804f0:	00d59f80 	.word	0x00d59f80
   804f4:	00000000 	.word	0x00000000

000804f8 <lcd_write_high>:

// LCD write high four bits
// byte ... data or command byte
void lcd_write_high(uint8_t byte){
   804f8:	e92d 4890 	stmdb	sp!, {r4, r7, fp, lr}
   804fc:	b082      	sub	sp, #8
   804fe:	af00      	add	r7, sp, #0
   80500:	4603      	mov	r3, r0
   80502:	71fb      	strb	r3, [r7, #7]

  ioport_set_pin_level(_PIN_LCD_RW, 0);
   80504:	2100      	movs	r1, #0
   80506:	204e      	movs	r0, #78	; 0x4e
   80508:	f7ff fee4 	bl	802d4 <ioport_set_pin_level>
  delay_us(1);
   8050c:	f7ff fe7c 	bl	80208 <sysclk_get_cpu_hz>
   80510:	4603      	mov	r3, r0
   80512:	f04f 0400 	mov.w	r4, #0
   80516:	a232      	add	r2, pc, #200	; (adr r2, 805e0 <lcd_write_high+0xe8>)
   80518:	e9d2 1200 	ldrd	r1, r2, [r2]
   8051c:	eb13 0b01 	adds.w	fp, r3, r1
   80520:	eb44 0c02 	adc.w	ip, r4, r2
   80524:	4658      	mov	r0, fp
   80526:	4661      	mov	r1, ip
   80528:	4a2f      	ldr	r2, [pc, #188]	; (805e8 <lcd_write_high+0xf0>)
   8052a:	f04f 0300 	mov.w	r3, #0
   8052e:	f001 faa3 	bl	81a78 <__aeabi_uldivmod>
   80532:	4603      	mov	r3, r0
   80534:	460c      	mov	r4, r1
   80536:	4618      	mov	r0, r3
   80538:	f006 ff06 	bl	87348 <__portable_delay_cycles_veneer>


  ioport_set_pin_level(_PIN_LCD_D7, ( byte&(1<<7) )!=0 );
   8053c:	f997 3007 	ldrsb.w	r3, [r7, #7]
   80540:	b2db      	uxtb	r3, r3
   80542:	09db      	lsrs	r3, r3, #7
   80544:	b2db      	uxtb	r3, r3
   80546:	4619      	mov	r1, r3
   80548:	2053      	movs	r0, #83	; 0x53
   8054a:	f7ff fec3 	bl	802d4 <ioport_set_pin_level>
  ioport_set_pin_level(_PIN_LCD_D6, ( byte&(1<<6) )!=0 );
   8054e:	79fb      	ldrb	r3, [r7, #7]
   80550:	f003 0340 	and.w	r3, r3, #64	; 0x40
   80554:	2b00      	cmp	r3, #0
   80556:	bf14      	ite	ne
   80558:	2301      	movne	r3, #1
   8055a:	2300      	moveq	r3, #0
   8055c:	b2db      	uxtb	r3, r3
   8055e:	4619      	mov	r1, r3
   80560:	2051      	movs	r0, #81	; 0x51
   80562:	f7ff feb7 	bl	802d4 <ioport_set_pin_level>
  ioport_set_pin_level(_PIN_LCD_D5, ( byte&(1<<5) )!=0 );
   80566:	79fb      	ldrb	r3, [r7, #7]
   80568:	f003 0320 	and.w	r3, r3, #32
   8056c:	2b00      	cmp	r3, #0
   8056e:	bf14      	ite	ne
   80570:	2301      	movne	r3, #1
   80572:	2300      	moveq	r3, #0
   80574:	b2db      	uxtb	r3, r3
   80576:	4619      	mov	r1, r3
   80578:	204f      	movs	r0, #79	; 0x4f
   8057a:	f7ff feab 	bl	802d4 <ioport_set_pin_level>
  ioport_set_pin_level(_PIN_LCD_D4, ( byte&(1<<4) )!=0 );
   8057e:	79fb      	ldrb	r3, [r7, #7]
   80580:	f003 0310 	and.w	r3, r3, #16
   80584:	2b00      	cmp	r3, #0
   80586:	bf14      	ite	ne
   80588:	2301      	movne	r3, #1
   8058a:	2300      	moveq	r3, #0
   8058c:	b2db      	uxtb	r3, r3
   8058e:	4619      	mov	r1, r3
   80590:	204d      	movs	r0, #77	; 0x4d
   80592:	f7ff fe9f 	bl	802d4 <ioport_set_pin_level>

  ioport_set_pin_level(_PIN_LCD_E, 1);
   80596:	2101      	movs	r1, #1
   80598:	2050      	movs	r0, #80	; 0x50
   8059a:	f7ff fe9b 	bl	802d4 <ioport_set_pin_level>
  delay_us(1);
   8059e:	f7ff fe33 	bl	80208 <sysclk_get_cpu_hz>
   805a2:	4603      	mov	r3, r0
   805a4:	f04f 0400 	mov.w	r4, #0
   805a8:	a20d      	add	r2, pc, #52	; (adr r2, 805e0 <lcd_write_high+0xe8>)
   805aa:	e9d2 1200 	ldrd	r1, r2, [r2]
   805ae:	eb13 0b01 	adds.w	fp, r3, r1
   805b2:	eb44 0c02 	adc.w	ip, r4, r2
   805b6:	4658      	mov	r0, fp
   805b8:	4661      	mov	r1, ip
   805ba:	4a0b      	ldr	r2, [pc, #44]	; (805e8 <lcd_write_high+0xf0>)
   805bc:	f04f 0300 	mov.w	r3, #0
   805c0:	f001 fa5a 	bl	81a78 <__aeabi_uldivmod>
   805c4:	4603      	mov	r3, r0
   805c6:	460c      	mov	r4, r1
   805c8:	4618      	mov	r0, r3
   805ca:	f006 febd 	bl	87348 <__portable_delay_cycles_veneer>
  ioport_set_pin_level(_PIN_LCD_E, 0);
   805ce:	2100      	movs	r1, #0
   805d0:	2050      	movs	r0, #80	; 0x50
   805d2:	f7ff fe7f 	bl	802d4 <ioport_set_pin_level>
}
   805d6:	bf00      	nop
   805d8:	3708      	adds	r7, #8
   805da:	46bd      	mov	sp, r7
   805dc:	e8bd 8890 	ldmia.w	sp!, {r4, r7, fp, pc}
   805e0:	00d59f7f 	.word	0x00d59f7f
   805e4:	00000000 	.word	0x00000000
   805e8:	00d59f80 	.word	0x00d59f80
   805ec:	00000000 	.word	0x00000000

000805f0 <lcd_write_low>:

// LCD write low four bits
// byte ... data or command byte
void lcd_write_low(uint8_t byte){
   805f0:	e92d 4890 	stmdb	sp!, {r4, r7, fp, lr}
   805f4:	b082      	sub	sp, #8
   805f6:	af00      	add	r7, sp, #0
   805f8:	4603      	mov	r3, r0
   805fa:	71fb      	strb	r3, [r7, #7]
  delay_us(1);
   805fc:	f7ff fe04 	bl	80208 <sysclk_get_cpu_hz>
   80600:	4603      	mov	r3, r0
   80602:	f04f 0400 	mov.w	r4, #0
   80606:	a236      	add	r2, pc, #216	; (adr r2, 806e0 <lcd_write_low+0xf0>)
   80608:	e9d2 1200 	ldrd	r1, r2, [r2]
   8060c:	eb13 0b01 	adds.w	fp, r3, r1
   80610:	eb44 0c02 	adc.w	ip, r4, r2
   80614:	4658      	mov	r0, fp
   80616:	4661      	mov	r1, ip
   80618:	4a33      	ldr	r2, [pc, #204]	; (806e8 <lcd_write_low+0xf8>)
   8061a:	f04f 0300 	mov.w	r3, #0
   8061e:	f001 fa2b 	bl	81a78 <__aeabi_uldivmod>
   80622:	4603      	mov	r3, r0
   80624:	460c      	mov	r4, r1
   80626:	4618      	mov	r0, r3
   80628:	f006 fe8e 	bl	87348 <__portable_delay_cycles_veneer>

  ioport_set_pin_level(_PIN_LCD_D7, ( byte&(1<<3) )!=0 );
   8062c:	79fb      	ldrb	r3, [r7, #7]
   8062e:	f003 0308 	and.w	r3, r3, #8
   80632:	2b00      	cmp	r3, #0
   80634:	bf14      	ite	ne
   80636:	2301      	movne	r3, #1
   80638:	2300      	moveq	r3, #0
   8063a:	b2db      	uxtb	r3, r3
   8063c:	4619      	mov	r1, r3
   8063e:	2053      	movs	r0, #83	; 0x53
   80640:	f7ff fe48 	bl	802d4 <ioport_set_pin_level>
  ioport_set_pin_level(_PIN_LCD_D6, ( byte&(1<<2) )!=0 );
   80644:	79fb      	ldrb	r3, [r7, #7]
   80646:	f003 0304 	and.w	r3, r3, #4
   8064a:	2b00      	cmp	r3, #0
   8064c:	bf14      	ite	ne
   8064e:	2301      	movne	r3, #1
   80650:	2300      	moveq	r3, #0
   80652:	b2db      	uxtb	r3, r3
   80654:	4619      	mov	r1, r3
   80656:	2051      	movs	r0, #81	; 0x51
   80658:	f7ff fe3c 	bl	802d4 <ioport_set_pin_level>
  ioport_set_pin_level(_PIN_LCD_D5, ( byte&(1<<1) )!=0 );
   8065c:	79fb      	ldrb	r3, [r7, #7]
   8065e:	f003 0302 	and.w	r3, r3, #2
   80662:	2b00      	cmp	r3, #0
   80664:	bf14      	ite	ne
   80666:	2301      	movne	r3, #1
   80668:	2300      	moveq	r3, #0
   8066a:	b2db      	uxtb	r3, r3
   8066c:	4619      	mov	r1, r3
   8066e:	204f      	movs	r0, #79	; 0x4f
   80670:	f7ff fe30 	bl	802d4 <ioport_set_pin_level>
  ioport_set_pin_level(_PIN_LCD_D4, ( byte&(1<<0) )!=0 );
   80674:	79fb      	ldrb	r3, [r7, #7]
   80676:	f003 0301 	and.w	r3, r3, #1
   8067a:	2b00      	cmp	r3, #0
   8067c:	bf14      	ite	ne
   8067e:	2301      	movne	r3, #1
   80680:	2300      	moveq	r3, #0
   80682:	b2db      	uxtb	r3, r3
   80684:	4619      	mov	r1, r3
   80686:	204d      	movs	r0, #77	; 0x4d
   80688:	f7ff fe24 	bl	802d4 <ioport_set_pin_level>

  ioport_set_pin_level(_PIN_LCD_E, 1);
   8068c:	2101      	movs	r1, #1
   8068e:	2050      	movs	r0, #80	; 0x50
   80690:	f7ff fe20 	bl	802d4 <ioport_set_pin_level>
  delay_us(1);
   80694:	f7ff fdb8 	bl	80208 <sysclk_get_cpu_hz>
   80698:	4603      	mov	r3, r0
   8069a:	f04f 0400 	mov.w	r4, #0
   8069e:	a210      	add	r2, pc, #64	; (adr r2, 806e0 <lcd_write_low+0xf0>)
   806a0:	e9d2 1200 	ldrd	r1, r2, [r2]
   806a4:	eb13 0b01 	adds.w	fp, r3, r1
   806a8:	eb44 0c02 	adc.w	ip, r4, r2
   806ac:	4658      	mov	r0, fp
   806ae:	4661      	mov	r1, ip
   806b0:	4a0d      	ldr	r2, [pc, #52]	; (806e8 <lcd_write_low+0xf8>)
   806b2:	f04f 0300 	mov.w	r3, #0
   806b6:	f001 f9df 	bl	81a78 <__aeabi_uldivmod>
   806ba:	4603      	mov	r3, r0
   806bc:	460c      	mov	r4, r1
   806be:	4618      	mov	r0, r3
   806c0:	f006 fe42 	bl	87348 <__portable_delay_cycles_veneer>
  ioport_set_pin_level(_PIN_LCD_E, 0);
   806c4:	2100      	movs	r1, #0
   806c6:	2050      	movs	r0, #80	; 0x50
   806c8:	f7ff fe04 	bl	802d4 <ioport_set_pin_level>
  busy();
   806cc:	f7ff fe60 	bl	80390 <busy>
}
   806d0:	bf00      	nop
   806d2:	3708      	adds	r7, #8
   806d4:	46bd      	mov	sp, r7
   806d6:	e8bd 8890 	ldmia.w	sp!, {r4, r7, fp, pc}
   806da:	bf00      	nop
   806dc:	f3af 8000 	nop.w
   806e0:	00d59f7f 	.word	0x00d59f7f
   806e4:	00000000 	.word	0x00000000
   806e8:	00d59f80 	.word	0x00d59f80

000806ec <lcd_write_half_comm>:

// LCD write half command
// com ... command
void lcd_write_half_comm(uint8_t com){
   806ec:	b580      	push	{r7, lr}
   806ee:	b082      	sub	sp, #8
   806f0:	af00      	add	r7, sp, #0
   806f2:	4603      	mov	r3, r0
   806f4:	71fb      	strb	r3, [r7, #7]
  ioport_set_pin_level(_PIN_LCD_RS, 0);
   806f6:	2100      	movs	r1, #0
   806f8:	204c      	movs	r0, #76	; 0x4c
   806fa:	f7ff fdeb 	bl	802d4 <ioport_set_pin_level>
  lcd_write_high(com);
   806fe:	79fb      	ldrb	r3, [r7, #7]
   80700:	4618      	mov	r0, r3
   80702:	f7ff fef9 	bl	804f8 <lcd_write_high>
}
   80706:	bf00      	nop
   80708:	3708      	adds	r7, #8
   8070a:	46bd      	mov	sp, r7
   8070c:	bd80      	pop	{r7, pc}

0008070e <lcd_write_comm>:

// LCD write command
// com ... command
void lcd_write_comm(uint8_t com){
   8070e:	b580      	push	{r7, lr}
   80710:	b082      	sub	sp, #8
   80712:	af00      	add	r7, sp, #0
   80714:	4603      	mov	r3, r0
   80716:	71fb      	strb	r3, [r7, #7]
  lcd_write_half_comm(com);
   80718:	79fb      	ldrb	r3, [r7, #7]
   8071a:	4618      	mov	r0, r3
   8071c:	f7ff ffe6 	bl	806ec <lcd_write_half_comm>
  lcd_write_low(com);
   80720:	79fb      	ldrb	r3, [r7, #7]
   80722:	4618      	mov	r0, r3
   80724:	f7ff ff64 	bl	805f0 <lcd_write_low>
}
   80728:	bf00      	nop
   8072a:	3708      	adds	r7, #8
   8072c:	46bd      	mov	sp, r7
   8072e:	bd80      	pop	{r7, pc}

00080730 <lcd_write_data>:

// LCD write data
// data ... character
void lcd_write_data(uint8_t data){
   80730:	b580      	push	{r7, lr}
   80732:	b082      	sub	sp, #8
   80734:	af00      	add	r7, sp, #0
   80736:	4603      	mov	r3, r0
   80738:	71fb      	strb	r3, [r7, #7]
  ioport_set_pin_level(_PIN_LCD_RS, 1);
   8073a:	2101      	movs	r1, #1
   8073c:	204c      	movs	r0, #76	; 0x4c
   8073e:	f7ff fdc9 	bl	802d4 <ioport_set_pin_level>
  lcd_write_high(data);
   80742:	79fb      	ldrb	r3, [r7, #7]
   80744:	4618      	mov	r0, r3
   80746:	f7ff fed7 	bl	804f8 <lcd_write_high>
  lcd_write_low(data);
   8074a:	79fb      	ldrb	r3, [r7, #7]
   8074c:	4618      	mov	r0, r3
   8074e:	f7ff ff4f 	bl	805f0 <lcd_write_low>
}
   80752:	bf00      	nop
   80754:	3708      	adds	r7, #8
   80756:	46bd      	mov	sp, r7
   80758:	bd80      	pop	{r7, pc}
   8075a:	0000      	movs	r0, r0
   8075c:	0000      	movs	r0, r0
	...

00080760 <lcd_init>:

// LCD initialisation routine
void lcd_init(void){
   80760:	e92d 48f0 	stmdb	sp!, {r4, r5, r6, r7, fp, lr}
   80764:	af00      	add	r7, sp, #0
  ioport_init();
   80766:	f7ff fd62 	bl	8022e <ioport_init>
/*  ioport_set_port_dir(IOPORT_PIOC,\
       PIO_PC12 | PIO_PC14 | PIO_PC16 | PIO_PC13 |PIO_PC15 |PIO_PC17 |PIO_PC19,\
       IOPORT_DIR_OUTPUT);
       */

  ioport_set_pin_dir(_PIN_LCD_D4, IOPORT_DIR_OUTPUT);
   8076a:	2101      	movs	r1, #1
   8076c:	204d      	movs	r0, #77	; 0x4d
   8076e:	f7ff fd6e 	bl	8024e <ioport_set_pin_dir>
  ioport_set_pin_dir(_PIN_LCD_D5, IOPORT_DIR_OUTPUT);
   80772:	2101      	movs	r1, #1
   80774:	204f      	movs	r0, #79	; 0x4f
   80776:	f7ff fd6a 	bl	8024e <ioport_set_pin_dir>
  ioport_set_pin_dir(_PIN_LCD_D6, IOPORT_DIR_OUTPUT);
   8077a:	2101      	movs	r1, #1
   8077c:	2051      	movs	r0, #81	; 0x51
   8077e:	f7ff fd66 	bl	8024e <ioport_set_pin_dir>
  ioport_set_pin_dir(_PIN_LCD_D7, IOPORT_DIR_OUTPUT);
   80782:	2101      	movs	r1, #1
   80784:	2053      	movs	r0, #83	; 0x53
   80786:	f7ff fd62 	bl	8024e <ioport_set_pin_dir>

  ioport_set_pin_dir(_PIN_LCD_E, IOPORT_DIR_OUTPUT);
   8078a:	2101      	movs	r1, #1
   8078c:	2050      	movs	r0, #80	; 0x50
   8078e:	f7ff fd5e 	bl	8024e <ioport_set_pin_dir>
  ioport_set_pin_dir(_PIN_LCD_RS, IOPORT_DIR_OUTPUT);
   80792:	2101      	movs	r1, #1
   80794:	204c      	movs	r0, #76	; 0x4c
   80796:	f7ff fd5a 	bl	8024e <ioport_set_pin_dir>
  ioport_set_pin_dir(_PIN_LCD_RW, IOPORT_DIR_OUTPUT);
   8079a:	2101      	movs	r1, #1
   8079c:	204e      	movs	r0, #78	; 0x4e
   8079e:	f7ff fd56 	bl	8024e <ioport_set_pin_dir>


  delay_us(40000);
   807a2:	f7ff fd31 	bl	80208 <sysclk_get_cpu_hz>
   807a6:	4603      	mov	r3, r0
   807a8:	461d      	mov	r5, r3
   807aa:	f04f 0600 	mov.w	r6, #0
   807ae:	462b      	mov	r3, r5
   807b0:	4634      	mov	r4, r6
   807b2:	f04f 0100 	mov.w	r1, #0
   807b6:	f04f 0200 	mov.w	r2, #0
   807ba:	00a2      	lsls	r2, r4, #2
   807bc:	ea42 7293 	orr.w	r2, r2, r3, lsr #30
   807c0:	0099      	lsls	r1, r3, #2
   807c2:	460b      	mov	r3, r1
   807c4:	4614      	mov	r4, r2
   807c6:	195b      	adds	r3, r3, r5
   807c8:	eb44 0406 	adc.w	r4, r4, r6
   807cc:	f04f 0100 	mov.w	r1, #0
   807d0:	f04f 0200 	mov.w	r2, #0
   807d4:	00e2      	lsls	r2, r4, #3
   807d6:	ea42 7253 	orr.w	r2, r2, r3, lsr #29
   807da:	00d9      	lsls	r1, r3, #3
   807dc:	460b      	mov	r3, r1
   807de:	4614      	mov	r4, r2
   807e0:	1b5b      	subs	r3, r3, r5
   807e2:	eb64 0406 	sbc.w	r4, r4, r6
   807e6:	f04f 0100 	mov.w	r1, #0
   807ea:	f04f 0200 	mov.w	r2, #0
   807ee:	0122      	lsls	r2, r4, #4
   807f0:	ea42 7213 	orr.w	r2, r2, r3, lsr #28
   807f4:	0119      	lsls	r1, r3, #4
   807f6:	460b      	mov	r3, r1
   807f8:	4614      	mov	r4, r2
   807fa:	195b      	adds	r3, r3, r5
   807fc:	eb44 0406 	adc.w	r4, r4, r6
   80800:	f04f 0100 	mov.w	r1, #0
   80804:	f04f 0200 	mov.w	r2, #0
   80808:	01a2      	lsls	r2, r4, #6
   8080a:	ea42 6293 	orr.w	r2, r2, r3, lsr #26
   8080e:	0199      	lsls	r1, r3, #6
   80810:	460b      	mov	r3, r1
   80812:	4614      	mov	r4, r2
   80814:	4619      	mov	r1, r3
   80816:	4622      	mov	r2, r4
   80818:	a469      	add	r4, pc, #420	; (adr r4, 809c0 <lcd_init+0x260>)
   8081a:	e9d4 3400 	ldrd	r3, r4, [r4]
   8081e:	18cd      	adds	r5, r1, r3
   80820:	eb42 0604 	adc.w	r6, r2, r4
   80824:	4628      	mov	r0, r5
   80826:	4631      	mov	r1, r6
   80828:	4a67      	ldr	r2, [pc, #412]	; (809c8 <lcd_init+0x268>)
   8082a:	f04f 0300 	mov.w	r3, #0
   8082e:	f001 f923 	bl	81a78 <__aeabi_uldivmod>
   80832:	4603      	mov	r3, r0
   80834:	460c      	mov	r4, r1
   80836:	4618      	mov	r0, r3
   80838:	f006 fd86 	bl	87348 <__portable_delay_cycles_veneer>

  lcd_write_half_comm(SET | BITS_8);
   8083c:	2030      	movs	r0, #48	; 0x30
   8083e:	f7ff ff55 	bl	806ec <lcd_write_half_comm>
  delay_us(4100);
   80842:	f7ff fce1 	bl	80208 <sysclk_get_cpu_hz>
   80846:	4603      	mov	r3, r0
   80848:	461d      	mov	r5, r3
   8084a:	f04f 0600 	mov.w	r6, #0
   8084e:	462b      	mov	r3, r5
   80850:	4634      	mov	r4, r6
   80852:	f04f 0100 	mov.w	r1, #0
   80856:	f04f 0200 	mov.w	r2, #0
   8085a:	02a2      	lsls	r2, r4, #10
   8085c:	ea42 5293 	orr.w	r2, r2, r3, lsr #22
   80860:	0299      	lsls	r1, r3, #10
   80862:	460b      	mov	r3, r1
   80864:	4614      	mov	r4, r2
   80866:	195b      	adds	r3, r3, r5
   80868:	eb44 0406 	adc.w	r4, r4, r6
   8086c:	f04f 0100 	mov.w	r1, #0
   80870:	f04f 0200 	mov.w	r2, #0
   80874:	00a2      	lsls	r2, r4, #2
   80876:	ea42 7293 	orr.w	r2, r2, r3, lsr #30
   8087a:	0099      	lsls	r1, r3, #2
   8087c:	460b      	mov	r3, r1
   8087e:	4614      	mov	r4, r2
   80880:	4619      	mov	r1, r3
   80882:	4622      	mov	r2, r4
   80884:	a44e      	add	r4, pc, #312	; (adr r4, 809c0 <lcd_init+0x260>)
   80886:	e9d4 3400 	ldrd	r3, r4, [r4]
   8088a:	18cd      	adds	r5, r1, r3
   8088c:	eb42 0604 	adc.w	r6, r2, r4
   80890:	4628      	mov	r0, r5
   80892:	4631      	mov	r1, r6
   80894:	4a4c      	ldr	r2, [pc, #304]	; (809c8 <lcd_init+0x268>)
   80896:	f04f 0300 	mov.w	r3, #0
   8089a:	f001 f8ed 	bl	81a78 <__aeabi_uldivmod>
   8089e:	4603      	mov	r3, r0
   808a0:	460c      	mov	r4, r1
   808a2:	4618      	mov	r0, r3
   808a4:	f006 fd50 	bl	87348 <__portable_delay_cycles_veneer>


  lcd_write_half_comm(SET | BITS_8);
   808a8:	2030      	movs	r0, #48	; 0x30
   808aa:	f7ff ff1f 	bl	806ec <lcd_write_half_comm>
  delay_us(100);
   808ae:	f7ff fcab 	bl	80208 <sysclk_get_cpu_hz>
   808b2:	4603      	mov	r3, r0
   808b4:	461d      	mov	r5, r3
   808b6:	f04f 0600 	mov.w	r6, #0
   808ba:	46ab      	mov	fp, r5
   808bc:	46b4      	mov	ip, r6
   808be:	eb1b 030b 	adds.w	r3, fp, fp
   808c2:	eb4c 040c 	adc.w	r4, ip, ip
   808c6:	469b      	mov	fp, r3
   808c8:	46a4      	mov	ip, r4
   808ca:	eb1b 0b05 	adds.w	fp, fp, r5
   808ce:	eb4c 0c06 	adc.w	ip, ip, r6
   808d2:	f04f 0100 	mov.w	r1, #0
   808d6:	f04f 0200 	mov.w	r2, #0
   808da:	ea4f 124c 	mov.w	r2, ip, lsl #5
   808de:	ea42 62db 	orr.w	r2, r2, fp, lsr #27
   808e2:	ea4f 114b 	mov.w	r1, fp, lsl #5
   808e6:	eb1b 0b01 	adds.w	fp, fp, r1
   808ea:	eb4c 0c02 	adc.w	ip, ip, r2
   808ee:	eb1b 0305 	adds.w	r3, fp, r5
   808f2:	eb4c 0406 	adc.w	r4, ip, r6
   808f6:	a232      	add	r2, pc, #200	; (adr r2, 809c0 <lcd_init+0x260>)
   808f8:	e9d2 1200 	ldrd	r1, r2, [r2]
   808fc:	185d      	adds	r5, r3, r1
   808fe:	eb44 0602 	adc.w	r6, r4, r2
   80902:	4628      	mov	r0, r5
   80904:	4631      	mov	r1, r6
   80906:	4a30      	ldr	r2, [pc, #192]	; (809c8 <lcd_init+0x268>)
   80908:	f04f 0300 	mov.w	r3, #0
   8090c:	f001 f8b4 	bl	81a78 <__aeabi_uldivmod>
   80910:	4603      	mov	r3, r0
   80912:	460c      	mov	r4, r1
   80914:	4618      	mov	r0, r3
   80916:	f006 fd17 	bl	87348 <__portable_delay_cycles_veneer>
  lcd_write_half_comm(SET | BITS_8);
   8091a:	2030      	movs	r0, #48	; 0x30
   8091c:	f7ff fee6 	bl	806ec <lcd_write_half_comm>
  busy();
   80920:	f7ff fd36 	bl	80390 <busy>
  lcd_write_half_comm(SET | BITS_4);
   80924:	2020      	movs	r0, #32
   80926:	f7ff fee1 	bl	806ec <lcd_write_half_comm>
  delay_us(100);	// LCD initialisation sometimes hangs without this delay ???
   8092a:	f7ff fc6d 	bl	80208 <sysclk_get_cpu_hz>
   8092e:	4603      	mov	r3, r0
   80930:	461d      	mov	r5, r3
   80932:	f04f 0600 	mov.w	r6, #0
   80936:	46ab      	mov	fp, r5
   80938:	46b4      	mov	ip, r6
   8093a:	eb1b 030b 	adds.w	r3, fp, fp
   8093e:	eb4c 040c 	adc.w	r4, ip, ip
   80942:	469b      	mov	fp, r3
   80944:	46a4      	mov	ip, r4
   80946:	eb1b 0b05 	adds.w	fp, fp, r5
   8094a:	eb4c 0c06 	adc.w	ip, ip, r6
   8094e:	f04f 0100 	mov.w	r1, #0
   80952:	f04f 0200 	mov.w	r2, #0
   80956:	ea4f 124c 	mov.w	r2, ip, lsl #5
   8095a:	ea42 62db 	orr.w	r2, r2, fp, lsr #27
   8095e:	ea4f 114b 	mov.w	r1, fp, lsl #5
   80962:	eb1b 0b01 	adds.w	fp, fp, r1
   80966:	eb4c 0c02 	adc.w	ip, ip, r2
   8096a:	eb1b 0305 	adds.w	r3, fp, r5
   8096e:	eb4c 0406 	adc.w	r4, ip, r6
   80972:	a213      	add	r2, pc, #76	; (adr r2, 809c0 <lcd_init+0x260>)
   80974:	e9d2 1200 	ldrd	r1, r2, [r2]
   80978:	185d      	adds	r5, r3, r1
   8097a:	eb44 0602 	adc.w	r6, r4, r2
   8097e:	4628      	mov	r0, r5
   80980:	4631      	mov	r1, r6
   80982:	4a11      	ldr	r2, [pc, #68]	; (809c8 <lcd_init+0x268>)
   80984:	f04f 0300 	mov.w	r3, #0
   80988:	f001 f876 	bl	81a78 <__aeabi_uldivmod>
   8098c:	4603      	mov	r3, r0
   8098e:	460c      	mov	r4, r1
   80990:	4618      	mov	r0, r3
   80992:	f006 fcd9 	bl	87348 <__portable_delay_cycles_veneer>
  busy();
   80996:	f7ff fcfb 	bl	80390 <busy>
  lcd_write_comm(SET | BITS_4 | LINES_2 | DOTS_5_8);
   8099a:	2028      	movs	r0, #40	; 0x28
   8099c:	f7ff feb7 	bl	8070e <lcd_write_comm>
  lcd_write_comm(CONTROL | DISPLAY_OFF | CURSOR_OFF | BLINK_OFF);
   809a0:	2008      	movs	r0, #8
   809a2:	f7ff feb4 	bl	8070e <lcd_write_comm>
  lcd_write_comm(CLEAR_DISPLAY);
   809a6:	2001      	movs	r0, #1
   809a8:	f7ff feb1 	bl	8070e <lcd_write_comm>
  lcd_write_comm(MODE | CURSOR_DIRECTION_RIGHT | DISPLAY_SHIFT_OFF);
   809ac:	2006      	movs	r0, #6
   809ae:	f7ff feae 	bl	8070e <lcd_write_comm>
  lcd_write_comm(CONTROL | DISPLAY_ON | CURSOR_OFF | BLINK_OFF);
   809b2:	200c      	movs	r0, #12
   809b4:	f7ff feab 	bl	8070e <lcd_write_comm>

}
   809b8:	bf00      	nop
   809ba:	e8bd 88f0 	ldmia.w	sp!, {r4, r5, r6, r7, fp, pc}
   809be:	bf00      	nop
   809c0:	00d59f7f 	.word	0x00d59f7f
   809c4:	00000000 	.word	0x00000000
   809c8:	00d59f80 	.word	0x00d59f80

000809cc <lcd_driver>:


/* Sends the lcd_string to the LCD */
void lcd_driver(void){
   809cc:	b580      	push	{r7, lr}
   809ce:	b082      	sub	sp, #8
   809d0:	af00      	add	r7, sp, #0
  int i;
  lcd_write_comm(DDRAM | 0x00);
   809d2:	2080      	movs	r0, #128	; 0x80
   809d4:	f7ff fe9b 	bl	8070e <lcd_write_comm>
  for(i = 0; i < 16; i++){
   809d8:	2300      	movs	r3, #0
   809da:	607b      	str	r3, [r7, #4]
   809dc:	e00a      	b.n	809f4 <lcd_driver+0x28>
	lcd_write_data(lcd_string[i]);
   809de:	4b12      	ldr	r3, [pc, #72]	; (80a28 <lcd_driver+0x5c>)
   809e0:	681a      	ldr	r2, [r3, #0]
   809e2:	687b      	ldr	r3, [r7, #4]
   809e4:	4413      	add	r3, r2
   809e6:	781b      	ldrb	r3, [r3, #0]
   809e8:	4618      	mov	r0, r3
   809ea:	f7ff fea1 	bl	80730 <lcd_write_data>
  for(i = 0; i < 16; i++){
   809ee:	687b      	ldr	r3, [r7, #4]
   809f0:	3301      	adds	r3, #1
   809f2:	607b      	str	r3, [r7, #4]
   809f4:	687b      	ldr	r3, [r7, #4]
   809f6:	2b0f      	cmp	r3, #15
   809f8:	ddf1      	ble.n	809de <lcd_driver+0x12>
  }
  lcd_write_comm(DDRAM | 0x40);
   809fa:	20c0      	movs	r0, #192	; 0xc0
   809fc:	f7ff fe87 	bl	8070e <lcd_write_comm>
  for(; i < 32; i++){
   80a00:	e00a      	b.n	80a18 <lcd_driver+0x4c>
	lcd_write_data(lcd_string[i]);
   80a02:	4b09      	ldr	r3, [pc, #36]	; (80a28 <lcd_driver+0x5c>)
   80a04:	681a      	ldr	r2, [r3, #0]
   80a06:	687b      	ldr	r3, [r7, #4]
   80a08:	4413      	add	r3, r2
   80a0a:	781b      	ldrb	r3, [r3, #0]
   80a0c:	4618      	mov	r0, r3
   80a0e:	f7ff fe8f 	bl	80730 <lcd_write_data>
  for(; i < 32; i++){
   80a12:	687b      	ldr	r3, [r7, #4]
   80a14:	3301      	adds	r3, #1
   80a16:	607b      	str	r3, [r7, #4]
   80a18:	687b      	ldr	r3, [r7, #4]
   80a1a:	2b1f      	cmp	r3, #31
   80a1c:	ddf1      	ble.n	80a02 <lcd_driver+0x36>
  }
}
   80a1e:	bf00      	nop
   80a20:	3708      	adds	r7, #8
   80a22:	46bd      	mov	sp, r7
   80a24:	bd80      	pop	{r7, pc}
   80a26:	bf00      	nop
   80a28:	200701bc 	.word	0x200701bc

00080a2c <sysclk_enable_peripheral_clock>:
{
   80a2c:	b580      	push	{r7, lr}
   80a2e:	b082      	sub	sp, #8
   80a30:	af00      	add	r7, sp, #0
   80a32:	6078      	str	r0, [r7, #4]
	pmc_enable_periph_clk(ul_id);
   80a34:	6878      	ldr	r0, [r7, #4]
   80a36:	f000 ff1b 	bl	81870 <pmc_enable_periph_clk>
}
   80a3a:	bf00      	nop
   80a3c:	3708      	adds	r7, #8
   80a3e:	46bd      	mov	sp, r7
   80a40:	bd80      	pop	{r7, pc}

00080a42 <ioport_init>:
{
   80a42:	b580      	push	{r7, lr}
   80a44:	af00      	add	r7, sp, #0
	sysclk_enable_peripheral_clock(ID_PIOA);
   80a46:	200b      	movs	r0, #11
   80a48:	f7ff fff0 	bl	80a2c <sysclk_enable_peripheral_clock>
	sysclk_enable_peripheral_clock(ID_PIOB);
   80a4c:	200c      	movs	r0, #12
   80a4e:	f7ff ffed 	bl	80a2c <sysclk_enable_peripheral_clock>
	sysclk_enable_peripheral_clock(ID_PIOC);
   80a52:	200d      	movs	r0, #13
   80a54:	f7ff ffea 	bl	80a2c <sysclk_enable_peripheral_clock>
	sysclk_enable_peripheral_clock(ID_PIOD);
   80a58:	200e      	movs	r0, #14
   80a5a:	f7ff ffe7 	bl	80a2c <sysclk_enable_peripheral_clock>
}
   80a5e:	bf00      	nop
   80a60:	bd80      	pop	{r7, pc}

00080a62 <ioport_enable_pin>:
{
   80a62:	b480      	push	{r7}
   80a64:	b089      	sub	sp, #36	; 0x24
   80a66:	af00      	add	r7, sp, #0
   80a68:	6078      	str	r0, [r7, #4]
   80a6a:	687b      	ldr	r3, [r7, #4]
   80a6c:	61fb      	str	r3, [r7, #28]
   80a6e:	69fb      	ldr	r3, [r7, #28]
   80a70:	61bb      	str	r3, [r7, #24]
	return pin >> 5;
   80a72:	69bb      	ldr	r3, [r7, #24]
   80a74:	095a      	lsrs	r2, r3, #5
   80a76:	69fb      	ldr	r3, [r7, #28]
   80a78:	617b      	str	r3, [r7, #20]
	return 1U << (pin & 0x1F);
   80a7a:	697b      	ldr	r3, [r7, #20]
   80a7c:	f003 031f 	and.w	r3, r3, #31
   80a80:	2101      	movs	r1, #1
   80a82:	fa01 f303 	lsl.w	r3, r1, r3
   80a86:	613a      	str	r2, [r7, #16]
   80a88:	60fb      	str	r3, [r7, #12]
   80a8a:	693b      	ldr	r3, [r7, #16]
   80a8c:	60bb      	str	r3, [r7, #8]
	return (Pio *)((uintptr_t)IOPORT_BASE_ADDRESS +
   80a8e:	68bb      	ldr	r3, [r7, #8]
   80a90:	f503 1300 	add.w	r3, r3, #2097152	; 0x200000
   80a94:	f203 7307 	addw	r3, r3, #1799	; 0x707
   80a98:	025b      	lsls	r3, r3, #9
   80a9a:	461a      	mov	r2, r3
	arch_ioport_port_to_base(port)->PIO_PER = mask;
   80a9c:	68fb      	ldr	r3, [r7, #12]
   80a9e:	6013      	str	r3, [r2, #0]
}
   80aa0:	bf00      	nop
   80aa2:	3724      	adds	r7, #36	; 0x24
   80aa4:	46bd      	mov	sp, r7
   80aa6:	bc80      	pop	{r7}
   80aa8:	4770      	bx	lr

00080aaa <ioport_set_pin_mode>:
{
   80aaa:	b480      	push	{r7}
   80aac:	b08d      	sub	sp, #52	; 0x34
   80aae:	af00      	add	r7, sp, #0
   80ab0:	6078      	str	r0, [r7, #4]
   80ab2:	6039      	str	r1, [r7, #0]
   80ab4:	687b      	ldr	r3, [r7, #4]
   80ab6:	62fb      	str	r3, [r7, #44]	; 0x2c
   80ab8:	683b      	ldr	r3, [r7, #0]
   80aba:	62bb      	str	r3, [r7, #40]	; 0x28
   80abc:	6afb      	ldr	r3, [r7, #44]	; 0x2c
   80abe:	627b      	str	r3, [r7, #36]	; 0x24
	return pin >> 5;
   80ac0:	6a7b      	ldr	r3, [r7, #36]	; 0x24
   80ac2:	095a      	lsrs	r2, r3, #5
   80ac4:	6afb      	ldr	r3, [r7, #44]	; 0x2c
   80ac6:	623b      	str	r3, [r7, #32]
	return 1U << (pin & 0x1F);
   80ac8:	6a3b      	ldr	r3, [r7, #32]
   80aca:	f003 031f 	and.w	r3, r3, #31
   80ace:	2101      	movs	r1, #1
   80ad0:	fa01 f303 	lsl.w	r3, r1, r3
   80ad4:	61fa      	str	r2, [r7, #28]
   80ad6:	61bb      	str	r3, [r7, #24]
   80ad8:	6abb      	ldr	r3, [r7, #40]	; 0x28
   80ada:	617b      	str	r3, [r7, #20]
   80adc:	69fb      	ldr	r3, [r7, #28]
   80ade:	613b      	str	r3, [r7, #16]
	return (Pio *)((uintptr_t)IOPORT_BASE_ADDRESS +
   80ae0:	693b      	ldr	r3, [r7, #16]
   80ae2:	f503 1300 	add.w	r3, r3, #2097152	; 0x200000
   80ae6:	f203 7307 	addw	r3, r3, #1799	; 0x707
   80aea:	025b      	lsls	r3, r3, #9
	Pio *base = arch_ioport_port_to_base(port);
   80aec:	60fb      	str	r3, [r7, #12]
	if (mode & IOPORT_MODE_PULLUP) {
   80aee:	697b      	ldr	r3, [r7, #20]
   80af0:	f003 0308 	and.w	r3, r3, #8
   80af4:	2b00      	cmp	r3, #0
   80af6:	d003      	beq.n	80b00 <ioport_set_pin_mode+0x56>
		base->PIO_PUER = mask;
   80af8:	68fb      	ldr	r3, [r7, #12]
   80afa:	69ba      	ldr	r2, [r7, #24]
   80afc:	665a      	str	r2, [r3, #100]	; 0x64
   80afe:	e002      	b.n	80b06 <ioport_set_pin_mode+0x5c>
		base->PIO_PUDR = mask;
   80b00:	68fb      	ldr	r3, [r7, #12]
   80b02:	69ba      	ldr	r2, [r7, #24]
   80b04:	661a      	str	r2, [r3, #96]	; 0x60
	if (mode & IOPORT_MODE_OPEN_DRAIN) {
   80b06:	697b      	ldr	r3, [r7, #20]
   80b08:	f003 0320 	and.w	r3, r3, #32
   80b0c:	2b00      	cmp	r3, #0
   80b0e:	d003      	beq.n	80b18 <ioport_set_pin_mode+0x6e>
		base->PIO_MDER = mask;
   80b10:	68fb      	ldr	r3, [r7, #12]
   80b12:	69ba      	ldr	r2, [r7, #24]
   80b14:	651a      	str	r2, [r3, #80]	; 0x50
   80b16:	e002      	b.n	80b1e <ioport_set_pin_mode+0x74>
		base->PIO_MDDR = mask;
   80b18:	68fb      	ldr	r3, [r7, #12]
   80b1a:	69ba      	ldr	r2, [r7, #24]
   80b1c:	655a      	str	r2, [r3, #84]	; 0x54
	if (mode & (IOPORT_MODE_GLITCH_FILTER | IOPORT_MODE_DEBOUNCE)) {
   80b1e:	697b      	ldr	r3, [r7, #20]
   80b20:	f003 03c0 	and.w	r3, r3, #192	; 0xc0
   80b24:	2b00      	cmp	r3, #0
   80b26:	d003      	beq.n	80b30 <ioport_set_pin_mode+0x86>
		base->PIO_IFER = mask;
   80b28:	68fb      	ldr	r3, [r7, #12]
   80b2a:	69ba      	ldr	r2, [r7, #24]
   80b2c:	621a      	str	r2, [r3, #32]
   80b2e:	e002      	b.n	80b36 <ioport_set_pin_mode+0x8c>
		base->PIO_IFDR = mask;
   80b30:	68fb      	ldr	r3, [r7, #12]
   80b32:	69ba      	ldr	r2, [r7, #24]
   80b34:	625a      	str	r2, [r3, #36]	; 0x24
	if (mode & IOPORT_MODE_DEBOUNCE) {
   80b36:	697b      	ldr	r3, [r7, #20]
   80b38:	f003 0380 	and.w	r3, r3, #128	; 0x80
   80b3c:	2b00      	cmp	r3, #0
   80b3e:	d004      	beq.n	80b4a <ioport_set_pin_mode+0xa0>
		base->PIO_DIFSR = mask;
   80b40:	68fb      	ldr	r3, [r7, #12]
   80b42:	69ba      	ldr	r2, [r7, #24]
   80b44:	f8c3 2084 	str.w	r2, [r3, #132]	; 0x84
   80b48:	e003      	b.n	80b52 <ioport_set_pin_mode+0xa8>
		base->PIO_SCIFSR = mask;
   80b4a:	68fb      	ldr	r3, [r7, #12]
   80b4c:	69ba      	ldr	r2, [r7, #24]
   80b4e:	f8c3 2080 	str.w	r2, [r3, #128]	; 0x80
	if (mode & IOPORT_MODE_MUX_BIT0) {
   80b52:	697b      	ldr	r3, [r7, #20]
   80b54:	f003 0301 	and.w	r3, r3, #1
   80b58:	2b00      	cmp	r3, #0
   80b5a:	d006      	beq.n	80b6a <ioport_set_pin_mode+0xc0>
		base->PIO_ABSR |= mask;
   80b5c:	68fb      	ldr	r3, [r7, #12]
   80b5e:	6f1a      	ldr	r2, [r3, #112]	; 0x70
   80b60:	69bb      	ldr	r3, [r7, #24]
   80b62:	431a      	orrs	r2, r3
   80b64:	68fb      	ldr	r3, [r7, #12]
   80b66:	671a      	str	r2, [r3, #112]	; 0x70
}
   80b68:	e006      	b.n	80b78 <ioport_set_pin_mode+0xce>
		base->PIO_ABSR &= ~mask;
   80b6a:	68fb      	ldr	r3, [r7, #12]
   80b6c:	6f1a      	ldr	r2, [r3, #112]	; 0x70
   80b6e:	69bb      	ldr	r3, [r7, #24]
   80b70:	43db      	mvns	r3, r3
   80b72:	401a      	ands	r2, r3
   80b74:	68fb      	ldr	r3, [r7, #12]
   80b76:	671a      	str	r2, [r3, #112]	; 0x70
   80b78:	bf00      	nop
   80b7a:	3734      	adds	r7, #52	; 0x34
   80b7c:	46bd      	mov	sp, r7
   80b7e:	bc80      	pop	{r7}
   80b80:	4770      	bx	lr

00080b82 <ioport_set_pin_dir>:
{
   80b82:	b480      	push	{r7}
   80b84:	b08d      	sub	sp, #52	; 0x34
   80b86:	af00      	add	r7, sp, #0
   80b88:	6078      	str	r0, [r7, #4]
   80b8a:	460b      	mov	r3, r1
   80b8c:	70fb      	strb	r3, [r7, #3]
   80b8e:	687b      	ldr	r3, [r7, #4]
   80b90:	62fb      	str	r3, [r7, #44]	; 0x2c
   80b92:	78fb      	ldrb	r3, [r7, #3]
   80b94:	f887 302b 	strb.w	r3, [r7, #43]	; 0x2b
   80b98:	6afb      	ldr	r3, [r7, #44]	; 0x2c
   80b9a:	627b      	str	r3, [r7, #36]	; 0x24
   80b9c:	6a7b      	ldr	r3, [r7, #36]	; 0x24
   80b9e:	623b      	str	r3, [r7, #32]
	return pin >> 5;
   80ba0:	6a3b      	ldr	r3, [r7, #32]
   80ba2:	095b      	lsrs	r3, r3, #5
   80ba4:	61fb      	str	r3, [r7, #28]
	return (Pio *)((uintptr_t)IOPORT_BASE_ADDRESS +
   80ba6:	69fb      	ldr	r3, [r7, #28]
   80ba8:	f503 1300 	add.w	r3, r3, #2097152	; 0x200000
   80bac:	f203 7307 	addw	r3, r3, #1799	; 0x707
   80bb0:	025b      	lsls	r3, r3, #9
	Pio *base = arch_ioport_pin_to_base(pin);
   80bb2:	61bb      	str	r3, [r7, #24]
	if (dir == IOPORT_DIR_OUTPUT) {
   80bb4:	f897 302b 	ldrb.w	r3, [r7, #43]	; 0x2b
   80bb8:	2b01      	cmp	r3, #1
   80bba:	d109      	bne.n	80bd0 <ioport_set_pin_dir+0x4e>
   80bbc:	6afb      	ldr	r3, [r7, #44]	; 0x2c
   80bbe:	617b      	str	r3, [r7, #20]
	return 1U << (pin & 0x1F);
   80bc0:	697b      	ldr	r3, [r7, #20]
   80bc2:	f003 031f 	and.w	r3, r3, #31
   80bc6:	2201      	movs	r2, #1
   80bc8:	409a      	lsls	r2, r3
		base->PIO_OER = arch_ioport_pin_to_mask(pin);
   80bca:	69bb      	ldr	r3, [r7, #24]
   80bcc:	611a      	str	r2, [r3, #16]
   80bce:	e00c      	b.n	80bea <ioport_set_pin_dir+0x68>
	} else if (dir == IOPORT_DIR_INPUT) {
   80bd0:	f897 302b 	ldrb.w	r3, [r7, #43]	; 0x2b
   80bd4:	2b00      	cmp	r3, #0
   80bd6:	d108      	bne.n	80bea <ioport_set_pin_dir+0x68>
   80bd8:	6afb      	ldr	r3, [r7, #44]	; 0x2c
   80bda:	613b      	str	r3, [r7, #16]
	return 1U << (pin & 0x1F);
   80bdc:	693b      	ldr	r3, [r7, #16]
   80bde:	f003 031f 	and.w	r3, r3, #31
   80be2:	2201      	movs	r2, #1
   80be4:	409a      	lsls	r2, r3
		base->PIO_ODR = arch_ioport_pin_to_mask(pin);
   80be6:	69bb      	ldr	r3, [r7, #24]
   80be8:	615a      	str	r2, [r3, #20]
   80bea:	6afb      	ldr	r3, [r7, #44]	; 0x2c
   80bec:	60fb      	str	r3, [r7, #12]
	return 1U << (pin & 0x1F);
   80bee:	68fb      	ldr	r3, [r7, #12]
   80bf0:	f003 031f 	and.w	r3, r3, #31
   80bf4:	2201      	movs	r2, #1
   80bf6:	409a      	lsls	r2, r3
	base->PIO_OWER = arch_ioport_pin_to_mask(pin);
   80bf8:	69bb      	ldr	r3, [r7, #24]
   80bfa:	f8c3 20a0 	str.w	r2, [r3, #160]	; 0xa0
}
   80bfe:	bf00      	nop
   80c00:	3734      	adds	r7, #52	; 0x34
   80c02:	46bd      	mov	sp, r7
   80c04:	bc80      	pop	{r7}
   80c06:	4770      	bx	lr

00080c08 <ioport_set_pin_level>:
{
   80c08:	b480      	push	{r7}
   80c0a:	b08b      	sub	sp, #44	; 0x2c
   80c0c:	af00      	add	r7, sp, #0
   80c0e:	6078      	str	r0, [r7, #4]
   80c10:	460b      	mov	r3, r1
   80c12:	70fb      	strb	r3, [r7, #3]
   80c14:	687b      	ldr	r3, [r7, #4]
   80c16:	627b      	str	r3, [r7, #36]	; 0x24
   80c18:	78fb      	ldrb	r3, [r7, #3]
   80c1a:	f887 3023 	strb.w	r3, [r7, #35]	; 0x23
   80c1e:	6a7b      	ldr	r3, [r7, #36]	; 0x24
   80c20:	61fb      	str	r3, [r7, #28]
   80c22:	69fb      	ldr	r3, [r7, #28]
   80c24:	61bb      	str	r3, [r7, #24]
	return pin >> 5;
   80c26:	69bb      	ldr	r3, [r7, #24]
   80c28:	095b      	lsrs	r3, r3, #5
   80c2a:	617b      	str	r3, [r7, #20]
	return (Pio *)((uintptr_t)IOPORT_BASE_ADDRESS +
   80c2c:	697b      	ldr	r3, [r7, #20]
   80c2e:	f503 1300 	add.w	r3, r3, #2097152	; 0x200000
   80c32:	f203 7307 	addw	r3, r3, #1799	; 0x707
   80c36:	025b      	lsls	r3, r3, #9
	Pio *base = arch_ioport_pin_to_base(pin);
   80c38:	613b      	str	r3, [r7, #16]
	if (level) {
   80c3a:	f897 3023 	ldrb.w	r3, [r7, #35]	; 0x23
   80c3e:	2b00      	cmp	r3, #0
   80c40:	d009      	beq.n	80c56 <ioport_set_pin_level+0x4e>
   80c42:	6a7b      	ldr	r3, [r7, #36]	; 0x24
   80c44:	60fb      	str	r3, [r7, #12]
	return 1U << (pin & 0x1F);
   80c46:	68fb      	ldr	r3, [r7, #12]
   80c48:	f003 031f 	and.w	r3, r3, #31
   80c4c:	2201      	movs	r2, #1
   80c4e:	409a      	lsls	r2, r3
		base->PIO_SODR = arch_ioport_pin_to_mask(pin);
   80c50:	693b      	ldr	r3, [r7, #16]
   80c52:	631a      	str	r2, [r3, #48]	; 0x30
}
   80c54:	e008      	b.n	80c68 <ioport_set_pin_level+0x60>
   80c56:	6a7b      	ldr	r3, [r7, #36]	; 0x24
   80c58:	60bb      	str	r3, [r7, #8]
	return 1U << (pin & 0x1F);
   80c5a:	68bb      	ldr	r3, [r7, #8]
   80c5c:	f003 031f 	and.w	r3, r3, #31
   80c60:	2201      	movs	r2, #1
   80c62:	409a      	lsls	r2, r3
		base->PIO_CODR = arch_ioport_pin_to_mask(pin);
   80c64:	693b      	ldr	r3, [r7, #16]
   80c66:	635a      	str	r2, [r3, #52]	; 0x34
   80c68:	bf00      	nop
   80c6a:	372c      	adds	r7, #44	; 0x2c
   80c6c:	46bd      	mov	sp, r7
   80c6e:	bc80      	pop	{r7}
   80c70:	4770      	bx	lr

00080c72 <ioport_get_pin_level>:
{
   80c72:	b480      	push	{r7}
   80c74:	b089      	sub	sp, #36	; 0x24
   80c76:	af00      	add	r7, sp, #0
   80c78:	6078      	str	r0, [r7, #4]
   80c7a:	687b      	ldr	r3, [r7, #4]
   80c7c:	61fb      	str	r3, [r7, #28]
   80c7e:	69fb      	ldr	r3, [r7, #28]
   80c80:	61bb      	str	r3, [r7, #24]
   80c82:	69bb      	ldr	r3, [r7, #24]
   80c84:	617b      	str	r3, [r7, #20]
	return pin >> 5;
   80c86:	697b      	ldr	r3, [r7, #20]
   80c88:	095b      	lsrs	r3, r3, #5
   80c8a:	613b      	str	r3, [r7, #16]
	return (Pio *)((uintptr_t)IOPORT_BASE_ADDRESS +
   80c8c:	693b      	ldr	r3, [r7, #16]
   80c8e:	f503 1300 	add.w	r3, r3, #2097152	; 0x200000
   80c92:	f203 7307 	addw	r3, r3, #1799	; 0x707
   80c96:	025b      	lsls	r3, r3, #9
	return arch_ioport_pin_to_base(pin)->PIO_PDSR & arch_ioport_pin_to_mask(pin);
   80c98:	6bda      	ldr	r2, [r3, #60]	; 0x3c
   80c9a:	69fb      	ldr	r3, [r7, #28]
   80c9c:	60fb      	str	r3, [r7, #12]
	return 1U << (pin & 0x1F);
   80c9e:	68fb      	ldr	r3, [r7, #12]
   80ca0:	f003 031f 	and.w	r3, r3, #31
   80ca4:	2101      	movs	r1, #1
   80ca6:	fa01 f303 	lsl.w	r3, r1, r3
	return arch_ioport_pin_to_base(pin)->PIO_PDSR & arch_ioport_pin_to_mask(pin);
   80caa:	4013      	ands	r3, r2
   80cac:	2b00      	cmp	r3, #0
   80cae:	bf14      	ite	ne
   80cb0:	2301      	movne	r3, #1
   80cb2:	2300      	moveq	r3, #0
   80cb4:	b2db      	uxtb	r3, r3
}
   80cb6:	4618      	mov	r0, r3
   80cb8:	3724      	adds	r7, #36	; 0x24
   80cba:	46bd      	mov	sp, r7
   80cbc:	bc80      	pop	{r7}
   80cbe:	4770      	bx	lr

00080cc0 <bord_init>:
#include"bord.h"




void bord_init(void){
   80cc0:	b580      	push	{r7, lr}
   80cc2:	af00      	add	r7, sp, #0
    delay_init();
    ioport_init();
   80cc4:	f7ff febd 	bl	80a42 <ioport_init>

    //ledice--------------------------------

    ioport_enable_pin(PIO_PC22_IDX);
   80cc8:	2056      	movs	r0, #86	; 0x56
   80cca:	f7ff feca 	bl	80a62 <ioport_enable_pin>
    ioport_enable_pin(PIO_PC21_IDX);
   80cce:	2055      	movs	r0, #85	; 0x55
   80cd0:	f7ff fec7 	bl	80a62 <ioport_enable_pin>
    ioport_enable_pin(PIO_PC29_IDX);
   80cd4:	205d      	movs	r0, #93	; 0x5d
   80cd6:	f7ff fec4 	bl	80a62 <ioport_enable_pin>
    ioport_enable_pin(PIO_PD7_IDX);
   80cda:	2067      	movs	r0, #103	; 0x67
   80cdc:	f7ff fec1 	bl	80a62 <ioport_enable_pin>

    ioport_enable_pin(PIO_PB27_IDX);
   80ce0:	203b      	movs	r0, #59	; 0x3b
   80ce2:	f7ff febe 	bl	80a62 <ioport_enable_pin>


    ioport_set_pin_dir(PIO_PC22_IDX, IOPORT_DIR_OUTPUT);
   80ce6:	2101      	movs	r1, #1
   80ce8:	2056      	movs	r0, #86	; 0x56
   80cea:	f7ff ff4a 	bl	80b82 <ioport_set_pin_dir>
    ioport_set_pin_dir(PIO_PC21_IDX, IOPORT_DIR_OUTPUT);
   80cee:	2101      	movs	r1, #1
   80cf0:	2055      	movs	r0, #85	; 0x55
   80cf2:	f7ff ff46 	bl	80b82 <ioport_set_pin_dir>
    ioport_set_pin_dir(PIO_PC29_IDX, IOPORT_DIR_OUTPUT);
   80cf6:	2101      	movs	r1, #1
   80cf8:	205d      	movs	r0, #93	; 0x5d
   80cfa:	f7ff ff42 	bl	80b82 <ioport_set_pin_dir>
    ioport_set_pin_dir(PIO_PD7_IDX, IOPORT_DIR_OUTPUT);
   80cfe:	2101      	movs	r1, #1
   80d00:	2067      	movs	r0, #103	; 0x67
   80d02:	f7ff ff3e 	bl	80b82 <ioport_set_pin_dir>

    ioport_set_pin_dir(PIO_PB27_IDX, IOPORT_DIR_OUTPUT);
   80d06:	2101      	movs	r1, #1
   80d08:	203b      	movs	r0, #59	; 0x3b
   80d0a:	f7ff ff3a 	bl	80b82 <ioport_set_pin_dir>

    ioport_set_pin_level(PIO_PC22_IDX, 0);
   80d0e:	2100      	movs	r1, #0
   80d10:	2056      	movs	r0, #86	; 0x56
   80d12:	f7ff ff79 	bl	80c08 <ioport_set_pin_level>
    ioport_set_pin_level(PIO_PC21_IDX, 0);
   80d16:	2100      	movs	r1, #0
   80d18:	2055      	movs	r0, #85	; 0x55
   80d1a:	f7ff ff75 	bl	80c08 <ioport_set_pin_level>
    ioport_set_pin_level(PIO_PC29_IDX, 0);
   80d1e:	2100      	movs	r1, #0
   80d20:	205d      	movs	r0, #93	; 0x5d
   80d22:	f7ff ff71 	bl	80c08 <ioport_set_pin_level>
    ioport_set_pin_level(PIO_PD7_IDX, 0);
   80d26:	2100      	movs	r1, #0
   80d28:	2067      	movs	r0, #103	; 0x67
   80d2a:	f7ff ff6d 	bl	80c08 <ioport_set_pin_level>

    pio_set_peripheral(PIOB, PIO_OUTPUT_0, PIO_ABSR_P27);
   80d2e:	f04f 6200 	mov.w	r2, #134217728	; 0x8000000
   80d32:	f04f 5140 	mov.w	r1, #805306368	; 0x30000000
   80d36:	4820      	ldr	r0, [pc, #128]	; (80db8 <bord_init+0xf8>)
   80d38:	f000 fdd8 	bl	818ec <pio_set_peripheral>


    //tipke-----------------------------------------------------------------------

    ioport_enable_pin(PIO_PC23_IDX);
   80d3c:	2057      	movs	r0, #87	; 0x57
   80d3e:	f7ff fe90 	bl	80a62 <ioport_enable_pin>
    ioport_enable_pin(PIO_PC24_IDX);
   80d42:	2058      	movs	r0, #88	; 0x58
   80d44:	f7ff fe8d 	bl	80a62 <ioport_enable_pin>
    ioport_enable_pin(PIO_PC25_IDX);
   80d48:	2059      	movs	r0, #89	; 0x59
   80d4a:	f7ff fe8a 	bl	80a62 <ioport_enable_pin>
    ioport_enable_pin(PIO_PC26_IDX);
   80d4e:	205a      	movs	r0, #90	; 0x5a
   80d50:	f7ff fe87 	bl	80a62 <ioport_enable_pin>


    ioport_set_pin_dir(PIO_PC23_IDX, IOPORT_DIR_INPUT);
   80d54:	2100      	movs	r1, #0
   80d56:	2057      	movs	r0, #87	; 0x57
   80d58:	f7ff ff13 	bl	80b82 <ioport_set_pin_dir>
    ioport_set_pin_dir(PIO_PC24_IDX, IOPORT_DIR_INPUT);
   80d5c:	2100      	movs	r1, #0
   80d5e:	2058      	movs	r0, #88	; 0x58
   80d60:	f7ff ff0f 	bl	80b82 <ioport_set_pin_dir>
    ioport_set_pin_dir(PIO_PC25_IDX, IOPORT_DIR_INPUT);
   80d64:	2100      	movs	r1, #0
   80d66:	2059      	movs	r0, #89	; 0x59
   80d68:	f7ff ff0b 	bl	80b82 <ioport_set_pin_dir>
    ioport_set_pin_dir(PIO_PC26_IDX, IOPORT_DIR_INPUT);
   80d6c:	2100      	movs	r1, #0
   80d6e:	205a      	movs	r0, #90	; 0x5a
   80d70:	f7ff ff07 	bl	80b82 <ioport_set_pin_dir>



    ioport_set_pin_mode(PIO_PC23_IDX, IOPORT_MODE_DEBOUNCE);
   80d74:	2180      	movs	r1, #128	; 0x80
   80d76:	2057      	movs	r0, #87	; 0x57
   80d78:	f7ff fe97 	bl	80aaa <ioport_set_pin_mode>
    ioport_set_pin_mode(PIO_PC24_IDX, IOPORT_MODE_DEBOUNCE);
   80d7c:	2180      	movs	r1, #128	; 0x80
   80d7e:	2058      	movs	r0, #88	; 0x58
   80d80:	f7ff fe93 	bl	80aaa <ioport_set_pin_mode>
    ioport_set_pin_mode(PIO_PC25_IDX, IOPORT_MODE_DEBOUNCE);
   80d84:	2180      	movs	r1, #128	; 0x80
   80d86:	2059      	movs	r0, #89	; 0x59
   80d88:	f7ff fe8f 	bl	80aaa <ioport_set_pin_mode>
    ioport_set_pin_mode(PIO_PC26_IDX, IOPORT_MODE_DEBOUNCE);
   80d8c:	2180      	movs	r1, #128	; 0x80
   80d8e:	205a      	movs	r0, #90	; 0x5a
   80d90:	f7ff fe8b 	bl	80aaa <ioport_set_pin_mode>

    ioport_set_pin_mode(PIO_PC23_IDX, IOPORT_MODE_PULLUP);
   80d94:	2108      	movs	r1, #8
   80d96:	2057      	movs	r0, #87	; 0x57
   80d98:	f7ff fe87 	bl	80aaa <ioport_set_pin_mode>
    ioport_set_pin_mode(PIO_PC24_IDX, IOPORT_MODE_PULLUP);
   80d9c:	2108      	movs	r1, #8
   80d9e:	2058      	movs	r0, #88	; 0x58
   80da0:	f7ff fe83 	bl	80aaa <ioport_set_pin_mode>
    ioport_set_pin_mode(PIO_PC25_IDX, IOPORT_MODE_PULLUP);
   80da4:	2108      	movs	r1, #8
   80da6:	2059      	movs	r0, #89	; 0x59
   80da8:	f7ff fe7f 	bl	80aaa <ioport_set_pin_mode>
    ioport_set_pin_mode(PIO_PC26_IDX, IOPORT_MODE_PULLUP);
   80dac:	2108      	movs	r1, #8
   80dae:	205a      	movs	r0, #90	; 0x5a
   80db0:	f7ff fe7b 	bl	80aaa <ioport_set_pin_mode>





}
   80db4:	bf00      	nop
   80db6:	bd80      	pop	{r7, pc}
   80db8:	400e1000 	.word	0x400e1000

00080dbc <get_button_press>:


}


int get_button_press(){
   80dbc:	b580      	push	{r7, lr}
   80dbe:	b08a      	sub	sp, #40	; 0x28
   80dc0:	af00      	add	r7, sp, #0

    static int old_state = 0;
    int state = 0;
   80dc2:	2300      	movs	r3, #0
   80dc4:	617b      	str	r3, [r7, #20]
    int state1 = 0, state2 = 0, state3 = 0, state4 = 0;
   80dc6:	2300      	movs	r3, #0
   80dc8:	613b      	str	r3, [r7, #16]
   80dca:	2300      	movs	r3, #0
   80dcc:	60fb      	str	r3, [r7, #12]
   80dce:	2300      	movs	r3, #0
   80dd0:	60bb      	str	r3, [r7, #8]
   80dd2:	2300      	movs	r3, #0
   80dd4:	607b      	str	r3, [r7, #4]
    int leds = 0, leds1 = 0, leds2 = 0, leds3 = 0, leds4 = 0;
   80dd6:	2300      	movs	r3, #0
   80dd8:	603b      	str	r3, [r7, #0]
   80dda:	2300      	movs	r3, #0
   80ddc:	627b      	str	r3, [r7, #36]	; 0x24
   80dde:	2300      	movs	r3, #0
   80de0:	623b      	str	r3, [r7, #32]
   80de2:	2300      	movs	r3, #0
   80de4:	61fb      	str	r3, [r7, #28]
   80de6:	2300      	movs	r3, #0
   80de8:	61bb      	str	r3, [r7, #24]


    state1 = ioport_get_pin_level(PIO_PC23_IDX)<<0;
   80dea:	2057      	movs	r0, #87	; 0x57
   80dec:	f7ff ff41 	bl	80c72 <ioport_get_pin_level>
   80df0:	4603      	mov	r3, r0
   80df2:	613b      	str	r3, [r7, #16]
    state2 = ioport_get_pin_level(PIO_PC24_IDX)<<1;
   80df4:	2058      	movs	r0, #88	; 0x58
   80df6:	f7ff ff3c 	bl	80c72 <ioport_get_pin_level>
   80dfa:	4603      	mov	r3, r0
   80dfc:	005b      	lsls	r3, r3, #1
   80dfe:	60fb      	str	r3, [r7, #12]
    state3 = ioport_get_pin_level(PIO_PC25_IDX)<<2;
   80e00:	2059      	movs	r0, #89	; 0x59
   80e02:	f7ff ff36 	bl	80c72 <ioport_get_pin_level>
   80e06:	4603      	mov	r3, r0
   80e08:	009b      	lsls	r3, r3, #2
   80e0a:	60bb      	str	r3, [r7, #8]
    state4 = ioport_get_pin_level(PIO_PC26_IDX)<<3;
   80e0c:	205a      	movs	r0, #90	; 0x5a
   80e0e:	f7ff ff30 	bl	80c72 <ioport_get_pin_level>
   80e12:	4603      	mov	r3, r0
   80e14:	00db      	lsls	r3, r3, #3
   80e16:	607b      	str	r3, [r7, #4]

    state = state1 | state2 | state3 | state4;
   80e18:	693a      	ldr	r2, [r7, #16]
   80e1a:	68fb      	ldr	r3, [r7, #12]
   80e1c:	431a      	orrs	r2, r3
   80e1e:	68bb      	ldr	r3, [r7, #8]
   80e20:	4313      	orrs	r3, r2
   80e22:	687a      	ldr	r2, [r7, #4]
   80e24:	4313      	orrs	r3, r2
   80e26:	617b      	str	r3, [r7, #20]

    if((old_state & 1<<0) && (state1 == 0))leds1 = 1<<0;
   80e28:	4b1d      	ldr	r3, [pc, #116]	; (80ea0 <get_button_press+0xe4>)
   80e2a:	681b      	ldr	r3, [r3, #0]
   80e2c:	f003 0301 	and.w	r3, r3, #1
   80e30:	2b00      	cmp	r3, #0
   80e32:	d004      	beq.n	80e3e <get_button_press+0x82>
   80e34:	693b      	ldr	r3, [r7, #16]
   80e36:	2b00      	cmp	r3, #0
   80e38:	d101      	bne.n	80e3e <get_button_press+0x82>
   80e3a:	2301      	movs	r3, #1
   80e3c:	627b      	str	r3, [r7, #36]	; 0x24
    if((old_state & 1<<1) && (state2 == 0))leds2 = 1<<1;
   80e3e:	4b18      	ldr	r3, [pc, #96]	; (80ea0 <get_button_press+0xe4>)
   80e40:	681b      	ldr	r3, [r3, #0]
   80e42:	f003 0302 	and.w	r3, r3, #2
   80e46:	2b00      	cmp	r3, #0
   80e48:	d004      	beq.n	80e54 <get_button_press+0x98>
   80e4a:	68fb      	ldr	r3, [r7, #12]
   80e4c:	2b00      	cmp	r3, #0
   80e4e:	d101      	bne.n	80e54 <get_button_press+0x98>
   80e50:	2302      	movs	r3, #2
   80e52:	623b      	str	r3, [r7, #32]
    if((old_state & 1<<2) && (state3 == 0))leds3 = 1<<2;
   80e54:	4b12      	ldr	r3, [pc, #72]	; (80ea0 <get_button_press+0xe4>)
   80e56:	681b      	ldr	r3, [r3, #0]
   80e58:	f003 0304 	and.w	r3, r3, #4
   80e5c:	2b00      	cmp	r3, #0
   80e5e:	d004      	beq.n	80e6a <get_button_press+0xae>
   80e60:	68bb      	ldr	r3, [r7, #8]
   80e62:	2b00      	cmp	r3, #0
   80e64:	d101      	bne.n	80e6a <get_button_press+0xae>
   80e66:	2304      	movs	r3, #4
   80e68:	61fb      	str	r3, [r7, #28]
    if((old_state & 1<<3) && (state4 == 0))leds4 = 1<<3;
   80e6a:	4b0d      	ldr	r3, [pc, #52]	; (80ea0 <get_button_press+0xe4>)
   80e6c:	681b      	ldr	r3, [r3, #0]
   80e6e:	f003 0308 	and.w	r3, r3, #8
   80e72:	2b00      	cmp	r3, #0
   80e74:	d004      	beq.n	80e80 <get_button_press+0xc4>
   80e76:	687b      	ldr	r3, [r7, #4]
   80e78:	2b00      	cmp	r3, #0
   80e7a:	d101      	bne.n	80e80 <get_button_press+0xc4>
   80e7c:	2308      	movs	r3, #8
   80e7e:	61bb      	str	r3, [r7, #24]

    leds = leds1 | leds2 | leds3 | leds4;
   80e80:	6a7a      	ldr	r2, [r7, #36]	; 0x24
   80e82:	6a3b      	ldr	r3, [r7, #32]
   80e84:	431a      	orrs	r2, r3
   80e86:	69fb      	ldr	r3, [r7, #28]
   80e88:	4313      	orrs	r3, r2
   80e8a:	69ba      	ldr	r2, [r7, #24]
   80e8c:	4313      	orrs	r3, r2
   80e8e:	603b      	str	r3, [r7, #0]
    old_state = state;
   80e90:	4a03      	ldr	r2, [pc, #12]	; (80ea0 <get_button_press+0xe4>)
   80e92:	697b      	ldr	r3, [r7, #20]
   80e94:	6013      	str	r3, [r2, #0]

    return leds;
   80e96:	683b      	ldr	r3, [r7, #0]

}
   80e98:	4618      	mov	r0, r3
   80e9a:	3728      	adds	r7, #40	; 0x28
   80e9c:	46bd      	mov	sp, r7
   80e9e:	bd80      	pop	{r7, pc}
   80ea0:	20070b90 	.word	0x20070b90

00080ea4 <timer_init>:
}




void timer_init(void){
   80ea4:	b580      	push	{r7, lr}
   80ea6:	af00      	add	r7, sp, #0

    tc_init(TC0,0, TC_CMR_TCCLKS_TIMER_CLOCK3 | TC_CMR_WAVE | TC_CMR_WAVSEL_UP_RC |  TC_CMR_ACPC_SET | TC_CMR_ACPA_CLEAR |  TC_CMR_BCPC_SET | TC_CMR_BCPB_CLEAR | TC_CMR_EEVT_XC0);//
   80ea8:	4a0f      	ldr	r2, [pc, #60]	; (80ee8 <timer_init+0x44>)
   80eaa:	2100      	movs	r1, #0
   80eac:	480f      	ldr	r0, [pc, #60]	; (80eec <timer_init+0x48>)
   80eae:	f000 fd5c 	bl	8196a <tc_init>

    tc_enable_interrupt(TC0, 0, TC_IER_CPCS );//ne vem zaki se RB compare ne proi??
   80eb2:	2210      	movs	r2, #16
   80eb4:	2100      	movs	r1, #0
   80eb6:	480d      	ldr	r0, [pc, #52]	; (80eec <timer_init+0x48>)
   80eb8:	f000 fdb9 	bl	81a2e <tc_enable_interrupt>

    tc_write_rc(TC0, 0, 2625000);
   80ebc:	4a0c      	ldr	r2, [pc, #48]	; (80ef0 <timer_init+0x4c>)
   80ebe:	2100      	movs	r1, #0
   80ec0:	480a      	ldr	r0, [pc, #40]	; (80eec <timer_init+0x48>)
   80ec2:	f000 fda2 	bl	81a0a <tc_write_rc>
    tc_write_ra(TC0, 0, 2625000/2);
   80ec6:	4a0b      	ldr	r2, [pc, #44]	; (80ef4 <timer_init+0x50>)
   80ec8:	2100      	movs	r1, #0
   80eca:	4808      	ldr	r0, [pc, #32]	; (80eec <timer_init+0x48>)
   80ecc:	f000 fd79 	bl	819c2 <tc_write_ra>
    tc_write_rb(TC0, 0, 2625000/2);
   80ed0:	4a08      	ldr	r2, [pc, #32]	; (80ef4 <timer_init+0x50>)
   80ed2:	2100      	movs	r1, #0
   80ed4:	4805      	ldr	r0, [pc, #20]	; (80eec <timer_init+0x48>)
   80ed6:	f000 fd86 	bl	819e6 <tc_write_rb>


    tc_start(TC0,0);
   80eda:	2100      	movs	r1, #0
   80edc:	4803      	ldr	r0, [pc, #12]	; (80eec <timer_init+0x48>)
   80ede:	f000 fd60 	bl	819a2 <tc_start>



}
   80ee2:	bf00      	nop
   80ee4:	bd80      	pop	{r7, pc}
   80ee6:	bf00      	nop
   80ee8:	0606c402 	.word	0x0606c402
   80eec:	40080000 	.word	0x40080000
   80ef0:	00280de8 	.word	0x00280de8
   80ef4:	001406f4 	.word	0x001406f4

00080ef8 <NVIC_EnableIRQ>:
    The function enables a device-specific interrupt in the NVIC interrupt controller.

    \param [in]      IRQn  External interrupt number. Value cannot be negative.
 */
__STATIC_INLINE void NVIC_EnableIRQ(IRQn_Type IRQn)
{
   80ef8:	b480      	push	{r7}
   80efa:	b083      	sub	sp, #12
   80efc:	af00      	add	r7, sp, #0
   80efe:	4603      	mov	r3, r0
   80f00:	71fb      	strb	r3, [r7, #7]
  NVIC->ISER[((uint32_t)(IRQn) >> 5)] = (1 << ((uint32_t)(IRQn) & 0x1F)); /* enable interrupt */
   80f02:	79fb      	ldrb	r3, [r7, #7]
   80f04:	f003 031f 	and.w	r3, r3, #31
   80f08:	2201      	movs	r2, #1
   80f0a:	fa02 f103 	lsl.w	r1, r2, r3
   80f0e:	4a05      	ldr	r2, [pc, #20]	; (80f24 <NVIC_EnableIRQ+0x2c>)
   80f10:	f997 3007 	ldrsb.w	r3, [r7, #7]
   80f14:	095b      	lsrs	r3, r3, #5
   80f16:	f842 1023 	str.w	r1, [r2, r3, lsl #2]
}
   80f1a:	bf00      	nop
   80f1c:	370c      	adds	r7, #12
   80f1e:	46bd      	mov	sp, r7
   80f20:	bc80      	pop	{r7}
   80f22:	4770      	bx	lr
   80f24:	e000e100 	.word	0xe000e100

00080f28 <sysclk_enable_peripheral_clock>:
{
   80f28:	b580      	push	{r7, lr}
   80f2a:	b082      	sub	sp, #8
   80f2c:	af00      	add	r7, sp, #0
   80f2e:	6078      	str	r0, [r7, #4]
	pmc_enable_periph_clk(ul_id);
   80f30:	6878      	ldr	r0, [r7, #4]
   80f32:	f000 fc9d 	bl	81870 <pmc_enable_periph_clk>
}
   80f36:	bf00      	nop
   80f38:	3708      	adds	r7, #8
   80f3a:	46bd      	mov	sp, r7
   80f3c:	bd80      	pop	{r7, pc}
	...

00080f40 <main>:


//global variables
uint32_t on_time = 0, n = 0;

int main (void){
   80f40:	b580      	push	{r7, lr}
   80f42:	b084      	sub	sp, #16
   80f44:	af00      	add	r7, sp, #0

    /* sets the processor clock according to conf_clock.h definitions */
    sysclk_init();
   80f46:	f000 fb25 	bl	81594 <sysclk_init>

    /* disable wathcdog */
    WDT->WDT_MR = WDT_MR_WDDIS;
   80f4a:	4b3e      	ldr	r3, [pc, #248]	; (81044 <main+0x104>)
   80f4c:	f44f 4200 	mov.w	r2, #32768	; 0x8000
   80f50:	605a      	str	r2, [r3, #4]

    /********************* HW init     ***************************/
    sysclk_enable_peripheral_clock(ID_PIOB);  ///upa da je prou
   80f52:	200c      	movs	r0, #12
   80f54:	f7ff ffe8 	bl	80f28 <sysclk_enable_peripheral_clock>
    sysclk_enable_peripheral_clock(ID_PIOA);
   80f58:	200b      	movs	r0, #11
   80f5a:	f7ff ffe5 	bl	80f28 <sysclk_enable_peripheral_clock>
    sysclk_enable_peripheral_clock(ID_TC0);
   80f5e:	201b      	movs	r0, #27
   80f60:	f7ff ffe2 	bl	80f28 <sysclk_enable_peripheral_clock>
   /* PIOB -> PIO_PER = 0<<27;
    PIOB->PIO_PDR = PIO_PDR_P27;
    PIOB->PIO_OER = PIO_OER_P27;
    PIOB->PIO_ABSR = PIO_ABSR_P27;
    PIOB->PIO_IER = PIO_IER_P27;*/
    pio_set_peripheral(PIOB,PIO_PERIPH_B,PIO_PB27B_TIOB0);
   80f64:	f04f 6200 	mov.w	r2, #134217728	; 0x8000000
   80f68:	f04f 5180 	mov.w	r1, #268435456	; 0x10000000
   80f6c:	4836      	ldr	r0, [pc, #216]	; (81048 <main+0x108>)
   80f6e:	f000 fcbd 	bl	818ec <pio_set_peripheral>
    pio_set_peripheral(PIOB,PIO_PERIPH_B,PIO_PB25B_TIOA0);   //zaki mi b0 ni delau
   80f72:	f04f 7200 	mov.w	r2, #33554432	; 0x2000000
   80f76:	f04f 5180 	mov.w	r1, #268435456	; 0x10000000
   80f7a:	4833      	ldr	r0, [pc, #204]	; (81048 <main+0x108>)
   80f7c:	f000 fcb6 	bl	818ec <pio_set_peripheral>
    NVIC_EnableIRQ(TC0_IRQn);
   80f80:	201b      	movs	r0, #27
   80f82:	f7ff ffb9 	bl	80ef8 <NVIC_EnableIRQ>

    lcd_init();
   80f86:	f7ff fbeb 	bl	80760 <lcd_init>
    bord_init();
   80f8a:	f7ff fe99 	bl	80cc0 <bord_init>
    timer_init();
   80f8e:	f7ff ff89 	bl	80ea4 <timer_init>


    uint32_t frekvenca = 1;
   80f92:	2301      	movs	r3, #1
   80f94:	60fb      	str	r3, [r7, #12]
    uint32_t duty = 50;
   80f96:	2332      	movs	r3, #50	; 0x32
   80f98:	60bb      	str	r3, [r7, #8]
    int pritisnjeni = 0;
   80f9a:	2300      	movs	r3, #0
   80f9c:	607b      	str	r3, [r7, #4]
    /********************* Main loop     ***************************/

    while(1){

        // branje pritiska tipk
        pritisnjeni = get_button_press();
   80f9e:	f7ff ff0d 	bl	80dbc <get_button_press>
   80fa2:	6078      	str	r0, [r7, #4]

        //spreminjanje parametrov
        if ((pritisnjeni & 1<<0) && (frekvenca<20)) frekvenca++;
   80fa4:	687b      	ldr	r3, [r7, #4]
   80fa6:	f003 0301 	and.w	r3, r3, #1
   80faa:	2b00      	cmp	r3, #0
   80fac:	d005      	beq.n	80fba <main+0x7a>
   80fae:	68fb      	ldr	r3, [r7, #12]
   80fb0:	2b13      	cmp	r3, #19
   80fb2:	d802      	bhi.n	80fba <main+0x7a>
   80fb4:	68fb      	ldr	r3, [r7, #12]
   80fb6:	3301      	adds	r3, #1
   80fb8:	60fb      	str	r3, [r7, #12]
        if ((pritisnjeni & 1<<1) && (frekvenca>1 )) frekvenca--;
   80fba:	687b      	ldr	r3, [r7, #4]
   80fbc:	f003 0302 	and.w	r3, r3, #2
   80fc0:	2b00      	cmp	r3, #0
   80fc2:	d005      	beq.n	80fd0 <main+0x90>
   80fc4:	68fb      	ldr	r3, [r7, #12]
   80fc6:	2b01      	cmp	r3, #1
   80fc8:	d902      	bls.n	80fd0 <main+0x90>
   80fca:	68fb      	ldr	r3, [r7, #12]
   80fcc:	3b01      	subs	r3, #1
   80fce:	60fb      	str	r3, [r7, #12]
        if ((pritisnjeni & 1<<2) && (duty<95)) duty += 5;
   80fd0:	687b      	ldr	r3, [r7, #4]
   80fd2:	f003 0304 	and.w	r3, r3, #4
   80fd6:	2b00      	cmp	r3, #0
   80fd8:	d005      	beq.n	80fe6 <main+0xa6>
   80fda:	68bb      	ldr	r3, [r7, #8]
   80fdc:	2b5e      	cmp	r3, #94	; 0x5e
   80fde:	d802      	bhi.n	80fe6 <main+0xa6>
   80fe0:	68bb      	ldr	r3, [r7, #8]
   80fe2:	3305      	adds	r3, #5
   80fe4:	60bb      	str	r3, [r7, #8]
        if ((pritisnjeni & 1<<3) && (duty>5 )) duty -= 5;
   80fe6:	687b      	ldr	r3, [r7, #4]
   80fe8:	f003 0308 	and.w	r3, r3, #8
   80fec:	2b00      	cmp	r3, #0
   80fee:	d005      	beq.n	80ffc <main+0xbc>
   80ff0:	68bb      	ldr	r3, [r7, #8]
   80ff2:	2b05      	cmp	r3, #5
   80ff4:	d902      	bls.n	80ffc <main+0xbc>
   80ff6:	68bb      	ldr	r3, [r7, #8]
   80ff8:	3b05      	subs	r3, #5
   80ffa:	60bb      	str	r3, [r7, #8]

        //izraun
        n = SystemCoreClock/(frekvenca * 32);
   80ffc:	4b13      	ldr	r3, [pc, #76]	; (8104c <main+0x10c>)
   80ffe:	681a      	ldr	r2, [r3, #0]
   81000:	68fb      	ldr	r3, [r7, #12]
   81002:	015b      	lsls	r3, r3, #5
   81004:	fbb2 f3f3 	udiv	r3, r2, r3
   81008:	4a11      	ldr	r2, [pc, #68]	; (81050 <main+0x110>)
   8100a:	6013      	str	r3, [r2, #0]
        on_time = (n * duty)/100;
   8100c:	4b10      	ldr	r3, [pc, #64]	; (81050 <main+0x110>)
   8100e:	681b      	ldr	r3, [r3, #0]
   81010:	68ba      	ldr	r2, [r7, #8]
   81012:	fb02 f303 	mul.w	r3, r2, r3
   81016:	4a0f      	ldr	r2, [pc, #60]	; (81054 <main+0x114>)
   81018:	fba2 2303 	umull	r2, r3, r2, r3
   8101c:	095b      	lsrs	r3, r3, #5
   8101e:	4a0e      	ldr	r2, [pc, #56]	; (81058 <main+0x118>)
   81020:	6013      	str	r3, [r2, #0]

        //pisanje vrednosti na lcd
        int i = sprintf(lcd_string,"f %2dHz cycle %2d%%",(int)frekvenca, (int)duty);
   81022:	4b0e      	ldr	r3, [pc, #56]	; (8105c <main+0x11c>)
   81024:	6818      	ldr	r0, [r3, #0]
   81026:	68fa      	ldr	r2, [r7, #12]
   81028:	68bb      	ldr	r3, [r7, #8]
   8102a:	490d      	ldr	r1, [pc, #52]	; (81060 <main+0x120>)
   8102c:	f000 ff52 	bl	81ed4 <sprintf>
   81030:	6038      	str	r0, [r7, #0]
        lcd_string[i] = ' ';
   81032:	4b0a      	ldr	r3, [pc, #40]	; (8105c <main+0x11c>)
   81034:	681a      	ldr	r2, [r3, #0]
   81036:	683b      	ldr	r3, [r7, #0]
   81038:	4413      	add	r3, r2
   8103a:	2220      	movs	r2, #32
   8103c:	701a      	strb	r2, [r3, #0]
        lcd_driver();
   8103e:	f7ff fcc5 	bl	809cc <lcd_driver>
    while(1){
   81042:	e7ac      	b.n	80f9e <main+0x5e>
   81044:	400e1a50 	.word	0x400e1a50
   81048:	400e1000 	.word	0x400e1000
   8104c:	200701c0 	.word	0x200701c0
   81050:	20070b98 	.word	0x20070b98
   81054:	51eb851f 	.word	0x51eb851f
   81058:	20070b94 	.word	0x20070b94
   8105c:	200701bc 	.word	0x200701bc
   81060:	00087030 	.word	0x00087030

00081064 <TC0_Handler>:


    }
}

void TC0_Handler(void){
   81064:	b580      	push	{r7, lr}
   81066:	af00      	add	r7, sp, #0

    //ioport_toggle_pin_level(PIO_PD7_IDX);   ne bom ve rabu


    tc_write_ra(TC0, 0, on_time);
   81068:	4b0d      	ldr	r3, [pc, #52]	; (810a0 <TC0_Handler+0x3c>)
   8106a:	681b      	ldr	r3, [r3, #0]
   8106c:	461a      	mov	r2, r3
   8106e:	2100      	movs	r1, #0
   81070:	480c      	ldr	r0, [pc, #48]	; (810a4 <TC0_Handler+0x40>)
   81072:	f000 fca6 	bl	819c2 <tc_write_ra>
    tc_write_rc(TC0, 0, n );
   81076:	4b0c      	ldr	r3, [pc, #48]	; (810a8 <TC0_Handler+0x44>)
   81078:	681b      	ldr	r3, [r3, #0]
   8107a:	461a      	mov	r2, r3
   8107c:	2100      	movs	r1, #0
   8107e:	4809      	ldr	r0, [pc, #36]	; (810a4 <TC0_Handler+0x40>)
   81080:	f000 fcc3 	bl	81a0a <tc_write_rc>
    tc_write_rb(TC0, 0, on_time);
   81084:	4b06      	ldr	r3, [pc, #24]	; (810a0 <TC0_Handler+0x3c>)
   81086:	681b      	ldr	r3, [r3, #0]
   81088:	461a      	mov	r2, r3
   8108a:	2100      	movs	r1, #0
   8108c:	4805      	ldr	r0, [pc, #20]	; (810a4 <TC0_Handler+0x40>)
   8108e:	f000 fcaa 	bl	819e6 <tc_write_rb>

    tc_get_status(TC0, 0);
   81092:	2100      	movs	r1, #0
   81094:	4803      	ldr	r0, [pc, #12]	; (810a4 <TC0_Handler+0x40>)
   81096:	f000 fcdd 	bl	81a54 <tc_get_status>




  ///tu bo rabu samo e 3 vrstive pii v registre in beri status za reset
}
   8109a:	bf00      	nop
   8109c:	bd80      	pop	{r7, pc}
   8109e:	bf00      	nop
   810a0:	20070b94 	.word	0x20070b94
   810a4:	40080000 	.word	0x40080000
   810a8:	20070b98 	.word	0x20070b98

000810ac <SystemCoreClockUpdate>:

	SystemCoreClock = CHIP_FREQ_CPU_MAX;
}

void SystemCoreClockUpdate(void)
{
   810ac:	b480      	push	{r7}
   810ae:	af00      	add	r7, sp, #0
	/* Determine clock frequency according to clock register values */
	switch (PMC->PMC_MCKR & PMC_MCKR_CSS_Msk) {
   810b0:	4b57      	ldr	r3, [pc, #348]	; (81210 <SystemCoreClockUpdate+0x164>)
   810b2:	6b1b      	ldr	r3, [r3, #48]	; 0x30
   810b4:	f003 0303 	and.w	r3, r3, #3
   810b8:	2b03      	cmp	r3, #3
   810ba:	f200 808a 	bhi.w	811d2 <SystemCoreClockUpdate+0x126>
   810be:	a201      	add	r2, pc, #4	; (adr r2, 810c4 <SystemCoreClockUpdate+0x18>)
   810c0:	f852 f023 	ldr.w	pc, [r2, r3, lsl #2]
   810c4:	000810d5 	.word	0x000810d5
   810c8:	000810f5 	.word	0x000810f5
   810cc:	00081145 	.word	0x00081145
   810d0:	00081145 	.word	0x00081145
	case PMC_MCKR_CSS_SLOW_CLK:	/* Slow clock */
		if (SUPC->SUPC_SR & SUPC_SR_OSCSEL) {
   810d4:	4b4f      	ldr	r3, [pc, #316]	; (81214 <SystemCoreClockUpdate+0x168>)
   810d6:	695b      	ldr	r3, [r3, #20]
   810d8:	f003 0380 	and.w	r3, r3, #128	; 0x80
   810dc:	2b00      	cmp	r3, #0
   810de:	d004      	beq.n	810ea <SystemCoreClockUpdate+0x3e>
			SystemCoreClock = CHIP_FREQ_XTAL_32K;
   810e0:	4b4d      	ldr	r3, [pc, #308]	; (81218 <SystemCoreClockUpdate+0x16c>)
   810e2:	f44f 4200 	mov.w	r2, #32768	; 0x8000
   810e6:	601a      	str	r2, [r3, #0]
		} else {
			SystemCoreClock = CHIP_FREQ_SLCK_RC;
		}
		break;
   810e8:	e073      	b.n	811d2 <SystemCoreClockUpdate+0x126>
			SystemCoreClock = CHIP_FREQ_SLCK_RC;
   810ea:	4b4b      	ldr	r3, [pc, #300]	; (81218 <SystemCoreClockUpdate+0x16c>)
   810ec:	f44f 42fa 	mov.w	r2, #32000	; 0x7d00
   810f0:	601a      	str	r2, [r3, #0]
		break;
   810f2:	e06e      	b.n	811d2 <SystemCoreClockUpdate+0x126>
	case PMC_MCKR_CSS_MAIN_CLK:	/* Main clock */
		if (PMC->CKGR_MOR & CKGR_MOR_MOSCSEL) {
   810f4:	4b46      	ldr	r3, [pc, #280]	; (81210 <SystemCoreClockUpdate+0x164>)
   810f6:	6a1b      	ldr	r3, [r3, #32]
   810f8:	f003 7380 	and.w	r3, r3, #16777216	; 0x1000000
   810fc:	2b00      	cmp	r3, #0
   810fe:	d003      	beq.n	81108 <SystemCoreClockUpdate+0x5c>
			SystemCoreClock = CHIP_FREQ_XTAL_12M;
   81100:	4b45      	ldr	r3, [pc, #276]	; (81218 <SystemCoreClockUpdate+0x16c>)
   81102:	4a46      	ldr	r2, [pc, #280]	; (8121c <SystemCoreClockUpdate+0x170>)
   81104:	601a      	str	r2, [r3, #0]
				break;
			default:
				break;
			}
		}
		break;
   81106:	e064      	b.n	811d2 <SystemCoreClockUpdate+0x126>
			SystemCoreClock = CHIP_FREQ_MAINCK_RC_4MHZ;
   81108:	4b43      	ldr	r3, [pc, #268]	; (81218 <SystemCoreClockUpdate+0x16c>)
   8110a:	4a45      	ldr	r2, [pc, #276]	; (81220 <SystemCoreClockUpdate+0x174>)
   8110c:	601a      	str	r2, [r3, #0]
			switch (PMC->CKGR_MOR & CKGR_MOR_MOSCRCF_Msk) {
   8110e:	4b40      	ldr	r3, [pc, #256]	; (81210 <SystemCoreClockUpdate+0x164>)
   81110:	6a1b      	ldr	r3, [r3, #32]
   81112:	f003 0370 	and.w	r3, r3, #112	; 0x70
   81116:	2b10      	cmp	r3, #16
   81118:	d004      	beq.n	81124 <SystemCoreClockUpdate+0x78>
   8111a:	2b20      	cmp	r3, #32
   8111c:	d008      	beq.n	81130 <SystemCoreClockUpdate+0x84>
   8111e:	2b00      	cmp	r3, #0
   81120:	d00e      	beq.n	81140 <SystemCoreClockUpdate+0x94>
				break;
   81122:	e00e      	b.n	81142 <SystemCoreClockUpdate+0x96>
				SystemCoreClock *= 2U;
   81124:	4b3c      	ldr	r3, [pc, #240]	; (81218 <SystemCoreClockUpdate+0x16c>)
   81126:	681b      	ldr	r3, [r3, #0]
   81128:	005b      	lsls	r3, r3, #1
   8112a:	4a3b      	ldr	r2, [pc, #236]	; (81218 <SystemCoreClockUpdate+0x16c>)
   8112c:	6013      	str	r3, [r2, #0]
				break;
   8112e:	e008      	b.n	81142 <SystemCoreClockUpdate+0x96>
				SystemCoreClock *= 3U;
   81130:	4b39      	ldr	r3, [pc, #228]	; (81218 <SystemCoreClockUpdate+0x16c>)
   81132:	681a      	ldr	r2, [r3, #0]
   81134:	4613      	mov	r3, r2
   81136:	005b      	lsls	r3, r3, #1
   81138:	4413      	add	r3, r2
   8113a:	4a37      	ldr	r2, [pc, #220]	; (81218 <SystemCoreClockUpdate+0x16c>)
   8113c:	6013      	str	r3, [r2, #0]
				break;
   8113e:	e000      	b.n	81142 <SystemCoreClockUpdate+0x96>
				break;
   81140:	bf00      	nop
		break;
   81142:	e046      	b.n	811d2 <SystemCoreClockUpdate+0x126>
	case PMC_MCKR_CSS_PLLA_CLK:	/* PLLA clock */
	case PMC_MCKR_CSS_UPLL_CLK:	/* UPLL clock */
		if (PMC->CKGR_MOR & CKGR_MOR_MOSCSEL) {
   81144:	4b32      	ldr	r3, [pc, #200]	; (81210 <SystemCoreClockUpdate+0x164>)
   81146:	6a1b      	ldr	r3, [r3, #32]
   81148:	f003 7380 	and.w	r3, r3, #16777216	; 0x1000000
   8114c:	2b00      	cmp	r3, #0
   8114e:	d003      	beq.n	81158 <SystemCoreClockUpdate+0xac>
			SystemCoreClock = CHIP_FREQ_XTAL_12M;
   81150:	4b31      	ldr	r3, [pc, #196]	; (81218 <SystemCoreClockUpdate+0x16c>)
   81152:	4a32      	ldr	r2, [pc, #200]	; (8121c <SystemCoreClockUpdate+0x170>)
   81154:	601a      	str	r2, [r3, #0]
   81156:	e01c      	b.n	81192 <SystemCoreClockUpdate+0xe6>
		} else {
			SystemCoreClock = CHIP_FREQ_MAINCK_RC_4MHZ;
   81158:	4b2f      	ldr	r3, [pc, #188]	; (81218 <SystemCoreClockUpdate+0x16c>)
   8115a:	4a31      	ldr	r2, [pc, #196]	; (81220 <SystemCoreClockUpdate+0x174>)
   8115c:	601a      	str	r2, [r3, #0]

			switch (PMC->CKGR_MOR & CKGR_MOR_MOSCRCF_Msk) {
   8115e:	4b2c      	ldr	r3, [pc, #176]	; (81210 <SystemCoreClockUpdate+0x164>)
   81160:	6a1b      	ldr	r3, [r3, #32]
   81162:	f003 0370 	and.w	r3, r3, #112	; 0x70
   81166:	2b10      	cmp	r3, #16
   81168:	d004      	beq.n	81174 <SystemCoreClockUpdate+0xc8>
   8116a:	2b20      	cmp	r3, #32
   8116c:	d008      	beq.n	81180 <SystemCoreClockUpdate+0xd4>
   8116e:	2b00      	cmp	r3, #0
   81170:	d00e      	beq.n	81190 <SystemCoreClockUpdate+0xe4>
				break;
			case CKGR_MOR_MOSCRCF_12_MHz:
				SystemCoreClock *= 3U;
				break;
			default:
				break;
   81172:	e00e      	b.n	81192 <SystemCoreClockUpdate+0xe6>
				SystemCoreClock *= 2U;
   81174:	4b28      	ldr	r3, [pc, #160]	; (81218 <SystemCoreClockUpdate+0x16c>)
   81176:	681b      	ldr	r3, [r3, #0]
   81178:	005b      	lsls	r3, r3, #1
   8117a:	4a27      	ldr	r2, [pc, #156]	; (81218 <SystemCoreClockUpdate+0x16c>)
   8117c:	6013      	str	r3, [r2, #0]
				break;
   8117e:	e008      	b.n	81192 <SystemCoreClockUpdate+0xe6>
				SystemCoreClock *= 3U;
   81180:	4b25      	ldr	r3, [pc, #148]	; (81218 <SystemCoreClockUpdate+0x16c>)
   81182:	681a      	ldr	r2, [r3, #0]
   81184:	4613      	mov	r3, r2
   81186:	005b      	lsls	r3, r3, #1
   81188:	4413      	add	r3, r2
   8118a:	4a23      	ldr	r2, [pc, #140]	; (81218 <SystemCoreClockUpdate+0x16c>)
   8118c:	6013      	str	r3, [r2, #0]
				break;
   8118e:	e000      	b.n	81192 <SystemCoreClockUpdate+0xe6>
				break;
   81190:	bf00      	nop
			}
		}
		if ((PMC->PMC_MCKR & PMC_MCKR_CSS_Msk) == PMC_MCKR_CSS_PLLA_CLK) {
   81192:	4b1f      	ldr	r3, [pc, #124]	; (81210 <SystemCoreClockUpdate+0x164>)
   81194:	6b1b      	ldr	r3, [r3, #48]	; 0x30
   81196:	f003 0303 	and.w	r3, r3, #3
   8119a:	2b02      	cmp	r3, #2
   8119c:	d115      	bne.n	811ca <SystemCoreClockUpdate+0x11e>
			SystemCoreClock *= ((((PMC->CKGR_PLLAR) & CKGR_PLLAR_MULA_Msk) >> 
   8119e:	4b1c      	ldr	r3, [pc, #112]	; (81210 <SystemCoreClockUpdate+0x164>)
   811a0:	6a9b      	ldr	r3, [r3, #40]	; 0x28
   811a2:	0c1b      	lsrs	r3, r3, #16
   811a4:	f3c3 030a 	ubfx	r3, r3, #0, #11
				                            CKGR_PLLAR_MULA_Pos) + 1U);
   811a8:	3301      	adds	r3, #1
			SystemCoreClock *= ((((PMC->CKGR_PLLAR) & CKGR_PLLAR_MULA_Msk) >> 
   811aa:	4a1b      	ldr	r2, [pc, #108]	; (81218 <SystemCoreClockUpdate+0x16c>)
   811ac:	6812      	ldr	r2, [r2, #0]
   811ae:	fb02 f303 	mul.w	r3, r2, r3
   811b2:	4a19      	ldr	r2, [pc, #100]	; (81218 <SystemCoreClockUpdate+0x16c>)
   811b4:	6013      	str	r3, [r2, #0]
			SystemCoreClock /= ((((PMC->CKGR_PLLAR) & CKGR_PLLAR_DIVA_Msk) >> 
   811b6:	4b16      	ldr	r3, [pc, #88]	; (81210 <SystemCoreClockUpdate+0x164>)
   811b8:	6a9b      	ldr	r3, [r3, #40]	; 0x28
   811ba:	b2db      	uxtb	r3, r3
   811bc:	4a16      	ldr	r2, [pc, #88]	; (81218 <SystemCoreClockUpdate+0x16c>)
   811be:	6812      	ldr	r2, [r2, #0]
   811c0:	fbb2 f3f3 	udiv	r3, r2, r3
   811c4:	4a14      	ldr	r2, [pc, #80]	; (81218 <SystemCoreClockUpdate+0x16c>)
   811c6:	6013      	str	r3, [r2, #0]
				                             CKGR_PLLAR_DIVA_Pos));
		} else {
			SystemCoreClock = SYS_UTMIPLL / 2U;
		}
		break;
   811c8:	e002      	b.n	811d0 <SystemCoreClockUpdate+0x124>
			SystemCoreClock = SYS_UTMIPLL / 2U;
   811ca:	4b13      	ldr	r3, [pc, #76]	; (81218 <SystemCoreClockUpdate+0x16c>)
   811cc:	4a15      	ldr	r2, [pc, #84]	; (81224 <SystemCoreClockUpdate+0x178>)
   811ce:	601a      	str	r2, [r3, #0]
		break;
   811d0:	bf00      	nop
	}

	if ((PMC->PMC_MCKR & PMC_MCKR_PRES_Msk) == PMC_MCKR_PRES_CLK_3) {
   811d2:	4b0f      	ldr	r3, [pc, #60]	; (81210 <SystemCoreClockUpdate+0x164>)
   811d4:	6b1b      	ldr	r3, [r3, #48]	; 0x30
   811d6:	f003 0370 	and.w	r3, r3, #112	; 0x70
   811da:	2b70      	cmp	r3, #112	; 0x70
   811dc:	d108      	bne.n	811f0 <SystemCoreClockUpdate+0x144>
		SystemCoreClock /= 3U;
   811de:	4b0e      	ldr	r3, [pc, #56]	; (81218 <SystemCoreClockUpdate+0x16c>)
   811e0:	681b      	ldr	r3, [r3, #0]
   811e2:	4a11      	ldr	r2, [pc, #68]	; (81228 <SystemCoreClockUpdate+0x17c>)
   811e4:	fba2 2303 	umull	r2, r3, r2, r3
   811e8:	085b      	lsrs	r3, r3, #1
   811ea:	4a0b      	ldr	r2, [pc, #44]	; (81218 <SystemCoreClockUpdate+0x16c>)
   811ec:	6013      	str	r3, [r2, #0]
	} else {
		SystemCoreClock >>= ((PMC->PMC_MCKR & PMC_MCKR_PRES_Msk) >> 
			                          PMC_MCKR_PRES_Pos);
	}
}
   811ee:	e00a      	b.n	81206 <SystemCoreClockUpdate+0x15a>
		SystemCoreClock >>= ((PMC->PMC_MCKR & PMC_MCKR_PRES_Msk) >> 
   811f0:	4b07      	ldr	r3, [pc, #28]	; (81210 <SystemCoreClockUpdate+0x164>)
   811f2:	6b1b      	ldr	r3, [r3, #48]	; 0x30
   811f4:	091b      	lsrs	r3, r3, #4
   811f6:	f003 0307 	and.w	r3, r3, #7
   811fa:	4a07      	ldr	r2, [pc, #28]	; (81218 <SystemCoreClockUpdate+0x16c>)
   811fc:	6812      	ldr	r2, [r2, #0]
   811fe:	fa22 f303 	lsr.w	r3, r2, r3
   81202:	4a05      	ldr	r2, [pc, #20]	; (81218 <SystemCoreClockUpdate+0x16c>)
   81204:	6013      	str	r3, [r2, #0]
}
   81206:	bf00      	nop
   81208:	46bd      	mov	sp, r7
   8120a:	bc80      	pop	{r7}
   8120c:	4770      	bx	lr
   8120e:	bf00      	nop
   81210:	400e0600 	.word	0x400e0600
   81214:	400e1a10 	.word	0x400e1a10
   81218:	200701c0 	.word	0x200701c0
   8121c:	00b71b00 	.word	0x00b71b00
   81220:	003d0900 	.word	0x003d0900
   81224:	0e4e1c00 	.word	0x0e4e1c00
   81228:	aaaaaaab 	.word	0xaaaaaaab

0008122c <Dummy_Handler>:

/**
 * \brief Default interrupt handler for unused IRQs.
 */
void Dummy_Handler(void)
{
   8122c:	b480      	push	{r7}
   8122e:	af00      	add	r7, sp, #0
	while (1) {
   81230:	e7fe      	b.n	81230 <Dummy_Handler+0x4>
	...

00081234 <Reset_Handler>:
/**
 * \brief This is the code that gets called on processor reset.
 * To initialize the device, and call the main() routine.
 */
void Reset_Handler(void)
{
   81234:	b580      	push	{r7, lr}
   81236:	b082      	sub	sp, #8
   81238:	af00      	add	r7, sp, #0
	uint32_t *pSrc, *pDest;

	/* Initialize the relocate segment */
	pSrc = &_etext;
   8123a:	4b1e      	ldr	r3, [pc, #120]	; (812b4 <Reset_Handler+0x80>)
   8123c:	607b      	str	r3, [r7, #4]
	pDest = &_srelocate;
   8123e:	4b1e      	ldr	r3, [pc, #120]	; (812b8 <Reset_Handler+0x84>)
   81240:	603b      	str	r3, [r7, #0]

	if (pSrc != pDest) {
   81242:	687a      	ldr	r2, [r7, #4]
   81244:	683b      	ldr	r3, [r7, #0]
   81246:	429a      	cmp	r2, r3
   81248:	d00c      	beq.n	81264 <Reset_Handler+0x30>
		for (; pDest < &_erelocate;) {
   8124a:	e007      	b.n	8125c <Reset_Handler+0x28>
			*pDest++ = *pSrc++;
   8124c:	687a      	ldr	r2, [r7, #4]
   8124e:	1d13      	adds	r3, r2, #4
   81250:	607b      	str	r3, [r7, #4]
   81252:	683b      	ldr	r3, [r7, #0]
   81254:	1d19      	adds	r1, r3, #4
   81256:	6039      	str	r1, [r7, #0]
   81258:	6812      	ldr	r2, [r2, #0]
   8125a:	601a      	str	r2, [r3, #0]
		for (; pDest < &_erelocate;) {
   8125c:	683b      	ldr	r3, [r7, #0]
   8125e:	4a17      	ldr	r2, [pc, #92]	; (812bc <Reset_Handler+0x88>)
   81260:	4293      	cmp	r3, r2
   81262:	d3f3      	bcc.n	8124c <Reset_Handler+0x18>
		}
	}

	/* Clear the zero segment */
	for (pDest = &_szero; pDest < &_ezero;) {
   81264:	4b16      	ldr	r3, [pc, #88]	; (812c0 <Reset_Handler+0x8c>)
   81266:	603b      	str	r3, [r7, #0]
   81268:	e004      	b.n	81274 <Reset_Handler+0x40>
		*pDest++ = 0;
   8126a:	683b      	ldr	r3, [r7, #0]
   8126c:	1d1a      	adds	r2, r3, #4
   8126e:	603a      	str	r2, [r7, #0]
   81270:	2200      	movs	r2, #0
   81272:	601a      	str	r2, [r3, #0]
	for (pDest = &_szero; pDest < &_ezero;) {
   81274:	683b      	ldr	r3, [r7, #0]
   81276:	4a13      	ldr	r2, [pc, #76]	; (812c4 <Reset_Handler+0x90>)
   81278:	4293      	cmp	r3, r2
   8127a:	d3f6      	bcc.n	8126a <Reset_Handler+0x36>
	}

	/* Set the vector table base address */
	pSrc = (uint32_t *) & _sfixed;
   8127c:	4b12      	ldr	r3, [pc, #72]	; (812c8 <Reset_Handler+0x94>)
   8127e:	607b      	str	r3, [r7, #4]
	SCB->VTOR = ((uint32_t) pSrc & SCB_VTOR_TBLOFF_Msk);
   81280:	687b      	ldr	r3, [r7, #4]
   81282:	4a12      	ldr	r2, [pc, #72]	; (812cc <Reset_Handler+0x98>)
   81284:	f023 4360 	bic.w	r3, r3, #3758096384	; 0xe0000000
   81288:	f023 037f 	bic.w	r3, r3, #127	; 0x7f
   8128c:	6093      	str	r3, [r2, #8]

	if (((uint32_t) pSrc >= IRAM0_ADDR) && ((uint32_t) pSrc < NFC_RAM_ADDR)) {
   8128e:	687b      	ldr	r3, [r7, #4]
   81290:	f1b3 5f00 	cmp.w	r3, #536870912	; 0x20000000
   81294:	d309      	bcc.n	812aa <Reset_Handler+0x76>
   81296:	687b      	ldr	r3, [r7, #4]
   81298:	4a0d      	ldr	r2, [pc, #52]	; (812d0 <Reset_Handler+0x9c>)
   8129a:	4293      	cmp	r3, r2
   8129c:	d805      	bhi.n	812aa <Reset_Handler+0x76>
		SCB->VTOR |= 1 << SCB_VTOR_TBLBASE_Pos;
   8129e:	4b0b      	ldr	r3, [pc, #44]	; (812cc <Reset_Handler+0x98>)
   812a0:	689b      	ldr	r3, [r3, #8]
   812a2:	4a0a      	ldr	r2, [pc, #40]	; (812cc <Reset_Handler+0x98>)
   812a4:	f043 5300 	orr.w	r3, r3, #536870912	; 0x20000000
   812a8:	6093      	str	r3, [r2, #8]
	}

	/* Initialize the C library */
	__libc_init_array();
   812aa:	f000 fd87 	bl	81dbc <__libc_init_array>

	/* Branch to main function */
	main();
   812ae:	f7ff fe47 	bl	80f40 <main>

	/* Infinite loop */
	while (1);
   812b2:	e7fe      	b.n	812b2 <Reset_Handler+0x7e>
   812b4:	0008735c 	.word	0x0008735c
   812b8:	20070000 	.word	0x20070000
   812bc:	20070b74 	.word	0x20070b74
   812c0:	20070b74 	.word	0x20070b74
   812c4:	20070bd8 	.word	0x20070bd8
   812c8:	00080000 	.word	0x00080000
   812cc:	e000ed00 	.word	0xe000ed00
   812d0:	200fffff 	.word	0x200fffff

000812d4 <osc_enable>:
{
   812d4:	b580      	push	{r7, lr}
   812d6:	b082      	sub	sp, #8
   812d8:	af00      	add	r7, sp, #0
   812da:	6078      	str	r0, [r7, #4]
	switch (ul_id) {
   812dc:	687b      	ldr	r3, [r7, #4]
   812de:	2b07      	cmp	r3, #7
   812e0:	d831      	bhi.n	81346 <osc_enable+0x72>
   812e2:	a201      	add	r2, pc, #4	; (adr r2, 812e8 <osc_enable+0x14>)
   812e4:	f852 f023 	ldr.w	pc, [r2, r3, lsl #2]
   812e8:	00081345 	.word	0x00081345
   812ec:	00081309 	.word	0x00081309
   812f0:	00081311 	.word	0x00081311
   812f4:	00081319 	.word	0x00081319
   812f8:	00081321 	.word	0x00081321
   812fc:	00081329 	.word	0x00081329
   81300:	00081331 	.word	0x00081331
   81304:	0008133b 	.word	0x0008133b
		pmc_switch_sclk_to_32kxtal(PMC_OSC_XTAL);
   81308:	2000      	movs	r0, #0
   8130a:	f000 f9d7 	bl	816bc <pmc_switch_sclk_to_32kxtal>
		break;
   8130e:	e01a      	b.n	81346 <osc_enable+0x72>
		pmc_switch_sclk_to_32kxtal(PMC_OSC_BYPASS);
   81310:	2001      	movs	r0, #1
   81312:	f000 f9d3 	bl	816bc <pmc_switch_sclk_to_32kxtal>
		break;
   81316:	e016      	b.n	81346 <osc_enable+0x72>
		pmc_switch_mainck_to_fastrc(CKGR_MOR_MOSCRCF_4_MHz);
   81318:	2000      	movs	r0, #0
   8131a:	f000 fa05 	bl	81728 <pmc_switch_mainck_to_fastrc>
		break;
   8131e:	e012      	b.n	81346 <osc_enable+0x72>
		pmc_switch_mainck_to_fastrc(CKGR_MOR_MOSCRCF_8_MHz);
   81320:	2010      	movs	r0, #16
   81322:	f000 fa01 	bl	81728 <pmc_switch_mainck_to_fastrc>
		break;
   81326:	e00e      	b.n	81346 <osc_enable+0x72>
		pmc_switch_mainck_to_fastrc(CKGR_MOR_MOSCRCF_12_MHz);
   81328:	2020      	movs	r0, #32
   8132a:	f000 f9fd 	bl	81728 <pmc_switch_mainck_to_fastrc>
		break;
   8132e:	e00a      	b.n	81346 <osc_enable+0x72>
		pmc_switch_mainck_to_xtal(PMC_OSC_XTAL,
   81330:	213e      	movs	r1, #62	; 0x3e
   81332:	2000      	movs	r0, #0
   81334:	f000 fa30 	bl	81798 <pmc_switch_mainck_to_xtal>
		break;
   81338:	e005      	b.n	81346 <osc_enable+0x72>
		pmc_switch_mainck_to_xtal(PMC_OSC_BYPASS,
   8133a:	213e      	movs	r1, #62	; 0x3e
   8133c:	2001      	movs	r0, #1
   8133e:	f000 fa2b 	bl	81798 <pmc_switch_mainck_to_xtal>
		break;
   81342:	e000      	b.n	81346 <osc_enable+0x72>
		break;
   81344:	bf00      	nop
}
   81346:	bf00      	nop
   81348:	3708      	adds	r7, #8
   8134a:	46bd      	mov	sp, r7
   8134c:	bd80      	pop	{r7, pc}
   8134e:	bf00      	nop

00081350 <osc_is_ready>:
{
   81350:	b580      	push	{r7, lr}
   81352:	b082      	sub	sp, #8
   81354:	af00      	add	r7, sp, #0
   81356:	6078      	str	r0, [r7, #4]
	switch (ul_id) {
   81358:	687b      	ldr	r3, [r7, #4]
   8135a:	2b07      	cmp	r3, #7
   8135c:	d826      	bhi.n	813ac <osc_is_ready+0x5c>
   8135e:	a201      	add	r2, pc, #4	; (adr r2, 81364 <osc_is_ready+0x14>)
   81360:	f852 f023 	ldr.w	pc, [r2, r3, lsl #2]
   81364:	00081385 	.word	0x00081385
   81368:	00081389 	.word	0x00081389
   8136c:	00081389 	.word	0x00081389
   81370:	0008139b 	.word	0x0008139b
   81374:	0008139b 	.word	0x0008139b
   81378:	0008139b 	.word	0x0008139b
   8137c:	0008139b 	.word	0x0008139b
   81380:	0008139b 	.word	0x0008139b
		return 1;
   81384:	2301      	movs	r3, #1
   81386:	e012      	b.n	813ae <osc_is_ready+0x5e>
		return pmc_osc_is_ready_32kxtal();
   81388:	f000 f9b4 	bl	816f4 <pmc_osc_is_ready_32kxtal>
   8138c:	4603      	mov	r3, r0
   8138e:	2b00      	cmp	r3, #0
   81390:	bf14      	ite	ne
   81392:	2301      	movne	r3, #1
   81394:	2300      	moveq	r3, #0
   81396:	b2db      	uxtb	r3, r3
   81398:	e009      	b.n	813ae <osc_is_ready+0x5e>
		return pmc_osc_is_ready_mainck();
   8139a:	f000 fa39 	bl	81810 <pmc_osc_is_ready_mainck>
   8139e:	4603      	mov	r3, r0
   813a0:	2b00      	cmp	r3, #0
   813a2:	bf14      	ite	ne
   813a4:	2301      	movne	r3, #1
   813a6:	2300      	moveq	r3, #0
   813a8:	b2db      	uxtb	r3, r3
   813aa:	e000      	b.n	813ae <osc_is_ready+0x5e>
	return 0;
   813ac:	2300      	movs	r3, #0
}
   813ae:	4618      	mov	r0, r3
   813b0:	3708      	adds	r7, #8
   813b2:	46bd      	mov	sp, r7
   813b4:	bd80      	pop	{r7, pc}
   813b6:	bf00      	nop

000813b8 <osc_get_rate>:
{
   813b8:	b480      	push	{r7}
   813ba:	b083      	sub	sp, #12
   813bc:	af00      	add	r7, sp, #0
   813be:	6078      	str	r0, [r7, #4]
	switch (ul_id) {
   813c0:	687b      	ldr	r3, [r7, #4]
   813c2:	2b07      	cmp	r3, #7
   813c4:	d825      	bhi.n	81412 <osc_get_rate+0x5a>
   813c6:	a201      	add	r2, pc, #4	; (adr r2, 813cc <osc_get_rate+0x14>)
   813c8:	f852 f023 	ldr.w	pc, [r2, r3, lsl #2]
   813cc:	000813ed 	.word	0x000813ed
   813d0:	000813f3 	.word	0x000813f3
   813d4:	000813f9 	.word	0x000813f9
   813d8:	000813ff 	.word	0x000813ff
   813dc:	00081403 	.word	0x00081403
   813e0:	00081407 	.word	0x00081407
   813e4:	0008140b 	.word	0x0008140b
   813e8:	0008140f 	.word	0x0008140f
		return OSC_SLCK_32K_RC_HZ;
   813ec:	f44f 43fa 	mov.w	r3, #32000	; 0x7d00
   813f0:	e010      	b.n	81414 <osc_get_rate+0x5c>
		return BOARD_FREQ_SLCK_XTAL;
   813f2:	f44f 4300 	mov.w	r3, #32768	; 0x8000
   813f6:	e00d      	b.n	81414 <osc_get_rate+0x5c>
		return BOARD_FREQ_SLCK_BYPASS;
   813f8:	f44f 4300 	mov.w	r3, #32768	; 0x8000
   813fc:	e00a      	b.n	81414 <osc_get_rate+0x5c>
		return OSC_MAINCK_4M_RC_HZ;
   813fe:	4b08      	ldr	r3, [pc, #32]	; (81420 <osc_get_rate+0x68>)
   81400:	e008      	b.n	81414 <osc_get_rate+0x5c>
		return OSC_MAINCK_8M_RC_HZ;
   81402:	4b08      	ldr	r3, [pc, #32]	; (81424 <osc_get_rate+0x6c>)
   81404:	e006      	b.n	81414 <osc_get_rate+0x5c>
		return OSC_MAINCK_12M_RC_HZ;
   81406:	4b08      	ldr	r3, [pc, #32]	; (81428 <osc_get_rate+0x70>)
   81408:	e004      	b.n	81414 <osc_get_rate+0x5c>
		return BOARD_FREQ_MAINCK_XTAL;
   8140a:	4b07      	ldr	r3, [pc, #28]	; (81428 <osc_get_rate+0x70>)
   8140c:	e002      	b.n	81414 <osc_get_rate+0x5c>
		return BOARD_FREQ_MAINCK_BYPASS;
   8140e:	4b06      	ldr	r3, [pc, #24]	; (81428 <osc_get_rate+0x70>)
   81410:	e000      	b.n	81414 <osc_get_rate+0x5c>
	return 0;
   81412:	2300      	movs	r3, #0
}
   81414:	4618      	mov	r0, r3
   81416:	370c      	adds	r7, #12
   81418:	46bd      	mov	sp, r7
   8141a:	bc80      	pop	{r7}
   8141c:	4770      	bx	lr
   8141e:	bf00      	nop
   81420:	003d0900 	.word	0x003d0900
   81424:	007a1200 	.word	0x007a1200
   81428:	00b71b00 	.word	0x00b71b00

0008142c <osc_wait_ready>:
 * to become stable and ready to use as a clock source.
 *
 * \param id A number identifying the oscillator to wait for.
 */
static inline void osc_wait_ready(uint8_t id)
{
   8142c:	b580      	push	{r7, lr}
   8142e:	b082      	sub	sp, #8
   81430:	af00      	add	r7, sp, #0
   81432:	4603      	mov	r3, r0
   81434:	71fb      	strb	r3, [r7, #7]
	while (!osc_is_ready(id)) {
   81436:	bf00      	nop
   81438:	79fb      	ldrb	r3, [r7, #7]
   8143a:	4618      	mov	r0, r3
   8143c:	f7ff ff88 	bl	81350 <osc_is_ready>
   81440:	4603      	mov	r3, r0
   81442:	f083 0301 	eor.w	r3, r3, #1
   81446:	b2db      	uxtb	r3, r3
   81448:	2b00      	cmp	r3, #0
   8144a:	d1f5      	bne.n	81438 <osc_wait_ready+0xc>
		/* Do nothing */
	}
}
   8144c:	bf00      	nop
   8144e:	3708      	adds	r7, #8
   81450:	46bd      	mov	sp, r7
   81452:	bd80      	pop	{r7, pc}

00081454 <pll_config_init>:
 * \note The SAM3X PLL hardware interprets mul as mul+1. For readability the hardware mul+1
 * is hidden in this implementation. Use mul as mul effective value.
 */
static inline void pll_config_init(struct pll_config *p_cfg,
		enum pll_source e_src, uint32_t ul_div, uint32_t ul_mul)
{
   81454:	b580      	push	{r7, lr}
   81456:	b086      	sub	sp, #24
   81458:	af00      	add	r7, sp, #0
   8145a:	60f8      	str	r0, [r7, #12]
   8145c:	607a      	str	r2, [r7, #4]
   8145e:	603b      	str	r3, [r7, #0]
   81460:	460b      	mov	r3, r1
   81462:	72fb      	strb	r3, [r7, #11]
	uint32_t vco_hz;

	Assert(e_src < PLL_NR_SOURCES);

	if (ul_div == 0 && ul_mul == 0) { /* Must only be true for UTMI PLL */
   81464:	687b      	ldr	r3, [r7, #4]
   81466:	2b00      	cmp	r3, #0
   81468:	d107      	bne.n	8147a <pll_config_init+0x26>
   8146a:	683b      	ldr	r3, [r7, #0]
   8146c:	2b00      	cmp	r3, #0
   8146e:	d104      	bne.n	8147a <pll_config_init+0x26>
		p_cfg->ctrl = CKGR_UCKR_UPLLCOUNT(PLL_COUNT);
   81470:	68fb      	ldr	r3, [r7, #12]
   81472:	f44f 0270 	mov.w	r2, #15728640	; 0xf00000
   81476:	601a      	str	r2, [r3, #0]
   81478:	e019      	b.n	814ae <pll_config_init+0x5a>
	} else { /* PLLA */
		/* Calculate internal VCO frequency */
		vco_hz = osc_get_rate(e_src) / ul_div;
   8147a:	7afb      	ldrb	r3, [r7, #11]
   8147c:	4618      	mov	r0, r3
   8147e:	f7ff ff9b 	bl	813b8 <osc_get_rate>
   81482:	4602      	mov	r2, r0
   81484:	687b      	ldr	r3, [r7, #4]
   81486:	fbb2 f3f3 	udiv	r3, r2, r3
   8148a:	617b      	str	r3, [r7, #20]
		Assert(vco_hz >= PLL_INPUT_MIN_HZ);
		Assert(vco_hz <= PLL_INPUT_MAX_HZ);

		vco_hz *= ul_mul;
   8148c:	697b      	ldr	r3, [r7, #20]
   8148e:	683a      	ldr	r2, [r7, #0]
   81490:	fb02 f303 	mul.w	r3, r2, r3
   81494:	617b      	str	r3, [r7, #20]
		Assert(vco_hz >= PLL_OUTPUT_MIN_HZ);
		Assert(vco_hz <= PLL_OUTPUT_MAX_HZ);

		/* PMC hardware will automatically make it mul+1 */
		p_cfg->ctrl = CKGR_PLLAR_MULA(ul_mul - 1) | CKGR_PLLAR_DIVA(ul_div) | CKGR_PLLAR_PLLACOUNT(PLL_COUNT);
   81496:	683b      	ldr	r3, [r7, #0]
   81498:	3b01      	subs	r3, #1
   8149a:	041a      	lsls	r2, r3, #16
   8149c:	4b06      	ldr	r3, [pc, #24]	; (814b8 <pll_config_init+0x64>)
   8149e:	4013      	ands	r3, r2
   814a0:	687a      	ldr	r2, [r7, #4]
   814a2:	b2d2      	uxtb	r2, r2
   814a4:	4313      	orrs	r3, r2
   814a6:	f443 527c 	orr.w	r2, r3, #16128	; 0x3f00
   814aa:	68fb      	ldr	r3, [r7, #12]
   814ac:	601a      	str	r2, [r3, #0]
	}
}
   814ae:	bf00      	nop
   814b0:	3718      	adds	r7, #24
   814b2:	46bd      	mov	sp, r7
   814b4:	bd80      	pop	{r7, pc}
   814b6:	bf00      	nop
   814b8:	07ff0000 	.word	0x07ff0000

000814bc <pll_enable>:
		PMC->CKGR_UCKR = p_cfg->ctrl;
	}
}

static inline void pll_enable(const struct pll_config *p_cfg, uint32_t ul_pll_id)
{
   814bc:	b580      	push	{r7, lr}
   814be:	b082      	sub	sp, #8
   814c0:	af00      	add	r7, sp, #0
   814c2:	6078      	str	r0, [r7, #4]
   814c4:	6039      	str	r1, [r7, #0]
	Assert(ul_pll_id < NR_PLLS);

	if (ul_pll_id == PLLA_ID) {
   814c6:	683b      	ldr	r3, [r7, #0]
   814c8:	2b00      	cmp	r3, #0
   814ca:	d108      	bne.n	814de <pll_enable+0x22>
		pmc_disable_pllack(); // Always stop PLL first!
   814cc:	f000 f9ac 	bl	81828 <pmc_disable_pllack>
		PMC->CKGR_PLLAR = CKGR_PLLAR_ONE | p_cfg->ctrl;
   814d0:	687b      	ldr	r3, [r7, #4]
   814d2:	681b      	ldr	r3, [r3, #0]
   814d4:	4a07      	ldr	r2, [pc, #28]	; (814f4 <pll_enable+0x38>)
   814d6:	f043 5300 	orr.w	r3, r3, #536870912	; 0x20000000
   814da:	6293      	str	r3, [r2, #40]	; 0x28
	} else {
		PMC->CKGR_UCKR = p_cfg->ctrl | CKGR_UCKR_UPLLEN;
	}
}
   814dc:	e005      	b.n	814ea <pll_enable+0x2e>
		PMC->CKGR_UCKR = p_cfg->ctrl | CKGR_UCKR_UPLLEN;
   814de:	687b      	ldr	r3, [r7, #4]
   814e0:	681b      	ldr	r3, [r3, #0]
   814e2:	4a04      	ldr	r2, [pc, #16]	; (814f4 <pll_enable+0x38>)
   814e4:	f443 3380 	orr.w	r3, r3, #65536	; 0x10000
   814e8:	61d3      	str	r3, [r2, #28]
}
   814ea:	bf00      	nop
   814ec:	3708      	adds	r7, #8
   814ee:	46bd      	mov	sp, r7
   814f0:	bd80      	pop	{r7, pc}
   814f2:	bf00      	nop
   814f4:	400e0600 	.word	0x400e0600

000814f8 <pll_is_locked>:
		PMC->CKGR_UCKR &= ~CKGR_UCKR_UPLLEN;
	}
}

static inline uint32_t pll_is_locked(uint32_t ul_pll_id)
{
   814f8:	b580      	push	{r7, lr}
   814fa:	b082      	sub	sp, #8
   814fc:	af00      	add	r7, sp, #0
   814fe:	6078      	str	r0, [r7, #4]
	Assert(ul_pll_id < NR_PLLS);

	if (ul_pll_id == PLLA_ID) {
   81500:	687b      	ldr	r3, [r7, #4]
   81502:	2b00      	cmp	r3, #0
   81504:	d103      	bne.n	8150e <pll_is_locked+0x16>
		return pmc_is_locked_pllack();
   81506:	f000 f99b 	bl	81840 <pmc_is_locked_pllack>
   8150a:	4603      	mov	r3, r0
   8150c:	e002      	b.n	81514 <pll_is_locked+0x1c>
	} else {
		return pmc_is_locked_upll();
   8150e:	f000 f9a3 	bl	81858 <pmc_is_locked_upll>
   81512:	4603      	mov	r3, r0
	}
}
   81514:	4618      	mov	r0, r3
   81516:	3708      	adds	r7, #8
   81518:	46bd      	mov	sp, r7
   8151a:	bd80      	pop	{r7, pc}

0008151c <pll_enable_source>:

static inline void pll_enable_source(enum pll_source e_src)
{
   8151c:	b580      	push	{r7, lr}
   8151e:	b082      	sub	sp, #8
   81520:	af00      	add	r7, sp, #0
   81522:	4603      	mov	r3, r0
   81524:	71fb      	strb	r3, [r7, #7]
	switch (e_src) {
   81526:	79fb      	ldrb	r3, [r7, #7]
   81528:	3b03      	subs	r3, #3
   8152a:	2b04      	cmp	r3, #4
   8152c:	d808      	bhi.n	81540 <pll_enable_source+0x24>
	case PLL_SRC_MAINCK_4M_RC:
	case PLL_SRC_MAINCK_8M_RC:
	case PLL_SRC_MAINCK_12M_RC:
	case PLL_SRC_MAINCK_XTAL:
	case PLL_SRC_MAINCK_BYPASS:
		osc_enable(e_src);
   8152e:	79fb      	ldrb	r3, [r7, #7]
   81530:	4618      	mov	r0, r3
   81532:	f7ff fecf 	bl	812d4 <osc_enable>
		osc_wait_ready(e_src);
   81536:	79fb      	ldrb	r3, [r7, #7]
   81538:	4618      	mov	r0, r3
   8153a:	f7ff ff77 	bl	8142c <osc_wait_ready>
		break;
   8153e:	e000      	b.n	81542 <pll_enable_source+0x26>

	default:
		Assert(false);
		break;
   81540:	bf00      	nop
	}
}
   81542:	bf00      	nop
   81544:	3708      	adds	r7, #8
   81546:	46bd      	mov	sp, r7
   81548:	bd80      	pop	{r7, pc}

0008154a <pll_wait_for_lock>:
 *
 * \retval STATUS_OK The PLL is now locked.
 * \retval ERR_TIMEOUT Timed out waiting for PLL to become locked.
 */
static inline int pll_wait_for_lock(unsigned int pll_id)
{
   8154a:	b580      	push	{r7, lr}
   8154c:	b082      	sub	sp, #8
   8154e:	af00      	add	r7, sp, #0
   81550:	6078      	str	r0, [r7, #4]
	Assert(pll_id < NR_PLLS);

	while (!pll_is_locked(pll_id)) {
   81552:	bf00      	nop
   81554:	6878      	ldr	r0, [r7, #4]
   81556:	f7ff ffcf 	bl	814f8 <pll_is_locked>
   8155a:	4603      	mov	r3, r0
   8155c:	2b00      	cmp	r3, #0
   8155e:	d0f9      	beq.n	81554 <pll_wait_for_lock+0xa>
		/* Do nothing */
	}

	return 0;
   81560:	2300      	movs	r3, #0
}
   81562:	4618      	mov	r0, r3
   81564:	3708      	adds	r7, #8
   81566:	46bd      	mov	sp, r7
   81568:	bd80      	pop	{r7, pc}

0008156a <sysclk_get_main_hz>:
{
   8156a:	b580      	push	{r7, lr}
   8156c:	af00      	add	r7, sp, #0
		return pll_get_default_rate(0);
   8156e:	2006      	movs	r0, #6
   81570:	f7ff ff22 	bl	813b8 <osc_get_rate>
   81574:	4602      	mov	r2, r0
   81576:	4613      	mov	r3, r2
   81578:	00db      	lsls	r3, r3, #3
   8157a:	1a9b      	subs	r3, r3, r2
   8157c:	005b      	lsls	r3, r3, #1
}
   8157e:	4618      	mov	r0, r3
   81580:	bd80      	pop	{r7, pc}

00081582 <sysclk_get_cpu_hz>:
{
   81582:	b580      	push	{r7, lr}
   81584:	af00      	add	r7, sp, #0
	return sysclk_get_main_hz() /
   81586:	f7ff fff0 	bl	8156a <sysclk_get_main_hz>
   8158a:	4603      	mov	r3, r0
   8158c:	085b      	lsrs	r3, r3, #1
}
   8158e:	4618      	mov	r0, r3
   81590:	bd80      	pop	{r7, pc}
	...

00081594 <sysclk_init>:
	pmc_disable_udpck();
}
#endif // CONFIG_USBCLK_SOURCE

void sysclk_init(void)
{
   81594:	b580      	push	{r7, lr}
   81596:	b082      	sub	sp, #8
   81598:	af00      	add	r7, sp, #0
	struct pll_config pllcfg;

	/* Set flash wait state to max in case the below clock switching. */
	system_init_flash(CHIP_FREQ_CPU_MAX);
   8159a:	4811      	ldr	r0, [pc, #68]	; (815e0 <sysclk_init+0x4c>)
   8159c:	f005 fed0 	bl	87340 <__system_init_flash_veneer>
		pmc_switch_mck_to_mainck(CONFIG_SYSCLK_PRES);
	}

#ifdef CONFIG_PLL0_SOURCE
	else if (CONFIG_SYSCLK_SOURCE == SYSCLK_SRC_PLLACK) {
		pll_enable_source(CONFIG_PLL0_SOURCE);
   815a0:	2006      	movs	r0, #6
   815a2:	f7ff ffbb 	bl	8151c <pll_enable_source>
		pll_config_defaults(&pllcfg, 0);
   815a6:	1d38      	adds	r0, r7, #4
   815a8:	230e      	movs	r3, #14
   815aa:	2201      	movs	r2, #1
   815ac:	2106      	movs	r1, #6
   815ae:	f7ff ff51 	bl	81454 <pll_config_init>
		pll_enable(&pllcfg, 0);
   815b2:	1d3b      	adds	r3, r7, #4
   815b4:	2100      	movs	r1, #0
   815b6:	4618      	mov	r0, r3
   815b8:	f7ff ff80 	bl	814bc <pll_enable>
		pll_wait_for_lock(0);
   815bc:	2000      	movs	r0, #0
   815be:	f7ff ffc4 	bl	8154a <pll_wait_for_lock>
		pmc_switch_mck_to_pllack(CONFIG_SYSCLK_PRES);
   815c2:	2010      	movs	r0, #16
   815c4:	f000 f83a 	bl	8163c <pmc_switch_mck_to_pllack>
		pll_wait_for_lock(1);
		pmc_switch_mck_to_upllck(CONFIG_SYSCLK_PRES);
	}

	/* Update the SystemFrequency variable */
	SystemCoreClockUpdate();
   815c8:	f7ff fd70 	bl	810ac <SystemCoreClockUpdate>

	/* Set a flash wait state depending on the new cpu frequency */
	system_init_flash(sysclk_get_cpu_hz());
   815cc:	f7ff ffd9 	bl	81582 <sysclk_get_cpu_hz>
   815d0:	4603      	mov	r3, r0
   815d2:	4618      	mov	r0, r3
   815d4:	f005 feb4 	bl	87340 <__system_init_flash_veneer>

#if (defined CONFIG_SYSCLK_DEFAULT_RETURNS_SLOW_OSC)
	/* Signal that the internal frequencies are setup */
	sysclk_initialized = 1;
#endif
}
   815d8:	bf00      	nop
   815da:	3708      	adds	r7, #8
   815dc:	46bd      	mov	sp, r7
   815de:	bd80      	pop	{r7, pc}
   815e0:	0501bd00 	.word	0x0501bd00

000815e4 <_sbrk>:
extern void _exit(int status);
extern void _kill(int pid, int sig);
extern int _getpid(void);

extern caddr_t _sbrk(int incr)
{
   815e4:	b480      	push	{r7}
   815e6:	b085      	sub	sp, #20
   815e8:	af00      	add	r7, sp, #0
   815ea:	6078      	str	r0, [r7, #4]
	static unsigned char *heap = NULL;
	unsigned char *prev_heap;
	int ramend = (int)&__ram_end__;
   815ec:	4b10      	ldr	r3, [pc, #64]	; (81630 <_sbrk+0x4c>)
   815ee:	60fb      	str	r3, [r7, #12]

	if (heap == NULL) {
   815f0:	4b10      	ldr	r3, [pc, #64]	; (81634 <_sbrk+0x50>)
   815f2:	681b      	ldr	r3, [r3, #0]
   815f4:	2b00      	cmp	r3, #0
   815f6:	d102      	bne.n	815fe <_sbrk+0x1a>
		heap = (unsigned char *)&_end;
   815f8:	4b0e      	ldr	r3, [pc, #56]	; (81634 <_sbrk+0x50>)
   815fa:	4a0f      	ldr	r2, [pc, #60]	; (81638 <_sbrk+0x54>)
   815fc:	601a      	str	r2, [r3, #0]
	}
	prev_heap = heap;
   815fe:	4b0d      	ldr	r3, [pc, #52]	; (81634 <_sbrk+0x50>)
   81600:	681b      	ldr	r3, [r3, #0]
   81602:	60bb      	str	r3, [r7, #8]

	if (((int)prev_heap + incr) > ramend) {
   81604:	68ba      	ldr	r2, [r7, #8]
   81606:	687b      	ldr	r3, [r7, #4]
   81608:	4413      	add	r3, r2
   8160a:	68fa      	ldr	r2, [r7, #12]
   8160c:	429a      	cmp	r2, r3
   8160e:	da02      	bge.n	81616 <_sbrk+0x32>
		return (caddr_t) -1;	
   81610:	f04f 33ff 	mov.w	r3, #4294967295	; 0xffffffff
   81614:	e006      	b.n	81624 <_sbrk+0x40>
	}

	heap += incr;
   81616:	4b07      	ldr	r3, [pc, #28]	; (81634 <_sbrk+0x50>)
   81618:	681a      	ldr	r2, [r3, #0]
   8161a:	687b      	ldr	r3, [r7, #4]
   8161c:	4413      	add	r3, r2
   8161e:	4a05      	ldr	r2, [pc, #20]	; (81634 <_sbrk+0x50>)
   81620:	6013      	str	r3, [r2, #0]

	return (caddr_t) prev_heap;
   81622:	68bb      	ldr	r3, [r7, #8]
}
   81624:	4618      	mov	r0, r3
   81626:	3714      	adds	r7, #20
   81628:	46bd      	mov	sp, r7
   8162a:	bc80      	pop	{r7}
   8162c:	4770      	bx	lr
   8162e:	bf00      	nop
   81630:	20087ffc 	.word	0x20087ffc
   81634:	20070b9c 	.word	0x20070b9c
   81638:	20072bd8 	.word	0x20072bd8

0008163c <pmc_switch_mck_to_pllack>:
 *
 * \retval 0 Success.
 * \retval 1 Timeout error.
 */
uint32_t pmc_switch_mck_to_pllack(uint32_t ul_pres)
{
   8163c:	b480      	push	{r7}
   8163e:	b085      	sub	sp, #20
   81640:	af00      	add	r7, sp, #0
   81642:	6078      	str	r0, [r7, #4]
	uint32_t ul_timeout;

	PMC->PMC_MCKR = (PMC->PMC_MCKR & (~PMC_MCKR_PRES_Msk)) | ul_pres;
   81644:	4b1c      	ldr	r3, [pc, #112]	; (816b8 <pmc_switch_mck_to_pllack+0x7c>)
   81646:	6b1b      	ldr	r3, [r3, #48]	; 0x30
   81648:	f023 0270 	bic.w	r2, r3, #112	; 0x70
   8164c:	491a      	ldr	r1, [pc, #104]	; (816b8 <pmc_switch_mck_to_pllack+0x7c>)
   8164e:	687b      	ldr	r3, [r7, #4]
   81650:	4313      	orrs	r3, r2
   81652:	630b      	str	r3, [r1, #48]	; 0x30
	for (ul_timeout = PMC_TIMEOUT; !(PMC->PMC_SR & PMC_SR_MCKRDY);
   81654:	f44f 6300 	mov.w	r3, #2048	; 0x800
   81658:	60fb      	str	r3, [r7, #12]
   8165a:	e007      	b.n	8166c <pmc_switch_mck_to_pllack+0x30>
			--ul_timeout) {
		if (ul_timeout == 0) {
   8165c:	68fb      	ldr	r3, [r7, #12]
   8165e:	2b00      	cmp	r3, #0
   81660:	d101      	bne.n	81666 <pmc_switch_mck_to_pllack+0x2a>
			return 1;
   81662:	2301      	movs	r3, #1
   81664:	e023      	b.n	816ae <pmc_switch_mck_to_pllack+0x72>
			--ul_timeout) {
   81666:	68fb      	ldr	r3, [r7, #12]
   81668:	3b01      	subs	r3, #1
   8166a:	60fb      	str	r3, [r7, #12]
	for (ul_timeout = PMC_TIMEOUT; !(PMC->PMC_SR & PMC_SR_MCKRDY);
   8166c:	4b12      	ldr	r3, [pc, #72]	; (816b8 <pmc_switch_mck_to_pllack+0x7c>)
   8166e:	6e9b      	ldr	r3, [r3, #104]	; 0x68
   81670:	f003 0308 	and.w	r3, r3, #8
   81674:	2b00      	cmp	r3, #0
   81676:	d0f1      	beq.n	8165c <pmc_switch_mck_to_pllack+0x20>
		}
	}

	PMC->PMC_MCKR = (PMC->PMC_MCKR & (~PMC_MCKR_CSS_Msk)) |
   81678:	4b0f      	ldr	r3, [pc, #60]	; (816b8 <pmc_switch_mck_to_pllack+0x7c>)
   8167a:	6b1b      	ldr	r3, [r3, #48]	; 0x30
   8167c:	f023 0303 	bic.w	r3, r3, #3
   81680:	4a0d      	ldr	r2, [pc, #52]	; (816b8 <pmc_switch_mck_to_pllack+0x7c>)
   81682:	f043 0302 	orr.w	r3, r3, #2
   81686:	6313      	str	r3, [r2, #48]	; 0x30
			PMC_MCKR_CSS_PLLA_CLK;

	for (ul_timeout = PMC_TIMEOUT; !(PMC->PMC_SR & PMC_SR_MCKRDY);
   81688:	f44f 6300 	mov.w	r3, #2048	; 0x800
   8168c:	60fb      	str	r3, [r7, #12]
   8168e:	e007      	b.n	816a0 <pmc_switch_mck_to_pllack+0x64>
			--ul_timeout) {
		if (ul_timeout == 0) {
   81690:	68fb      	ldr	r3, [r7, #12]
   81692:	2b00      	cmp	r3, #0
   81694:	d101      	bne.n	8169a <pmc_switch_mck_to_pllack+0x5e>
			return 1;
   81696:	2301      	movs	r3, #1
   81698:	e009      	b.n	816ae <pmc_switch_mck_to_pllack+0x72>
			--ul_timeout) {
   8169a:	68fb      	ldr	r3, [r7, #12]
   8169c:	3b01      	subs	r3, #1
   8169e:	60fb      	str	r3, [r7, #12]
	for (ul_timeout = PMC_TIMEOUT; !(PMC->PMC_SR & PMC_SR_MCKRDY);
   816a0:	4b05      	ldr	r3, [pc, #20]	; (816b8 <pmc_switch_mck_to_pllack+0x7c>)
   816a2:	6e9b      	ldr	r3, [r3, #104]	; 0x68
   816a4:	f003 0308 	and.w	r3, r3, #8
   816a8:	2b00      	cmp	r3, #0
   816aa:	d0f1      	beq.n	81690 <pmc_switch_mck_to_pllack+0x54>
		}
	}

	return 0;
   816ac:	2300      	movs	r3, #0
}
   816ae:	4618      	mov	r0, r3
   816b0:	3714      	adds	r7, #20
   816b2:	46bd      	mov	sp, r7
   816b4:	bc80      	pop	{r7}
   816b6:	4770      	bx	lr
   816b8:	400e0600 	.word	0x400e0600

000816bc <pmc_switch_sclk_to_32kxtal>:
 *       VDDIO power supply.
 *
 * \param ul_bypass 0 for Xtal, 1 for bypass.
 */
void pmc_switch_sclk_to_32kxtal(uint32_t ul_bypass)
{
   816bc:	b480      	push	{r7}
   816be:	b083      	sub	sp, #12
   816c0:	af00      	add	r7, sp, #0
   816c2:	6078      	str	r0, [r7, #4]
	/* Set Bypass mode if required */
	if (ul_bypass == 1) {
   816c4:	687b      	ldr	r3, [r7, #4]
   816c6:	2b01      	cmp	r3, #1
   816c8:	d107      	bne.n	816da <pmc_switch_sclk_to_32kxtal+0x1e>
		SUPC->SUPC_MR |= SUPC_MR_KEY_PASSWD |
   816ca:	4b08      	ldr	r3, [pc, #32]	; (816ec <pmc_switch_sclk_to_32kxtal+0x30>)
   816cc:	689b      	ldr	r3, [r3, #8]
   816ce:	4a07      	ldr	r2, [pc, #28]	; (816ec <pmc_switch_sclk_to_32kxtal+0x30>)
   816d0:	f043 4325 	orr.w	r3, r3, #2768240640	; 0xa5000000
   816d4:	f443 1380 	orr.w	r3, r3, #1048576	; 0x100000
   816d8:	6093      	str	r3, [r2, #8]
			SUPC_MR_OSCBYPASS;
	}

	SUPC->SUPC_CR = SUPC_CR_KEY_PASSWD | SUPC_CR_XTALSEL;
   816da:	4b04      	ldr	r3, [pc, #16]	; (816ec <pmc_switch_sclk_to_32kxtal+0x30>)
   816dc:	4a04      	ldr	r2, [pc, #16]	; (816f0 <pmc_switch_sclk_to_32kxtal+0x34>)
   816de:	601a      	str	r2, [r3, #0]
}
   816e0:	bf00      	nop
   816e2:	370c      	adds	r7, #12
   816e4:	46bd      	mov	sp, r7
   816e6:	bc80      	pop	{r7}
   816e8:	4770      	bx	lr
   816ea:	bf00      	nop
   816ec:	400e1a10 	.word	0x400e1a10
   816f0:	a5000008 	.word	0xa5000008

000816f4 <pmc_osc_is_ready_32kxtal>:
 *
 * \retval 1 External 32k Xtal is ready.
 * \retval 0 External 32k Xtal is not ready.
 */
uint32_t pmc_osc_is_ready_32kxtal(void)
{
   816f4:	b480      	push	{r7}
   816f6:	af00      	add	r7, sp, #0
	return ((SUPC->SUPC_SR & SUPC_SR_OSCSEL)
   816f8:	4b09      	ldr	r3, [pc, #36]	; (81720 <pmc_osc_is_ready_32kxtal+0x2c>)
   816fa:	695b      	ldr	r3, [r3, #20]
   816fc:	f003 0380 	and.w	r3, r3, #128	; 0x80
			&& (PMC->PMC_SR & PMC_SR_OSCSELS));
   81700:	2b00      	cmp	r3, #0
   81702:	d007      	beq.n	81714 <pmc_osc_is_ready_32kxtal+0x20>
   81704:	4b07      	ldr	r3, [pc, #28]	; (81724 <pmc_osc_is_ready_32kxtal+0x30>)
   81706:	6e9b      	ldr	r3, [r3, #104]	; 0x68
   81708:	f003 0380 	and.w	r3, r3, #128	; 0x80
   8170c:	2b00      	cmp	r3, #0
   8170e:	d001      	beq.n	81714 <pmc_osc_is_ready_32kxtal+0x20>
   81710:	2301      	movs	r3, #1
   81712:	e000      	b.n	81716 <pmc_osc_is_ready_32kxtal+0x22>
   81714:	2300      	movs	r3, #0
}
   81716:	4618      	mov	r0, r3
   81718:	46bd      	mov	sp, r7
   8171a:	bc80      	pop	{r7}
   8171c:	4770      	bx	lr
   8171e:	bf00      	nop
   81720:	400e1a10 	.word	0x400e1a10
   81724:	400e0600 	.word	0x400e0600

00081728 <pmc_switch_mainck_to_fastrc>:
 * \retval 0 Success.
 * \retval 1 Timeout error.
 * \retval 2 Invalid frequency.
 */
void pmc_switch_mainck_to_fastrc(uint32_t ul_moscrcf)
{
   81728:	b480      	push	{r7}
   8172a:	b083      	sub	sp, #12
   8172c:	af00      	add	r7, sp, #0
   8172e:	6078      	str	r0, [r7, #4]
	/* Enable Fast RC oscillator but DO NOT switch to RC now */
	PMC->CKGR_MOR |= (CKGR_MOR_KEY_PASSWD | CKGR_MOR_MOSCRCEN);
   81730:	4b18      	ldr	r3, [pc, #96]	; (81794 <pmc_switch_mainck_to_fastrc+0x6c>)
   81732:	6a1b      	ldr	r3, [r3, #32]
   81734:	4a17      	ldr	r2, [pc, #92]	; (81794 <pmc_switch_mainck_to_fastrc+0x6c>)
   81736:	f443 135c 	orr.w	r3, r3, #3604480	; 0x370000
   8173a:	f043 0308 	orr.w	r3, r3, #8
   8173e:	6213      	str	r3, [r2, #32]

	/* Wait the Fast RC to stabilize */
	while (!(PMC->PMC_SR & PMC_SR_MOSCRCS));
   81740:	bf00      	nop
   81742:	4b14      	ldr	r3, [pc, #80]	; (81794 <pmc_switch_mainck_to_fastrc+0x6c>)
   81744:	6e9b      	ldr	r3, [r3, #104]	; 0x68
   81746:	f403 3300 	and.w	r3, r3, #131072	; 0x20000
   8174a:	2b00      	cmp	r3, #0
   8174c:	d0f9      	beq.n	81742 <pmc_switch_mainck_to_fastrc+0x1a>

	/* Change Fast RC oscillator frequency */
	PMC->CKGR_MOR = (PMC->CKGR_MOR & ~CKGR_MOR_MOSCRCF_Msk) |
   8174e:	4b11      	ldr	r3, [pc, #68]	; (81794 <pmc_switch_mainck_to_fastrc+0x6c>)
   81750:	6a1b      	ldr	r3, [r3, #32]
   81752:	f423 135c 	bic.w	r3, r3, #3604480	; 0x370000
   81756:	f023 0370 	bic.w	r3, r3, #112	; 0x70
			CKGR_MOR_KEY_PASSWD | ul_moscrcf;
   8175a:	687a      	ldr	r2, [r7, #4]
   8175c:	4313      	orrs	r3, r2
	PMC->CKGR_MOR = (PMC->CKGR_MOR & ~CKGR_MOR_MOSCRCF_Msk) |
   8175e:	4a0d      	ldr	r2, [pc, #52]	; (81794 <pmc_switch_mainck_to_fastrc+0x6c>)
			CKGR_MOR_KEY_PASSWD | ul_moscrcf;
   81760:	f443 135c 	orr.w	r3, r3, #3604480	; 0x370000
	PMC->CKGR_MOR = (PMC->CKGR_MOR & ~CKGR_MOR_MOSCRCF_Msk) |
   81764:	6213      	str	r3, [r2, #32]

	/* Wait the Fast RC to stabilize */
	while (!(PMC->PMC_SR & PMC_SR_MOSCRCS));
   81766:	bf00      	nop
   81768:	4b0a      	ldr	r3, [pc, #40]	; (81794 <pmc_switch_mainck_to_fastrc+0x6c>)
   8176a:	6e9b      	ldr	r3, [r3, #104]	; 0x68
   8176c:	f403 3300 	and.w	r3, r3, #131072	; 0x20000
   81770:	2b00      	cmp	r3, #0
   81772:	d0f9      	beq.n	81768 <pmc_switch_mainck_to_fastrc+0x40>

	/* Switch to Fast RC */
	PMC->CKGR_MOR = (PMC->CKGR_MOR & ~CKGR_MOR_MOSCSEL) |
   81774:	4b07      	ldr	r3, [pc, #28]	; (81794 <pmc_switch_mainck_to_fastrc+0x6c>)
   81776:	6a1b      	ldr	r3, [r3, #32]
   81778:	f023 739b 	bic.w	r3, r3, #20316160	; 0x1360000
   8177c:	f423 3380 	bic.w	r3, r3, #65536	; 0x10000
   81780:	4a04      	ldr	r2, [pc, #16]	; (81794 <pmc_switch_mainck_to_fastrc+0x6c>)
   81782:	f443 135c 	orr.w	r3, r3, #3604480	; 0x370000
   81786:	6213      	str	r3, [r2, #32]
			CKGR_MOR_KEY_PASSWD;
}
   81788:	bf00      	nop
   8178a:	370c      	adds	r7, #12
   8178c:	46bd      	mov	sp, r7
   8178e:	bc80      	pop	{r7}
   81790:	4770      	bx	lr
   81792:	bf00      	nop
   81794:	400e0600 	.word	0x400e0600

00081798 <pmc_switch_mainck_to_xtal>:
 * \retval 0 Success.
 * \retval 1 Timeout error.
 */
void pmc_switch_mainck_to_xtal(uint32_t ul_bypass,
		uint32_t ul_xtal_startup_time)
{
   81798:	b480      	push	{r7}
   8179a:	b083      	sub	sp, #12
   8179c:	af00      	add	r7, sp, #0
   8179e:	6078      	str	r0, [r7, #4]
   817a0:	6039      	str	r1, [r7, #0]
	/* Enable Main Xtal oscillator */
	if (ul_bypass) {
   817a2:	687b      	ldr	r3, [r7, #4]
   817a4:	2b00      	cmp	r3, #0
   817a6:	d008      	beq.n	817ba <pmc_switch_mainck_to_xtal+0x22>
		PMC->CKGR_MOR = (PMC->CKGR_MOR & ~CKGR_MOR_MOSCXTEN) |
   817a8:	4b16      	ldr	r3, [pc, #88]	; (81804 <pmc_switch_mainck_to_xtal+0x6c>)
   817aa:	6a1b      	ldr	r3, [r3, #32]
				CKGR_MOR_KEY_PASSWD | CKGR_MOR_MOSCXTBY |
   817ac:	4a16      	ldr	r2, [pc, #88]	; (81808 <pmc_switch_mainck_to_xtal+0x70>)
   817ae:	401a      	ands	r2, r3
		PMC->CKGR_MOR = (PMC->CKGR_MOR & ~CKGR_MOR_MOSCXTEN) |
   817b0:	4914      	ldr	r1, [pc, #80]	; (81804 <pmc_switch_mainck_to_xtal+0x6c>)
				CKGR_MOR_KEY_PASSWD | CKGR_MOR_MOSCXTBY |
   817b2:	4b16      	ldr	r3, [pc, #88]	; (8180c <pmc_switch_mainck_to_xtal+0x74>)
   817b4:	4313      	orrs	r3, r2
		PMC->CKGR_MOR = (PMC->CKGR_MOR & ~CKGR_MOR_MOSCXTEN) |
   817b6:	620b      	str	r3, [r1, #32]
		/* Wait the Xtal to stabilize */
		while (!(PMC->PMC_SR & PMC_SR_MOSCXTS));

		PMC->CKGR_MOR |= CKGR_MOR_KEY_PASSWD | CKGR_MOR_MOSCSEL;
	}
}
   817b8:	e01e      	b.n	817f8 <pmc_switch_mainck_to_xtal+0x60>
		PMC->CKGR_MOR = (PMC->CKGR_MOR & ~CKGR_MOR_MOSCXTBY) |
   817ba:	4b12      	ldr	r3, [pc, #72]	; (81804 <pmc_switch_mainck_to_xtal+0x6c>)
   817bc:	6a1b      	ldr	r3, [r3, #32]
				CKGR_MOR_KEY_PASSWD | CKGR_MOR_MOSCXTEN |
   817be:	f423 135c 	bic.w	r3, r3, #3604480	; 0x370000
   817c2:	f023 0303 	bic.w	r3, r3, #3
				CKGR_MOR_MOSCXTST(ul_xtal_startup_time);
   817c6:	683a      	ldr	r2, [r7, #0]
   817c8:	0212      	lsls	r2, r2, #8
   817ca:	b292      	uxth	r2, r2
				CKGR_MOR_KEY_PASSWD | CKGR_MOR_MOSCXTEN |
   817cc:	4313      	orrs	r3, r2
		PMC->CKGR_MOR = (PMC->CKGR_MOR & ~CKGR_MOR_MOSCXTBY) |
   817ce:	4a0d      	ldr	r2, [pc, #52]	; (81804 <pmc_switch_mainck_to_xtal+0x6c>)
				CKGR_MOR_KEY_PASSWD | CKGR_MOR_MOSCXTEN |
   817d0:	f443 135c 	orr.w	r3, r3, #3604480	; 0x370000
   817d4:	f043 0301 	orr.w	r3, r3, #1
		PMC->CKGR_MOR = (PMC->CKGR_MOR & ~CKGR_MOR_MOSCXTBY) |
   817d8:	6213      	str	r3, [r2, #32]
		while (!(PMC->PMC_SR & PMC_SR_MOSCXTS));
   817da:	bf00      	nop
   817dc:	4b09      	ldr	r3, [pc, #36]	; (81804 <pmc_switch_mainck_to_xtal+0x6c>)
   817de:	6e9b      	ldr	r3, [r3, #104]	; 0x68
   817e0:	f003 0301 	and.w	r3, r3, #1
   817e4:	2b00      	cmp	r3, #0
   817e6:	d0f9      	beq.n	817dc <pmc_switch_mainck_to_xtal+0x44>
		PMC->CKGR_MOR |= CKGR_MOR_KEY_PASSWD | CKGR_MOR_MOSCSEL;
   817e8:	4b06      	ldr	r3, [pc, #24]	; (81804 <pmc_switch_mainck_to_xtal+0x6c>)
   817ea:	6a1b      	ldr	r3, [r3, #32]
   817ec:	4a05      	ldr	r2, [pc, #20]	; (81804 <pmc_switch_mainck_to_xtal+0x6c>)
   817ee:	f043 739b 	orr.w	r3, r3, #20316160	; 0x1360000
   817f2:	f443 3380 	orr.w	r3, r3, #65536	; 0x10000
   817f6:	6213      	str	r3, [r2, #32]
}
   817f8:	bf00      	nop
   817fa:	370c      	adds	r7, #12
   817fc:	46bd      	mov	sp, r7
   817fe:	bc80      	pop	{r7}
   81800:	4770      	bx	lr
   81802:	bf00      	nop
   81804:	400e0600 	.word	0x400e0600
   81808:	fec8fffc 	.word	0xfec8fffc
   8180c:	01370002 	.word	0x01370002

00081810 <pmc_osc_is_ready_mainck>:
 *
 * \retval 1 Xtal is ready.
 * \retval 0 Xtal is not ready.
 */
uint32_t pmc_osc_is_ready_mainck(void)
{
   81810:	b480      	push	{r7}
   81812:	af00      	add	r7, sp, #0
	return PMC->PMC_SR & PMC_SR_MOSCSELS;
   81814:	4b03      	ldr	r3, [pc, #12]	; (81824 <pmc_osc_is_ready_mainck+0x14>)
   81816:	6e9b      	ldr	r3, [r3, #104]	; 0x68
   81818:	f403 3380 	and.w	r3, r3, #65536	; 0x10000
}
   8181c:	4618      	mov	r0, r3
   8181e:	46bd      	mov	sp, r7
   81820:	bc80      	pop	{r7}
   81822:	4770      	bx	lr
   81824:	400e0600 	.word	0x400e0600

00081828 <pmc_disable_pllack>:

/**
 * \brief Disable PLLA clock.
 */
void pmc_disable_pllack(void)
{
   81828:	b480      	push	{r7}
   8182a:	af00      	add	r7, sp, #0
#if (SAM4C || SAM4CM || SAM4CP || SAMG)
	PMC->CKGR_PLLAR = CKGR_PLLAR_MULA(0);
#else
	PMC->CKGR_PLLAR = CKGR_PLLAR_ONE | CKGR_PLLAR_MULA(0);
   8182c:	4b03      	ldr	r3, [pc, #12]	; (8183c <pmc_disable_pllack+0x14>)
   8182e:	f04f 5200 	mov.w	r2, #536870912	; 0x20000000
   81832:	629a      	str	r2, [r3, #40]	; 0x28
#endif
}
   81834:	bf00      	nop
   81836:	46bd      	mov	sp, r7
   81838:	bc80      	pop	{r7}
   8183a:	4770      	bx	lr
   8183c:	400e0600 	.word	0x400e0600

00081840 <pmc_is_locked_pllack>:
 *
 * \retval 0 Not locked.
 * \retval 1 Locked.
 */
uint32_t pmc_is_locked_pllack(void)
{
   81840:	b480      	push	{r7}
   81842:	af00      	add	r7, sp, #0
	return (PMC->PMC_SR & PMC_SR_LOCKA);
   81844:	4b03      	ldr	r3, [pc, #12]	; (81854 <pmc_is_locked_pllack+0x14>)
   81846:	6e9b      	ldr	r3, [r3, #104]	; 0x68
   81848:	f003 0302 	and.w	r3, r3, #2
}
   8184c:	4618      	mov	r0, r3
   8184e:	46bd      	mov	sp, r7
   81850:	bc80      	pop	{r7}
   81852:	4770      	bx	lr
   81854:	400e0600 	.word	0x400e0600

00081858 <pmc_is_locked_upll>:
 *
 * \retval 0 Not locked.
 * \retval 1 Locked.
 */
uint32_t pmc_is_locked_upll(void)
{
   81858:	b480      	push	{r7}
   8185a:	af00      	add	r7, sp, #0
	return (PMC->PMC_SR & PMC_SR_LOCKU);
   8185c:	4b03      	ldr	r3, [pc, #12]	; (8186c <pmc_is_locked_upll+0x14>)
   8185e:	6e9b      	ldr	r3, [r3, #104]	; 0x68
   81860:	f003 0340 	and.w	r3, r3, #64	; 0x40
}
   81864:	4618      	mov	r0, r3
   81866:	46bd      	mov	sp, r7
   81868:	bc80      	pop	{r7}
   8186a:	4770      	bx	lr
   8186c:	400e0600 	.word	0x400e0600

00081870 <pmc_enable_periph_clk>:
 *
 * \retval 0 Success.
 * \retval 1 Invalid parameter.
 */
uint32_t pmc_enable_periph_clk(uint32_t ul_id)
{
   81870:	b480      	push	{r7}
   81872:	b083      	sub	sp, #12
   81874:	af00      	add	r7, sp, #0
   81876:	6078      	str	r0, [r7, #4]
	if (ul_id > MAX_PERIPH_ID) {
   81878:	687b      	ldr	r3, [r7, #4]
   8187a:	2b2c      	cmp	r3, #44	; 0x2c
   8187c:	d901      	bls.n	81882 <pmc_enable_periph_clk+0x12>
		return 1;
   8187e:	2301      	movs	r3, #1
   81880:	e02d      	b.n	818de <pmc_enable_periph_clk+0x6e>
	}

	if (ul_id < 32) {
   81882:	687b      	ldr	r3, [r7, #4]
   81884:	2b1f      	cmp	r3, #31
   81886:	d812      	bhi.n	818ae <pmc_enable_periph_clk+0x3e>
		if ((PMC->PMC_PCSR0 & (1u << ul_id)) != (1u << ul_id)) {
   81888:	4b17      	ldr	r3, [pc, #92]	; (818e8 <pmc_enable_periph_clk+0x78>)
   8188a:	699a      	ldr	r2, [r3, #24]
   8188c:	2101      	movs	r1, #1
   8188e:	687b      	ldr	r3, [r7, #4]
   81890:	fa01 f303 	lsl.w	r3, r1, r3
   81894:	401a      	ands	r2, r3
   81896:	2101      	movs	r1, #1
   81898:	687b      	ldr	r3, [r7, #4]
   8189a:	fa01 f303 	lsl.w	r3, r1, r3
   8189e:	429a      	cmp	r2, r3
   818a0:	d01c      	beq.n	818dc <pmc_enable_periph_clk+0x6c>
			PMC->PMC_PCER0 = 1 << ul_id;
   818a2:	2201      	movs	r2, #1
   818a4:	687b      	ldr	r3, [r7, #4]
   818a6:	409a      	lsls	r2, r3
   818a8:	4b0f      	ldr	r3, [pc, #60]	; (818e8 <pmc_enable_periph_clk+0x78>)
   818aa:	611a      	str	r2, [r3, #16]
   818ac:	e016      	b.n	818dc <pmc_enable_periph_clk+0x6c>
		}
#if (SAM3S || SAM3XA || SAM4S || SAM4E || SAM4C || SAM4CM || SAM4CP || SAMG55 || SAMV71 || SAMV70 || SAME70 || SAMS70)
	} else {
		ul_id -= 32;
   818ae:	687b      	ldr	r3, [r7, #4]
   818b0:	3b20      	subs	r3, #32
   818b2:	607b      	str	r3, [r7, #4]
		if ((PMC->PMC_PCSR1 & (1u << ul_id)) != (1u << ul_id)) {
   818b4:	4b0c      	ldr	r3, [pc, #48]	; (818e8 <pmc_enable_periph_clk+0x78>)
   818b6:	f8d3 2108 	ldr.w	r2, [r3, #264]	; 0x108
   818ba:	2101      	movs	r1, #1
   818bc:	687b      	ldr	r3, [r7, #4]
   818be:	fa01 f303 	lsl.w	r3, r1, r3
   818c2:	401a      	ands	r2, r3
   818c4:	2101      	movs	r1, #1
   818c6:	687b      	ldr	r3, [r7, #4]
   818c8:	fa01 f303 	lsl.w	r3, r1, r3
   818cc:	429a      	cmp	r2, r3
   818ce:	d005      	beq.n	818dc <pmc_enable_periph_clk+0x6c>
			PMC->PMC_PCER1 = 1 << ul_id;
   818d0:	2201      	movs	r2, #1
   818d2:	687b      	ldr	r3, [r7, #4]
   818d4:	409a      	lsls	r2, r3
   818d6:	4b04      	ldr	r3, [pc, #16]	; (818e8 <pmc_enable_periph_clk+0x78>)
   818d8:	f8c3 2100 	str.w	r2, [r3, #256]	; 0x100
		}
#endif
	}

	return 0;
   818dc:	2300      	movs	r3, #0
}
   818de:	4618      	mov	r0, r3
   818e0:	370c      	adds	r7, #12
   818e2:	46bd      	mov	sp, r7
   818e4:	bc80      	pop	{r7}
   818e6:	4770      	bx	lr
   818e8:	400e0600 	.word	0x400e0600

000818ec <pio_set_peripheral>:
 * \param ul_type PIO type.
 * \param ul_mask Bitmask of one or more pin(s) to configure.
 */
void pio_set_peripheral(Pio *p_pio, const pio_type_t ul_type,
		const uint32_t ul_mask)
{
   818ec:	b480      	push	{r7}
   818ee:	b087      	sub	sp, #28
   818f0:	af00      	add	r7, sp, #0
   818f2:	60f8      	str	r0, [r7, #12]
   818f4:	60b9      	str	r1, [r7, #8]
   818f6:	607a      	str	r2, [r7, #4]
	uint32_t ul_sr;

	/* Disable interrupts on the pin(s) */
	p_pio->PIO_IDR = ul_mask;
   818f8:	68fb      	ldr	r3, [r7, #12]
   818fa:	687a      	ldr	r2, [r7, #4]
   818fc:	645a      	str	r2, [r3, #68]	; 0x44
	case PIO_OUTPUT_1:
	case PIO_NOT_A_PIN:
		return;
	}
#elif (SAM3XA|| SAM3U)
	switch (ul_type) {
   818fe:	68bb      	ldr	r3, [r7, #8]
   81900:	f1b3 5f80 	cmp.w	r3, #268435456	; 0x10000000
   81904:	d01f      	beq.n	81946 <pio_set_peripheral+0x5a>
   81906:	f1b3 5f80 	cmp.w	r3, #268435456	; 0x10000000
   8190a:	d805      	bhi.n	81918 <pio_set_peripheral+0x2c>
   8190c:	2b00      	cmp	r3, #0
   8190e:	d027      	beq.n	81960 <pio_set_peripheral+0x74>
   81910:	f1b3 6f00 	cmp.w	r3, #134217728	; 0x8000000
   81914:	d00a      	beq.n	8192c <pio_set_peripheral+0x40>
   81916:	e01f      	b.n	81958 <pio_set_peripheral+0x6c>
   81918:	f1b3 5f40 	cmp.w	r3, #805306368	; 0x30000000
   8191c:	d020      	beq.n	81960 <pio_set_peripheral+0x74>
   8191e:	f1b3 5f60 	cmp.w	r3, #939524096	; 0x38000000
   81922:	d01d      	beq.n	81960 <pio_set_peripheral+0x74>
   81924:	f1b3 5f20 	cmp.w	r3, #671088640	; 0x28000000
   81928:	d01a      	beq.n	81960 <pio_set_peripheral+0x74>
   8192a:	e015      	b.n	81958 <pio_set_peripheral+0x6c>
	case PIO_PERIPH_A:
		ul_sr = p_pio->PIO_ABSR;
   8192c:	68fb      	ldr	r3, [r7, #12]
   8192e:	6f1b      	ldr	r3, [r3, #112]	; 0x70
   81930:	617b      	str	r3, [r7, #20]
		p_pio->PIO_ABSR &= (~ul_mask & ul_sr);
   81932:	68fb      	ldr	r3, [r7, #12]
   81934:	6f1a      	ldr	r2, [r3, #112]	; 0x70
   81936:	687b      	ldr	r3, [r7, #4]
   81938:	43d9      	mvns	r1, r3
   8193a:	697b      	ldr	r3, [r7, #20]
   8193c:	400b      	ands	r3, r1
   8193e:	401a      	ands	r2, r3
   81940:	68fb      	ldr	r3, [r7, #12]
   81942:	671a      	str	r2, [r3, #112]	; 0x70
		break;
   81944:	e008      	b.n	81958 <pio_set_peripheral+0x6c>

	case PIO_PERIPH_B:
		ul_sr = p_pio->PIO_ABSR;
   81946:	68fb      	ldr	r3, [r7, #12]
   81948:	6f1b      	ldr	r3, [r3, #112]	; 0x70
   8194a:	617b      	str	r3, [r7, #20]
		p_pio->PIO_ABSR = (ul_mask | ul_sr);
   8194c:	687a      	ldr	r2, [r7, #4]
   8194e:	697b      	ldr	r3, [r7, #20]
   81950:	431a      	orrs	r2, r3
   81952:	68fb      	ldr	r3, [r7, #12]
   81954:	671a      	str	r2, [r3, #112]	; 0x70
		break;
   81956:	bf00      	nop
#else
#error "Unsupported device"
#endif

	/* Remove the pins from under the control of PIO */
	p_pio->PIO_PDR = ul_mask;
   81958:	68fb      	ldr	r3, [r7, #12]
   8195a:	687a      	ldr	r2, [r7, #4]
   8195c:	605a      	str	r2, [r3, #4]
   8195e:	e000      	b.n	81962 <pio_set_peripheral+0x76>
		return;
   81960:	bf00      	nop
}
   81962:	371c      	adds	r7, #28
   81964:	46bd      	mov	sp, r7
   81966:	bc80      	pop	{r7}
   81968:	4770      	bx	lr

0008196a <tc_init>:
 */
void tc_init(
		Tc *p_tc,
		uint32_t ul_channel,
		uint32_t ul_mode)
{
   8196a:	b480      	push	{r7}
   8196c:	b087      	sub	sp, #28
   8196e:	af00      	add	r7, sp, #0
   81970:	60f8      	str	r0, [r7, #12]
   81972:	60b9      	str	r1, [r7, #8]
   81974:	607a      	str	r2, [r7, #4]

	/* Validate inputs. */
	Assert(p_tc);
	Assert(ul_channel <
			(sizeof(p_tc->TC_CHANNEL) / sizeof(p_tc->TC_CHANNEL[0])));
	tc_channel = p_tc->TC_CHANNEL + ul_channel;
   81976:	68fa      	ldr	r2, [r7, #12]
   81978:	68bb      	ldr	r3, [r7, #8]
   8197a:	019b      	lsls	r3, r3, #6
   8197c:	4413      	add	r3, r2
   8197e:	617b      	str	r3, [r7, #20]

	/*  Disable TC clock. */
	tc_channel->TC_CCR = TC_CCR_CLKDIS;
   81980:	697b      	ldr	r3, [r7, #20]
   81982:	2202      	movs	r2, #2
   81984:	601a      	str	r2, [r3, #0]

	/*  Disable interrupts. */
	tc_channel->TC_IDR = 0xFFFFFFFF;
   81986:	697b      	ldr	r3, [r7, #20]
   81988:	f04f 32ff 	mov.w	r2, #4294967295	; 0xffffffff
   8198c:	629a      	str	r2, [r3, #40]	; 0x28

	/*  Clear status register. */
	tc_channel->TC_SR;
   8198e:	697b      	ldr	r3, [r7, #20]
   81990:	6a1b      	ldr	r3, [r3, #32]

	/*  Set mode. */
	tc_channel->TC_CMR = ul_mode;
   81992:	697b      	ldr	r3, [r7, #20]
   81994:	687a      	ldr	r2, [r7, #4]
   81996:	605a      	str	r2, [r3, #4]
}
   81998:	bf00      	nop
   8199a:	371c      	adds	r7, #28
   8199c:	46bd      	mov	sp, r7
   8199e:	bc80      	pop	{r7}
   819a0:	4770      	bx	lr

000819a2 <tc_start>:
 * \param[in] ul_channel Channel to configure
 */
void tc_start(
		Tc *p_tc,
		uint32_t ul_channel)
{
   819a2:	b480      	push	{r7}
   819a4:	b083      	sub	sp, #12
   819a6:	af00      	add	r7, sp, #0
   819a8:	6078      	str	r0, [r7, #4]
   819aa:	6039      	str	r1, [r7, #0]
	/* Validate inputs. */
	Assert(p_tc);
	Assert(ul_channel <
			(sizeof(p_tc->TC_CHANNEL) / sizeof(p_tc->TC_CHANNEL[0])));

	p_tc->TC_CHANNEL[ul_channel].TC_CCR = TC_CCR_CLKEN | TC_CCR_SWTRG;
   819ac:	687a      	ldr	r2, [r7, #4]
   819ae:	683b      	ldr	r3, [r7, #0]
   819b0:	019b      	lsls	r3, r3, #6
   819b2:	4413      	add	r3, r2
   819b4:	2205      	movs	r2, #5
   819b6:	601a      	str	r2, [r3, #0]
}
   819b8:	bf00      	nop
   819ba:	370c      	adds	r7, #12
   819bc:	46bd      	mov	sp, r7
   819be:	bc80      	pop	{r7}
   819c0:	4770      	bx	lr

000819c2 <tc_write_ra>:
 */
void tc_write_ra(
		Tc *p_tc,
		uint32_t ul_channel,
		uint32_t ul_value)
{
   819c2:	b480      	push	{r7}
   819c4:	b085      	sub	sp, #20
   819c6:	af00      	add	r7, sp, #0
   819c8:	60f8      	str	r0, [r7, #12]
   819ca:	60b9      	str	r1, [r7, #8]
   819cc:	607a      	str	r2, [r7, #4]
	/* Validate inputs. */
	Assert(p_tc);
	Assert(ul_channel <
			(sizeof(p_tc->TC_CHANNEL) / sizeof(p_tc->TC_CHANNEL[0])));

	p_tc->TC_CHANNEL[ul_channel].TC_RA = ul_value;
   819ce:	68fa      	ldr	r2, [r7, #12]
   819d0:	68bb      	ldr	r3, [r7, #8]
   819d2:	019b      	lsls	r3, r3, #6
   819d4:	4413      	add	r3, r2
   819d6:	3314      	adds	r3, #20
   819d8:	687a      	ldr	r2, [r7, #4]
   819da:	601a      	str	r2, [r3, #0]
}
   819dc:	bf00      	nop
   819de:	3714      	adds	r7, #20
   819e0:	46bd      	mov	sp, r7
   819e2:	bc80      	pop	{r7}
   819e4:	4770      	bx	lr

000819e6 <tc_write_rb>:
 */
void tc_write_rb(
		Tc *p_tc,
		uint32_t ul_channel,
		uint32_t ul_value)
{
   819e6:	b480      	push	{r7}
   819e8:	b085      	sub	sp, #20
   819ea:	af00      	add	r7, sp, #0
   819ec:	60f8      	str	r0, [r7, #12]
   819ee:	60b9      	str	r1, [r7, #8]
   819f0:	607a      	str	r2, [r7, #4]
	/* Validate inputs. */
	Assert(p_tc);
	Assert(ul_channel <
			(sizeof(p_tc->TC_CHANNEL) / sizeof(p_tc->TC_CHANNEL[0])));

	p_tc->TC_CHANNEL[ul_channel].TC_RB = ul_value;
   819f2:	68fa      	ldr	r2, [r7, #12]
   819f4:	68bb      	ldr	r3, [r7, #8]
   819f6:	019b      	lsls	r3, r3, #6
   819f8:	4413      	add	r3, r2
   819fa:	3318      	adds	r3, #24
   819fc:	687a      	ldr	r2, [r7, #4]
   819fe:	601a      	str	r2, [r3, #0]
}
   81a00:	bf00      	nop
   81a02:	3714      	adds	r7, #20
   81a04:	46bd      	mov	sp, r7
   81a06:	bc80      	pop	{r7}
   81a08:	4770      	bx	lr

00081a0a <tc_write_rc>:
 */
void tc_write_rc(
		Tc *p_tc,
		uint32_t ul_channel,
		uint32_t ul_value)
{
   81a0a:	b480      	push	{r7}
   81a0c:	b085      	sub	sp, #20
   81a0e:	af00      	add	r7, sp, #0
   81a10:	60f8      	str	r0, [r7, #12]
   81a12:	60b9      	str	r1, [r7, #8]
   81a14:	607a      	str	r2, [r7, #4]
	/* Validate inputs. */
	Assert(p_tc);
	Assert(ul_channel <
			(sizeof(p_tc->TC_CHANNEL) / sizeof(p_tc->TC_CHANNEL[0])));

	p_tc->TC_CHANNEL[ul_channel].TC_RC = ul_value;
   81a16:	68fa      	ldr	r2, [r7, #12]
   81a18:	68bb      	ldr	r3, [r7, #8]
   81a1a:	019b      	lsls	r3, r3, #6
   81a1c:	4413      	add	r3, r2
   81a1e:	331c      	adds	r3, #28
   81a20:	687a      	ldr	r2, [r7, #4]
   81a22:	601a      	str	r2, [r3, #0]
}
   81a24:	bf00      	nop
   81a26:	3714      	adds	r7, #20
   81a28:	46bd      	mov	sp, r7
   81a2a:	bc80      	pop	{r7}
   81a2c:	4770      	bx	lr

00081a2e <tc_enable_interrupt>:
 */
void tc_enable_interrupt(
		Tc *p_tc,
		uint32_t ul_channel,
		uint32_t ul_sources)
{
   81a2e:	b480      	push	{r7}
   81a30:	b087      	sub	sp, #28
   81a32:	af00      	add	r7, sp, #0
   81a34:	60f8      	str	r0, [r7, #12]
   81a36:	60b9      	str	r1, [r7, #8]
   81a38:	607a      	str	r2, [r7, #4]

	/* Validate inputs. */
	Assert(p_tc);
	Assert(ul_channel <
			(sizeof(p_tc->TC_CHANNEL) / sizeof(p_tc->TC_CHANNEL[0])));
	tc_channel = p_tc->TC_CHANNEL + ul_channel;
   81a3a:	68fa      	ldr	r2, [r7, #12]
   81a3c:	68bb      	ldr	r3, [r7, #8]
   81a3e:	019b      	lsls	r3, r3, #6
   81a40:	4413      	add	r3, r2
   81a42:	617b      	str	r3, [r7, #20]
	tc_channel->TC_IER = ul_sources;
   81a44:	697b      	ldr	r3, [r7, #20]
   81a46:	687a      	ldr	r2, [r7, #4]
   81a48:	625a      	str	r2, [r3, #36]	; 0x24
}
   81a4a:	bf00      	nop
   81a4c:	371c      	adds	r7, #28
   81a4e:	46bd      	mov	sp, r7
   81a50:	bc80      	pop	{r7}
   81a52:	4770      	bx	lr

00081a54 <tc_get_status>:
 * \return The current TC status.
 */
uint32_t tc_get_status(
		Tc *p_tc,
		uint32_t ul_channel)
{
   81a54:	b480      	push	{r7}
   81a56:	b085      	sub	sp, #20
   81a58:	af00      	add	r7, sp, #0
   81a5a:	6078      	str	r0, [r7, #4]
   81a5c:	6039      	str	r1, [r7, #0]
	/* Validate inputs. */
	Assert(p_tc);
	Assert(ul_channel <
			(sizeof(p_tc->TC_CHANNEL) / sizeof(p_tc->TC_CHANNEL[0])));
			
	tc_channel = p_tc->TC_CHANNEL + ul_channel;
   81a5e:	687a      	ldr	r2, [r7, #4]
   81a60:	683b      	ldr	r3, [r7, #0]
   81a62:	019b      	lsls	r3, r3, #6
   81a64:	4413      	add	r3, r2
   81a66:	60fb      	str	r3, [r7, #12]
	return tc_channel->TC_SR;
   81a68:	68fb      	ldr	r3, [r7, #12]
   81a6a:	6a1b      	ldr	r3, [r3, #32]
}
   81a6c:	4618      	mov	r0, r3
   81a6e:	3714      	adds	r7, #20
   81a70:	46bd      	mov	sp, r7
   81a72:	bc80      	pop	{r7}
   81a74:	4770      	bx	lr
	...

00081a78 <__aeabi_uldivmod>:
   81a78:	b953      	cbnz	r3, 81a90 <__aeabi_uldivmod+0x18>
   81a7a:	b94a      	cbnz	r2, 81a90 <__aeabi_uldivmod+0x18>
   81a7c:	2900      	cmp	r1, #0
   81a7e:	bf08      	it	eq
   81a80:	2800      	cmpeq	r0, #0
   81a82:	bf1c      	itt	ne
   81a84:	f04f 31ff 	movne.w	r1, #4294967295	; 0xffffffff
   81a88:	f04f 30ff 	movne.w	r0, #4294967295	; 0xffffffff
   81a8c:	f000 b974 	b.w	81d78 <__aeabi_idiv0>
   81a90:	f1ad 0c08 	sub.w	ip, sp, #8
   81a94:	e96d ce04 	strd	ip, lr, [sp, #-16]!
   81a98:	f000 f806 	bl	81aa8 <__udivmoddi4>
   81a9c:	f8dd e004 	ldr.w	lr, [sp, #4]
   81aa0:	e9dd 2302 	ldrd	r2, r3, [sp, #8]
   81aa4:	b004      	add	sp, #16
   81aa6:	4770      	bx	lr

00081aa8 <__udivmoddi4>:
   81aa8:	e92d 47f0 	stmdb	sp!, {r4, r5, r6, r7, r8, r9, sl, lr}
   81aac:	468c      	mov	ip, r1
   81aae:	4604      	mov	r4, r0
   81ab0:	9e08      	ldr	r6, [sp, #32]
   81ab2:	2b00      	cmp	r3, #0
   81ab4:	d14b      	bne.n	81b4e <__udivmoddi4+0xa6>
   81ab6:	428a      	cmp	r2, r1
   81ab8:	4615      	mov	r5, r2
   81aba:	d967      	bls.n	81b8c <__udivmoddi4+0xe4>
   81abc:	fab2 f282 	clz	r2, r2
   81ac0:	b14a      	cbz	r2, 81ad6 <__udivmoddi4+0x2e>
   81ac2:	f1c2 0720 	rsb	r7, r2, #32
   81ac6:	fa01 f302 	lsl.w	r3, r1, r2
   81aca:	fa20 f707 	lsr.w	r7, r0, r7
   81ace:	4095      	lsls	r5, r2
   81ad0:	ea47 0c03 	orr.w	ip, r7, r3
   81ad4:	4094      	lsls	r4, r2
   81ad6:	ea4f 4e15 	mov.w	lr, r5, lsr #16
   81ada:	fbbc f7fe 	udiv	r7, ip, lr
   81ade:	fa1f f885 	uxth.w	r8, r5
   81ae2:	fb0e c317 	mls	r3, lr, r7, ip
   81ae6:	fb07 f908 	mul.w	r9, r7, r8
   81aea:	0c21      	lsrs	r1, r4, #16
   81aec:	ea41 4303 	orr.w	r3, r1, r3, lsl #16
   81af0:	4599      	cmp	r9, r3
   81af2:	d909      	bls.n	81b08 <__udivmoddi4+0x60>
   81af4:	18eb      	adds	r3, r5, r3
   81af6:	f107 31ff 	add.w	r1, r7, #4294967295	; 0xffffffff
   81afa:	f080 811c 	bcs.w	81d36 <__udivmoddi4+0x28e>
   81afe:	4599      	cmp	r9, r3
   81b00:	f240 8119 	bls.w	81d36 <__udivmoddi4+0x28e>
   81b04:	3f02      	subs	r7, #2
   81b06:	442b      	add	r3, r5
   81b08:	eba3 0309 	sub.w	r3, r3, r9
   81b0c:	fbb3 f0fe 	udiv	r0, r3, lr
   81b10:	fb0e 3310 	mls	r3, lr, r0, r3
   81b14:	fb00 f108 	mul.w	r1, r0, r8
   81b18:	b2a4      	uxth	r4, r4
   81b1a:	ea44 4403 	orr.w	r4, r4, r3, lsl #16
   81b1e:	42a1      	cmp	r1, r4
   81b20:	d909      	bls.n	81b36 <__udivmoddi4+0x8e>
   81b22:	192c      	adds	r4, r5, r4
   81b24:	f100 33ff 	add.w	r3, r0, #4294967295	; 0xffffffff
   81b28:	f080 8107 	bcs.w	81d3a <__udivmoddi4+0x292>
   81b2c:	42a1      	cmp	r1, r4
   81b2e:	f240 8104 	bls.w	81d3a <__udivmoddi4+0x292>
   81b32:	3802      	subs	r0, #2
   81b34:	442c      	add	r4, r5
   81b36:	ea40 4007 	orr.w	r0, r0, r7, lsl #16
   81b3a:	2700      	movs	r7, #0
   81b3c:	1a64      	subs	r4, r4, r1
   81b3e:	b11e      	cbz	r6, 81b48 <__udivmoddi4+0xa0>
   81b40:	2300      	movs	r3, #0
   81b42:	40d4      	lsrs	r4, r2
   81b44:	e9c6 4300 	strd	r4, r3, [r6]
   81b48:	4639      	mov	r1, r7
   81b4a:	e8bd 87f0 	ldmia.w	sp!, {r4, r5, r6, r7, r8, r9, sl, pc}
   81b4e:	428b      	cmp	r3, r1
   81b50:	d909      	bls.n	81b66 <__udivmoddi4+0xbe>
   81b52:	2e00      	cmp	r6, #0
   81b54:	f000 80ec 	beq.w	81d30 <__udivmoddi4+0x288>
   81b58:	2700      	movs	r7, #0
   81b5a:	e9c6 0100 	strd	r0, r1, [r6]
   81b5e:	4638      	mov	r0, r7
   81b60:	4639      	mov	r1, r7
   81b62:	e8bd 87f0 	ldmia.w	sp!, {r4, r5, r6, r7, r8, r9, sl, pc}
   81b66:	fab3 f783 	clz	r7, r3
   81b6a:	2f00      	cmp	r7, #0
   81b6c:	d148      	bne.n	81c00 <__udivmoddi4+0x158>
   81b6e:	428b      	cmp	r3, r1
   81b70:	d302      	bcc.n	81b78 <__udivmoddi4+0xd0>
   81b72:	4282      	cmp	r2, r0
   81b74:	f200 80fb 	bhi.w	81d6e <__udivmoddi4+0x2c6>
   81b78:	1a84      	subs	r4, r0, r2
   81b7a:	eb61 0303 	sbc.w	r3, r1, r3
   81b7e:	2001      	movs	r0, #1
   81b80:	469c      	mov	ip, r3
   81b82:	2e00      	cmp	r6, #0
   81b84:	d0e0      	beq.n	81b48 <__udivmoddi4+0xa0>
   81b86:	e9c6 4c00 	strd	r4, ip, [r6]
   81b8a:	e7dd      	b.n	81b48 <__udivmoddi4+0xa0>
   81b8c:	b902      	cbnz	r2, 81b90 <__udivmoddi4+0xe8>
   81b8e:	deff      	udf	#255	; 0xff
   81b90:	fab2 f282 	clz	r2, r2
   81b94:	2a00      	cmp	r2, #0
   81b96:	f040 808f 	bne.w	81cb8 <__udivmoddi4+0x210>
   81b9a:	2701      	movs	r7, #1
   81b9c:	1b49      	subs	r1, r1, r5
   81b9e:	ea4f 4815 	mov.w	r8, r5, lsr #16
   81ba2:	fa1f f985 	uxth.w	r9, r5
   81ba6:	fbb1 fef8 	udiv	lr, r1, r8
   81baa:	fb08 111e 	mls	r1, r8, lr, r1
   81bae:	fb09 f00e 	mul.w	r0, r9, lr
   81bb2:	ea4f 4c14 	mov.w	ip, r4, lsr #16
   81bb6:	ea4c 4301 	orr.w	r3, ip, r1, lsl #16
   81bba:	4298      	cmp	r0, r3
   81bbc:	d907      	bls.n	81bce <__udivmoddi4+0x126>
   81bbe:	18eb      	adds	r3, r5, r3
   81bc0:	f10e 31ff 	add.w	r1, lr, #4294967295	; 0xffffffff
   81bc4:	d202      	bcs.n	81bcc <__udivmoddi4+0x124>
   81bc6:	4298      	cmp	r0, r3
   81bc8:	f200 80cd 	bhi.w	81d66 <__udivmoddi4+0x2be>
   81bcc:	468e      	mov	lr, r1
   81bce:	1a1b      	subs	r3, r3, r0
   81bd0:	fbb3 f0f8 	udiv	r0, r3, r8
   81bd4:	fb08 3310 	mls	r3, r8, r0, r3
   81bd8:	fb09 f900 	mul.w	r9, r9, r0
   81bdc:	b2a4      	uxth	r4, r4
   81bde:	ea44 4403 	orr.w	r4, r4, r3, lsl #16
   81be2:	45a1      	cmp	r9, r4
   81be4:	d907      	bls.n	81bf6 <__udivmoddi4+0x14e>
   81be6:	192c      	adds	r4, r5, r4
   81be8:	f100 33ff 	add.w	r3, r0, #4294967295	; 0xffffffff
   81bec:	d202      	bcs.n	81bf4 <__udivmoddi4+0x14c>
   81bee:	45a1      	cmp	r9, r4
   81bf0:	f200 80b6 	bhi.w	81d60 <__udivmoddi4+0x2b8>
   81bf4:	4618      	mov	r0, r3
   81bf6:	eba4 0409 	sub.w	r4, r4, r9
   81bfa:	ea40 400e 	orr.w	r0, r0, lr, lsl #16
   81bfe:	e79e      	b.n	81b3e <__udivmoddi4+0x96>
   81c00:	f1c7 0520 	rsb	r5, r7, #32
   81c04:	40bb      	lsls	r3, r7
   81c06:	fa22 fc05 	lsr.w	ip, r2, r5
   81c0a:	ea4c 0c03 	orr.w	ip, ip, r3
   81c0e:	fa21 f405 	lsr.w	r4, r1, r5
   81c12:	ea4f 4e1c 	mov.w	lr, ip, lsr #16
   81c16:	fbb4 f9fe 	udiv	r9, r4, lr
   81c1a:	fa1f f88c 	uxth.w	r8, ip
   81c1e:	fb0e 4419 	mls	r4, lr, r9, r4
   81c22:	fa20 f305 	lsr.w	r3, r0, r5
   81c26:	40b9      	lsls	r1, r7
   81c28:	fb09 fa08 	mul.w	sl, r9, r8
   81c2c:	4319      	orrs	r1, r3
   81c2e:	0c0b      	lsrs	r3, r1, #16
   81c30:	ea43 4404 	orr.w	r4, r3, r4, lsl #16
   81c34:	45a2      	cmp	sl, r4
   81c36:	fa02 f207 	lsl.w	r2, r2, r7
   81c3a:	fa00 f307 	lsl.w	r3, r0, r7
   81c3e:	d90b      	bls.n	81c58 <__udivmoddi4+0x1b0>
   81c40:	eb1c 0404 	adds.w	r4, ip, r4
   81c44:	f109 30ff 	add.w	r0, r9, #4294967295	; 0xffffffff
   81c48:	f080 8088 	bcs.w	81d5c <__udivmoddi4+0x2b4>
   81c4c:	45a2      	cmp	sl, r4
   81c4e:	f240 8085 	bls.w	81d5c <__udivmoddi4+0x2b4>
   81c52:	f1a9 0902 	sub.w	r9, r9, #2
   81c56:	4464      	add	r4, ip
   81c58:	eba4 040a 	sub.w	r4, r4, sl
   81c5c:	fbb4 f0fe 	udiv	r0, r4, lr
   81c60:	fb0e 4410 	mls	r4, lr, r0, r4
   81c64:	fb00 fa08 	mul.w	sl, r0, r8
   81c68:	b289      	uxth	r1, r1
   81c6a:	ea41 4404 	orr.w	r4, r1, r4, lsl #16
   81c6e:	45a2      	cmp	sl, r4
   81c70:	d908      	bls.n	81c84 <__udivmoddi4+0x1dc>
   81c72:	eb1c 0404 	adds.w	r4, ip, r4
   81c76:	f100 31ff 	add.w	r1, r0, #4294967295	; 0xffffffff
   81c7a:	d26b      	bcs.n	81d54 <__udivmoddi4+0x2ac>
   81c7c:	45a2      	cmp	sl, r4
   81c7e:	d969      	bls.n	81d54 <__udivmoddi4+0x2ac>
   81c80:	3802      	subs	r0, #2
   81c82:	4464      	add	r4, ip
   81c84:	ea40 4009 	orr.w	r0, r0, r9, lsl #16
   81c88:	fba0 8902 	umull	r8, r9, r0, r2
   81c8c:	eba4 040a 	sub.w	r4, r4, sl
   81c90:	454c      	cmp	r4, r9
   81c92:	4641      	mov	r1, r8
   81c94:	46ce      	mov	lr, r9
   81c96:	d354      	bcc.n	81d42 <__udivmoddi4+0x29a>
   81c98:	d051      	beq.n	81d3e <__udivmoddi4+0x296>
   81c9a:	2e00      	cmp	r6, #0
   81c9c:	d069      	beq.n	81d72 <__udivmoddi4+0x2ca>
   81c9e:	1a5a      	subs	r2, r3, r1
   81ca0:	eb64 040e 	sbc.w	r4, r4, lr
   81ca4:	fa04 f505 	lsl.w	r5, r4, r5
   81ca8:	fa22 f307 	lsr.w	r3, r2, r7
   81cac:	40fc      	lsrs	r4, r7
   81cae:	431d      	orrs	r5, r3
   81cb0:	e9c6 5400 	strd	r5, r4, [r6]
   81cb4:	2700      	movs	r7, #0
   81cb6:	e747      	b.n	81b48 <__udivmoddi4+0xa0>
   81cb8:	4095      	lsls	r5, r2
   81cba:	f1c2 0320 	rsb	r3, r2, #32
   81cbe:	fa21 f003 	lsr.w	r0, r1, r3
   81cc2:	ea4f 4815 	mov.w	r8, r5, lsr #16
   81cc6:	fbb0 f7f8 	udiv	r7, r0, r8
   81cca:	fa1f f985 	uxth.w	r9, r5
   81cce:	fb08 0017 	mls	r0, r8, r7, r0
   81cd2:	fa24 f303 	lsr.w	r3, r4, r3
   81cd6:	4091      	lsls	r1, r2
   81cd8:	fb07 fc09 	mul.w	ip, r7, r9
   81cdc:	430b      	orrs	r3, r1
   81cde:	0c19      	lsrs	r1, r3, #16
   81ce0:	ea41 4100 	orr.w	r1, r1, r0, lsl #16
   81ce4:	458c      	cmp	ip, r1
   81ce6:	fa04 f402 	lsl.w	r4, r4, r2
   81cea:	d907      	bls.n	81cfc <__udivmoddi4+0x254>
   81cec:	1869      	adds	r1, r5, r1
   81cee:	f107 30ff 	add.w	r0, r7, #4294967295	; 0xffffffff
   81cf2:	d231      	bcs.n	81d58 <__udivmoddi4+0x2b0>
   81cf4:	458c      	cmp	ip, r1
   81cf6:	d92f      	bls.n	81d58 <__udivmoddi4+0x2b0>
   81cf8:	3f02      	subs	r7, #2
   81cfa:	4429      	add	r1, r5
   81cfc:	eba1 010c 	sub.w	r1, r1, ip
   81d00:	fbb1 f0f8 	udiv	r0, r1, r8
   81d04:	fb08 1c10 	mls	ip, r8, r0, r1
   81d08:	fb00 fe09 	mul.w	lr, r0, r9
   81d0c:	b299      	uxth	r1, r3
   81d0e:	ea41 410c 	orr.w	r1, r1, ip, lsl #16
   81d12:	458e      	cmp	lr, r1
   81d14:	d907      	bls.n	81d26 <__udivmoddi4+0x27e>
   81d16:	1869      	adds	r1, r5, r1
   81d18:	f100 33ff 	add.w	r3, r0, #4294967295	; 0xffffffff
   81d1c:	d218      	bcs.n	81d50 <__udivmoddi4+0x2a8>
   81d1e:	458e      	cmp	lr, r1
   81d20:	d916      	bls.n	81d50 <__udivmoddi4+0x2a8>
   81d22:	3802      	subs	r0, #2
   81d24:	4429      	add	r1, r5
   81d26:	eba1 010e 	sub.w	r1, r1, lr
   81d2a:	ea40 4707 	orr.w	r7, r0, r7, lsl #16
   81d2e:	e73a      	b.n	81ba6 <__udivmoddi4+0xfe>
   81d30:	4637      	mov	r7, r6
   81d32:	4630      	mov	r0, r6
   81d34:	e708      	b.n	81b48 <__udivmoddi4+0xa0>
   81d36:	460f      	mov	r7, r1
   81d38:	e6e6      	b.n	81b08 <__udivmoddi4+0x60>
   81d3a:	4618      	mov	r0, r3
   81d3c:	e6fb      	b.n	81b36 <__udivmoddi4+0x8e>
   81d3e:	4543      	cmp	r3, r8
   81d40:	d2ab      	bcs.n	81c9a <__udivmoddi4+0x1f2>
   81d42:	ebb8 0102 	subs.w	r1, r8, r2
   81d46:	eb69 020c 	sbc.w	r2, r9, ip
   81d4a:	3801      	subs	r0, #1
   81d4c:	4696      	mov	lr, r2
   81d4e:	e7a4      	b.n	81c9a <__udivmoddi4+0x1f2>
   81d50:	4618      	mov	r0, r3
   81d52:	e7e8      	b.n	81d26 <__udivmoddi4+0x27e>
   81d54:	4608      	mov	r0, r1
   81d56:	e795      	b.n	81c84 <__udivmoddi4+0x1dc>
   81d58:	4607      	mov	r7, r0
   81d5a:	e7cf      	b.n	81cfc <__udivmoddi4+0x254>
   81d5c:	4681      	mov	r9, r0
   81d5e:	e77b      	b.n	81c58 <__udivmoddi4+0x1b0>
   81d60:	3802      	subs	r0, #2
   81d62:	442c      	add	r4, r5
   81d64:	e747      	b.n	81bf6 <__udivmoddi4+0x14e>
   81d66:	f1ae 0e02 	sub.w	lr, lr, #2
   81d6a:	442b      	add	r3, r5
   81d6c:	e72f      	b.n	81bce <__udivmoddi4+0x126>
   81d6e:	4638      	mov	r0, r7
   81d70:	e707      	b.n	81b82 <__udivmoddi4+0xda>
   81d72:	4637      	mov	r7, r6
   81d74:	e6e8      	b.n	81b48 <__udivmoddi4+0xa0>
   81d76:	bf00      	nop

00081d78 <__aeabi_idiv0>:
   81d78:	4770      	bx	lr
   81d7a:	bf00      	nop

00081d7c <atexit>:
   81d7c:	2300      	movs	r3, #0
   81d7e:	4601      	mov	r1, r0
   81d80:	461a      	mov	r2, r3
   81d82:	4618      	mov	r0, r3
   81d84:	f001 bb6a 	b.w	8345c <__register_exitproc>

00081d88 <__libc_fini_array>:
   81d88:	b538      	push	{r3, r4, r5, lr}
   81d8a:	4c0a      	ldr	r4, [pc, #40]	; (81db4 <__libc_fini_array+0x2c>)
   81d8c:	4d0a      	ldr	r5, [pc, #40]	; (81db8 <__libc_fini_array+0x30>)
   81d8e:	1b64      	subs	r4, r4, r5
   81d90:	10a4      	asrs	r4, r4, #2
   81d92:	d00a      	beq.n	81daa <__libc_fini_array+0x22>
   81d94:	f104 4380 	add.w	r3, r4, #1073741824	; 0x40000000
   81d98:	3b01      	subs	r3, #1
   81d9a:	eb05 0583 	add.w	r5, r5, r3, lsl #2
   81d9e:	3c01      	subs	r4, #1
   81da0:	f855 3904 	ldr.w	r3, [r5], #-4
   81da4:	4798      	blx	r3
   81da6:	2c00      	cmp	r4, #0
   81da8:	d1f9      	bne.n	81d9e <__libc_fini_array+0x16>
   81daa:	e8bd 4038 	ldmia.w	sp!, {r3, r4, r5, lr}
   81dae:	f005 babf 	b.w	87330 <_fini>
   81db2:	bf00      	nop
   81db4:	00087354 	.word	0x00087354
   81db8:	00087350 	.word	0x00087350

00081dbc <__libc_init_array>:
   81dbc:	b570      	push	{r4, r5, r6, lr}
   81dbe:	4e0d      	ldr	r6, [pc, #52]	; (81df4 <__libc_init_array+0x38>)
   81dc0:	4d0d      	ldr	r5, [pc, #52]	; (81df8 <__libc_init_array+0x3c>)
   81dc2:	1b76      	subs	r6, r6, r5
   81dc4:	10b6      	asrs	r6, r6, #2
   81dc6:	d006      	beq.n	81dd6 <__libc_init_array+0x1a>
   81dc8:	2400      	movs	r4, #0
   81dca:	3401      	adds	r4, #1
   81dcc:	f855 3b04 	ldr.w	r3, [r5], #4
   81dd0:	4798      	blx	r3
   81dd2:	42a6      	cmp	r6, r4
   81dd4:	d1f9      	bne.n	81dca <__libc_init_array+0xe>
   81dd6:	4e09      	ldr	r6, [pc, #36]	; (81dfc <__libc_init_array+0x40>)
   81dd8:	4d09      	ldr	r5, [pc, #36]	; (81e00 <__libc_init_array+0x44>)
   81dda:	f005 fa9f 	bl	8731c <_init>
   81dde:	1b76      	subs	r6, r6, r5
   81de0:	10b6      	asrs	r6, r6, #2
   81de2:	d006      	beq.n	81df2 <__libc_init_array+0x36>
   81de4:	2400      	movs	r4, #0
   81de6:	3401      	adds	r4, #1
   81de8:	f855 3b04 	ldr.w	r3, [r5], #4
   81dec:	4798      	blx	r3
   81dee:	42a6      	cmp	r6, r4
   81df0:	d1f9      	bne.n	81de6 <__libc_init_array+0x2a>
   81df2:	bd70      	pop	{r4, r5, r6, pc}
   81df4:	00087328 	.word	0x00087328
   81df8:	00087328 	.word	0x00087328
   81dfc:	00087330 	.word	0x00087330
   81e00:	00087328 	.word	0x00087328

00081e04 <memset>:
   81e04:	b4f0      	push	{r4, r5, r6, r7}
   81e06:	0786      	lsls	r6, r0, #30
   81e08:	d043      	beq.n	81e92 <memset+0x8e>
   81e0a:	1e54      	subs	r4, r2, #1
   81e0c:	2a00      	cmp	r2, #0
   81e0e:	d03e      	beq.n	81e8e <memset+0x8a>
   81e10:	b2ca      	uxtb	r2, r1
   81e12:	4603      	mov	r3, r0
   81e14:	e002      	b.n	81e1c <memset+0x18>
   81e16:	f114 34ff 	adds.w	r4, r4, #4294967295	; 0xffffffff
   81e1a:	d338      	bcc.n	81e8e <memset+0x8a>
   81e1c:	f803 2b01 	strb.w	r2, [r3], #1
   81e20:	079d      	lsls	r5, r3, #30
   81e22:	d1f8      	bne.n	81e16 <memset+0x12>
   81e24:	2c03      	cmp	r4, #3
   81e26:	d92b      	bls.n	81e80 <memset+0x7c>
   81e28:	b2cd      	uxtb	r5, r1
   81e2a:	ea45 2505 	orr.w	r5, r5, r5, lsl #8
   81e2e:	2c0f      	cmp	r4, #15
   81e30:	ea45 4505 	orr.w	r5, r5, r5, lsl #16
   81e34:	d916      	bls.n	81e64 <memset+0x60>
   81e36:	f1a4 0710 	sub.w	r7, r4, #16
   81e3a:	093f      	lsrs	r7, r7, #4
   81e3c:	f103 0620 	add.w	r6, r3, #32
   81e40:	eb06 1607 	add.w	r6, r6, r7, lsl #4
   81e44:	f103 0210 	add.w	r2, r3, #16
   81e48:	e942 5504 	strd	r5, r5, [r2, #-16]
   81e4c:	e942 5502 	strd	r5, r5, [r2, #-8]
   81e50:	3210      	adds	r2, #16
   81e52:	42b2      	cmp	r2, r6
   81e54:	d1f8      	bne.n	81e48 <memset+0x44>
   81e56:	f004 040f 	and.w	r4, r4, #15
   81e5a:	3701      	adds	r7, #1
   81e5c:	2c03      	cmp	r4, #3
   81e5e:	eb03 1307 	add.w	r3, r3, r7, lsl #4
   81e62:	d90d      	bls.n	81e80 <memset+0x7c>
   81e64:	461e      	mov	r6, r3
   81e66:	4622      	mov	r2, r4
   81e68:	3a04      	subs	r2, #4
   81e6a:	2a03      	cmp	r2, #3
   81e6c:	f846 5b04 	str.w	r5, [r6], #4
   81e70:	d8fa      	bhi.n	81e68 <memset+0x64>
   81e72:	1f22      	subs	r2, r4, #4
   81e74:	f022 0203 	bic.w	r2, r2, #3
   81e78:	3204      	adds	r2, #4
   81e7a:	4413      	add	r3, r2
   81e7c:	f004 0403 	and.w	r4, r4, #3
   81e80:	b12c      	cbz	r4, 81e8e <memset+0x8a>
   81e82:	b2c9      	uxtb	r1, r1
   81e84:	441c      	add	r4, r3
   81e86:	f803 1b01 	strb.w	r1, [r3], #1
   81e8a:	429c      	cmp	r4, r3
   81e8c:	d1fb      	bne.n	81e86 <memset+0x82>
   81e8e:	bcf0      	pop	{r4, r5, r6, r7}
   81e90:	4770      	bx	lr
   81e92:	4614      	mov	r4, r2
   81e94:	4603      	mov	r3, r0
   81e96:	e7c5      	b.n	81e24 <memset+0x20>

00081e98 <_sprintf_r>:
   81e98:	b40c      	push	{r2, r3}
   81e9a:	b570      	push	{r4, r5, r6, lr}
   81e9c:	f06f 4500 	mvn.w	r5, #2147483648	; 0x80000000
   81ea0:	b09c      	sub	sp, #112	; 0x70
   81ea2:	ac20      	add	r4, sp, #128	; 0x80
   81ea4:	f854 2b04 	ldr.w	r2, [r4], #4
   81ea8:	4e09      	ldr	r6, [pc, #36]	; (81ed0 <_sprintf_r+0x38>)
   81eaa:	9102      	str	r1, [sp, #8]
   81eac:	9106      	str	r1, [sp, #24]
   81eae:	4623      	mov	r3, r4
   81eb0:	a902      	add	r1, sp, #8
   81eb2:	9401      	str	r4, [sp, #4]
   81eb4:	9507      	str	r5, [sp, #28]
   81eb6:	e9cd 5604 	strd	r5, r6, [sp, #16]
   81eba:	f000 f85b 	bl	81f74 <_svfprintf_r>
   81ebe:	2200      	movs	r2, #0
   81ec0:	9b02      	ldr	r3, [sp, #8]
   81ec2:	701a      	strb	r2, [r3, #0]
   81ec4:	b01c      	add	sp, #112	; 0x70
   81ec6:	e8bd 4070 	ldmia.w	sp!, {r4, r5, r6, lr}
   81eca:	b002      	add	sp, #8
   81ecc:	4770      	bx	lr
   81ece:	bf00      	nop
   81ed0:	ffff0208 	.word	0xffff0208

00081ed4 <sprintf>:
   81ed4:	b40e      	push	{r1, r2, r3}
   81ed6:	4603      	mov	r3, r0
   81ed8:	b530      	push	{r4, r5, lr}
   81eda:	f06f 4400 	mvn.w	r4, #2147483648	; 0x80000000
   81ede:	b09c      	sub	sp, #112	; 0x70
   81ee0:	a91f      	add	r1, sp, #124	; 0x7c
   81ee2:	f851 2b04 	ldr.w	r2, [r1], #4
   81ee6:	480a      	ldr	r0, [pc, #40]	; (81f10 <sprintf+0x3c>)
   81ee8:	4d0a      	ldr	r5, [pc, #40]	; (81f14 <sprintf+0x40>)
   81eea:	9302      	str	r3, [sp, #8]
   81eec:	9306      	str	r3, [sp, #24]
   81eee:	9101      	str	r1, [sp, #4]
   81ef0:	460b      	mov	r3, r1
   81ef2:	6800      	ldr	r0, [r0, #0]
   81ef4:	a902      	add	r1, sp, #8
   81ef6:	9407      	str	r4, [sp, #28]
   81ef8:	e9cd 4504 	strd	r4, r5, [sp, #16]
   81efc:	f000 f83a 	bl	81f74 <_svfprintf_r>
   81f00:	2200      	movs	r2, #0
   81f02:	9b02      	ldr	r3, [sp, #8]
   81f04:	701a      	strb	r2, [r3, #0]
   81f06:	b01c      	add	sp, #112	; 0x70
   81f08:	e8bd 4030 	ldmia.w	sp!, {r4, r5, lr}
   81f0c:	b003      	add	sp, #12
   81f0e:	4770      	bx	lr
   81f10:	200701c8 	.word	0x200701c8
   81f14:	ffff0208 	.word	0xffff0208

00081f18 <strlen>:
   81f18:	f020 0103 	bic.w	r1, r0, #3
   81f1c:	f010 0003 	ands.w	r0, r0, #3
   81f20:	f1c0 0000 	rsb	r0, r0, #0
   81f24:	f851 3b04 	ldr.w	r3, [r1], #4
   81f28:	f100 0c04 	add.w	ip, r0, #4
   81f2c:	ea4f 0ccc 	mov.w	ip, ip, lsl #3
   81f30:	f06f 0200 	mvn.w	r2, #0
   81f34:	bf1c      	itt	ne
   81f36:	fa22 f20c 	lsrne.w	r2, r2, ip
   81f3a:	4313      	orrne	r3, r2
   81f3c:	f04f 0c01 	mov.w	ip, #1
   81f40:	ea4c 2c0c 	orr.w	ip, ip, ip, lsl #8
   81f44:	ea4c 4c0c 	orr.w	ip, ip, ip, lsl #16
   81f48:	eba3 020c 	sub.w	r2, r3, ip
   81f4c:	ea22 0203 	bic.w	r2, r2, r3
   81f50:	ea12 12cc 	ands.w	r2, r2, ip, lsl #7
   81f54:	bf04      	itt	eq
   81f56:	f851 3b04 	ldreq.w	r3, [r1], #4
   81f5a:	3004      	addeq	r0, #4
   81f5c:	d0f4      	beq.n	81f48 <strlen+0x30>
   81f5e:	f1c2 0100 	rsb	r1, r2, #0
   81f62:	ea02 0201 	and.w	r2, r2, r1
   81f66:	fab2 f282 	clz	r2, r2
   81f6a:	f1c2 021f 	rsb	r2, r2, #31
   81f6e:	eb00 00d2 	add.w	r0, r0, r2, lsr #3
   81f72:	4770      	bx	lr

00081f74 <_svfprintf_r>:
   81f74:	e92d 4ff0 	stmdb	sp!, {r4, r5, r6, r7, r8, r9, sl, fp, lr}
   81f78:	b0c3      	sub	sp, #268	; 0x10c
   81f7a:	460c      	mov	r4, r1
   81f7c:	910c      	str	r1, [sp, #48]	; 0x30
   81f7e:	4690      	mov	r8, r2
   81f80:	930f      	str	r3, [sp, #60]	; 0x3c
   81f82:	900d      	str	r0, [sp, #52]	; 0x34
   81f84:	f002 fb96 	bl	846b4 <_localeconv_r>
   81f88:	6803      	ldr	r3, [r0, #0]
   81f8a:	4618      	mov	r0, r3
   81f8c:	931a      	str	r3, [sp, #104]	; 0x68
   81f8e:	f7ff ffc3 	bl	81f18 <strlen>
   81f92:	89a3      	ldrh	r3, [r4, #12]
   81f94:	9019      	str	r0, [sp, #100]	; 0x64
   81f96:	061d      	lsls	r5, r3, #24
   81f98:	d503      	bpl.n	81fa2 <_svfprintf_r+0x2e>
   81f9a:	6923      	ldr	r3, [r4, #16]
   81f9c:	2b00      	cmp	r3, #0
   81f9e:	f000 8736 	beq.w	82e0e <_svfprintf_r+0xe9a>
   81fa2:	2300      	movs	r3, #0
   81fa4:	f10d 0ac8 	add.w	sl, sp, #200	; 0xc8
   81fa8:	46d1      	mov	r9, sl
   81faa:	46c3      	mov	fp, r8
   81fac:	e9cd 3316 	strd	r3, r3, [sp, #88]	; 0x58
   81fb0:	e9cd 3326 	strd	r3, r3, [sp, #152]	; 0x98
   81fb4:	9315      	str	r3, [sp, #84]	; 0x54
   81fb6:	9313      	str	r3, [sp, #76]	; 0x4c
   81fb8:	9314      	str	r3, [sp, #80]	; 0x50
   81fba:	9318      	str	r3, [sp, #96]	; 0x60
   81fbc:	931b      	str	r3, [sp, #108]	; 0x6c
   81fbe:	930a      	str	r3, [sp, #40]	; 0x28
   81fc0:	f8cd a094 	str.w	sl, [sp, #148]	; 0x94
   81fc4:	f89b 3000 	ldrb.w	r3, [fp]
   81fc8:	2b00      	cmp	r3, #0
   81fca:	f000 8097 	beq.w	820fc <_svfprintf_r+0x188>
   81fce:	2b25      	cmp	r3, #37	; 0x25
   81fd0:	465c      	mov	r4, fp
   81fd2:	d102      	bne.n	81fda <_svfprintf_r+0x66>
   81fd4:	e01a      	b.n	8200c <_svfprintf_r+0x98>
   81fd6:	2b25      	cmp	r3, #37	; 0x25
   81fd8:	d003      	beq.n	81fe2 <_svfprintf_r+0x6e>
   81fda:	f814 3f01 	ldrb.w	r3, [r4, #1]!
   81fde:	2b00      	cmp	r3, #0
   81fe0:	d1f9      	bne.n	81fd6 <_svfprintf_r+0x62>
   81fe2:	eba4 050b 	sub.w	r5, r4, fp
   81fe6:	b175      	cbz	r5, 82006 <_svfprintf_r+0x92>
   81fe8:	e9dd 3226 	ldrd	r3, r2, [sp, #152]	; 0x98
   81fec:	3301      	adds	r3, #1
   81fee:	442a      	add	r2, r5
   81ff0:	2b07      	cmp	r3, #7
   81ff2:	e9c9 b500 	strd	fp, r5, [r9]
   81ff6:	e9cd 3226 	strd	r3, r2, [sp, #152]	; 0x98
   81ffa:	dc77      	bgt.n	820ec <_svfprintf_r+0x178>
   81ffc:	f109 0908 	add.w	r9, r9, #8
   82000:	9b0a      	ldr	r3, [sp, #40]	; 0x28
   82002:	442b      	add	r3, r5
   82004:	930a      	str	r3, [sp, #40]	; 0x28
   82006:	7823      	ldrb	r3, [r4, #0]
   82008:	2b00      	cmp	r3, #0
   8200a:	d077      	beq.n	820fc <_svfprintf_r+0x188>
   8200c:	2300      	movs	r3, #0
   8200e:	f04f 30ff 	mov.w	r0, #4294967295	; 0xffffffff
   82012:	461a      	mov	r2, r3
   82014:	f88d 3077 	strb.w	r3, [sp, #119]	; 0x77
   82018:	4619      	mov	r1, r3
   8201a:	930b      	str	r3, [sp, #44]	; 0x2c
   8201c:	4698      	mov	r8, r3
   8201e:	7863      	ldrb	r3, [r4, #1]
   82020:	f104 0b01 	add.w	fp, r4, #1
   82024:	9009      	str	r0, [sp, #36]	; 0x24
   82026:	461f      	mov	r7, r3
   82028:	f10b 0b01 	add.w	fp, fp, #1
   8202c:	f1a7 0320 	sub.w	r3, r7, #32
   82030:	2b58      	cmp	r3, #88	; 0x58
   82032:	f200 8374 	bhi.w	8271e <_svfprintf_r+0x7aa>
   82036:	e8df f013 	tbh	[pc, r3, lsl #1]
   8203a:	02d1      	.short	0x02d1
   8203c:	03720372 	.word	0x03720372
   82040:	037202cc 	.word	0x037202cc
   82044:	03720372 	.word	0x03720372
   82048:	03720372 	.word	0x03720372
   8204c:	02bf0372 	.word	0x02bf0372
   82050:	037202ba 	.word	0x037202ba
   82054:	034c0366 	.word	0x034c0366
   82058:	036b0372 	.word	0x036b0372
   8205c:	00b600b6 	.word	0x00b600b6
   82060:	00b600b6 	.word	0x00b600b6
   82064:	00b600b6 	.word	0x00b600b6
   82068:	00b600b6 	.word	0x00b600b6
   8206c:	037200b6 	.word	0x037200b6
   82070:	03720372 	.word	0x03720372
   82074:	03720372 	.word	0x03720372
   82078:	03720372 	.word	0x03720372
   8207c:	03720372 	.word	0x03720372
   82080:	03340372 	.word	0x03340372
   82084:	037202f5 	.word	0x037202f5
   82088:	037202f5 	.word	0x037202f5
   8208c:	03720372 	.word	0x03720372
   82090:	02f00372 	.word	0x02f00372
   82094:	03720372 	.word	0x03720372
   82098:	037200a5 	.word	0x037200a5
   8209c:	03720372 	.word	0x03720372
   820a0:	03720372 	.word	0x03720372
   820a4:	03720075 	.word	0x03720075
   820a8:	02980372 	.word	0x02980372
   820ac:	03720372 	.word	0x03720372
   820b0:	03720372 	.word	0x03720372
   820b4:	03720372 	.word	0x03720372
   820b8:	03720372 	.word	0x03720372
   820bc:	03720372 	.word	0x03720372
   820c0:	012b0179 	.word	0x012b0179
   820c4:	02f502f5 	.word	0x02f502f5
   820c8:	012602f5 	.word	0x012602f5
   820cc:	0372012b 	.word	0x0372012b
   820d0:	01190372 	.word	0x01190372
   820d4:	01030372 	.word	0x01030372
   820d8:	00ca00a7 	.word	0x00ca00a7
   820dc:	037200c5 	.word	0x037200c5
   820e0:	037200da 	.word	0x037200da
   820e4:	03720077 	.word	0x03720077
   820e8:	02d90372 	.word	0x02d90372
   820ec:	aa25      	add	r2, sp, #148	; 0x94
   820ee:	e9dd 100c 	ldrd	r1, r0, [sp, #48]	; 0x30
   820f2:	f003 fd0d 	bl	85b10 <__ssprint_r>
   820f6:	b940      	cbnz	r0, 8210a <_svfprintf_r+0x196>
   820f8:	46d1      	mov	r9, sl
   820fa:	e781      	b.n	82000 <_svfprintf_r+0x8c>
   820fc:	9b27      	ldr	r3, [sp, #156]	; 0x9c
   820fe:	b123      	cbz	r3, 8210a <_svfprintf_r+0x196>
   82100:	980d      	ldr	r0, [sp, #52]	; 0x34
   82102:	aa25      	add	r2, sp, #148	; 0x94
   82104:	990c      	ldr	r1, [sp, #48]	; 0x30
   82106:	f003 fd03 	bl	85b10 <__ssprint_r>
   8210a:	9b0c      	ldr	r3, [sp, #48]	; 0x30
   8210c:	899b      	ldrh	r3, [r3, #12]
   8210e:	f013 0f40 	tst.w	r3, #64	; 0x40
   82112:	9b0a      	ldr	r3, [sp, #40]	; 0x28
   82114:	bf18      	it	ne
   82116:	f04f 33ff 	movne.w	r3, #4294967295	; 0xffffffff
   8211a:	930a      	str	r3, [sp, #40]	; 0x28
   8211c:	980a      	ldr	r0, [sp, #40]	; 0x28
   8211e:	b043      	add	sp, #268	; 0x10c
   82120:	e8bd 8ff0 	ldmia.w	sp!, {r4, r5, r6, r7, r8, r9, sl, fp, pc}
   82124:	f048 0810 	orr.w	r8, r8, #16
   82128:	f018 0f20 	tst.w	r8, #32
   8212c:	f000 8548 	beq.w	82bc0 <_svfprintf_r+0xc4c>
   82130:	9c0f      	ldr	r4, [sp, #60]	; 0x3c
   82132:	3407      	adds	r4, #7
   82134:	f024 0307 	bic.w	r3, r4, #7
   82138:	f103 0208 	add.w	r2, r3, #8
   8213c:	e9d3 4500 	ldrd	r4, r5, [r3]
   82140:	2301      	movs	r3, #1
   82142:	920f      	str	r2, [sp, #60]	; 0x3c
   82144:	2600      	movs	r6, #0
   82146:	9a09      	ldr	r2, [sp, #36]	; 0x24
   82148:	f88d 6077 	strb.w	r6, [sp, #119]	; 0x77
   8214c:	3201      	adds	r2, #1
   8214e:	f000 8409 	beq.w	82964 <_svfprintf_r+0x9f0>
   82152:	f028 0280 	bic.w	r2, r8, #128	; 0x80
   82156:	9207      	str	r2, [sp, #28]
   82158:	ea54 0205 	orrs.w	r2, r4, r5
   8215c:	f040 80bc 	bne.w	822d8 <_svfprintf_r+0x364>
   82160:	9a09      	ldr	r2, [sp, #36]	; 0x24
   82162:	2a00      	cmp	r2, #0
   82164:	f040 86cc 	bne.w	82f00 <_svfprintf_r+0xf8c>
   82168:	2b00      	cmp	r3, #0
   8216a:	f040 84ed 	bne.w	82b48 <_svfprintf_r+0xbd4>
   8216e:	f018 0301 	ands.w	r3, r8, #1
   82172:	930e      	str	r3, [sp, #56]	; 0x38
   82174:	f000 8560 	beq.w	82c38 <_svfprintf_r+0xcc4>
   82178:	2330      	movs	r3, #48	; 0x30
   8217a:	aa42      	add	r2, sp, #264	; 0x108
   8217c:	f802 3d41 	strb.w	r3, [r2, #-65]!
   82180:	9211      	str	r2, [sp, #68]	; 0x44
   82182:	e0ca      	b.n	8231a <_svfprintf_r+0x3a6>
   82184:	f048 0810 	orr.w	r8, r8, #16
   82188:	f018 0320 	ands.w	r3, r8, #32
   8218c:	f000 850d 	beq.w	82baa <_svfprintf_r+0xc36>
   82190:	9c0f      	ldr	r4, [sp, #60]	; 0x3c
   82192:	3407      	adds	r4, #7
   82194:	f024 0307 	bic.w	r3, r4, #7
   82198:	f103 0208 	add.w	r2, r3, #8
   8219c:	e9d3 4500 	ldrd	r4, r5, [r3]
   821a0:	920f      	str	r2, [sp, #60]	; 0x3c
   821a2:	2300      	movs	r3, #0
   821a4:	e7ce      	b.n	82144 <_svfprintf_r+0x1d0>
   821a6:	2000      	movs	r0, #0
   821a8:	f1a7 0330 	sub.w	r3, r7, #48	; 0x30
   821ac:	f81b 7b01 	ldrb.w	r7, [fp], #1
   821b0:	eb00 0080 	add.w	r0, r0, r0, lsl #2
   821b4:	eb03 0040 	add.w	r0, r3, r0, lsl #1
   821b8:	f1a7 0330 	sub.w	r3, r7, #48	; 0x30
   821bc:	2b09      	cmp	r3, #9
   821be:	d9f5      	bls.n	821ac <_svfprintf_r+0x238>
   821c0:	900b      	str	r0, [sp, #44]	; 0x2c
   821c2:	e733      	b.n	8202c <_svfprintf_r+0xb8>
   821c4:	f048 0820 	orr.w	r8, r8, #32
   821c8:	f89b 3000 	ldrb.w	r3, [fp]
   821cc:	e72b      	b.n	82026 <_svfprintf_r+0xb2>
   821ce:	f647 0330 	movw	r3, #30768	; 0x7830
   821d2:	9a0f      	ldr	r2, [sp, #60]	; 0x3c
   821d4:	f8ad 3078 	strh.w	r3, [sp, #120]	; 0x78
   821d8:	1d13      	adds	r3, r2, #4
   821da:	930f      	str	r3, [sp, #60]	; 0x3c
   821dc:	4b9f      	ldr	r3, [pc, #636]	; (8245c <_svfprintf_r+0x4e8>)
   821de:	6814      	ldr	r4, [r2, #0]
   821e0:	9318      	str	r3, [sp, #96]	; 0x60
   821e2:	f048 0802 	orr.w	r8, r8, #2
   821e6:	2500      	movs	r5, #0
   821e8:	2302      	movs	r3, #2
   821ea:	2778      	movs	r7, #120	; 0x78
   821ec:	e7aa      	b.n	82144 <_svfprintf_r+0x1d0>
   821ee:	2500      	movs	r5, #0
   821f0:	9a0f      	ldr	r2, [sp, #60]	; 0x3c
   821f2:	f88d 5077 	strb.w	r5, [sp, #119]	; 0x77
   821f6:	6813      	ldr	r3, [r2, #0]
   821f8:	1d14      	adds	r4, r2, #4
   821fa:	9311      	str	r3, [sp, #68]	; 0x44
   821fc:	2b00      	cmp	r3, #0
   821fe:	f000 8630 	beq.w	82e62 <_svfprintf_r+0xeee>
   82202:	9a09      	ldr	r2, [sp, #36]	; 0x24
   82204:	1c53      	adds	r3, r2, #1
   82206:	f000 86d8 	beq.w	82fba <_svfprintf_r+0x1046>
   8220a:	4629      	mov	r1, r5
   8220c:	9811      	ldr	r0, [sp, #68]	; 0x44
   8220e:	f002 fd1d 	bl	84c4c <memchr>
   82212:	2800      	cmp	r0, #0
   82214:	f000 87ce 	beq.w	831b4 <_svfprintf_r+0x1240>
   82218:	9b11      	ldr	r3, [sp, #68]	; 0x44
   8221a:	9509      	str	r5, [sp, #36]	; 0x24
   8221c:	1ac3      	subs	r3, r0, r3
   8221e:	e9cd 340e 	strd	r3, r4, [sp, #56]	; 0x38
   82222:	f8cd 801c 	str.w	r8, [sp, #28]
   82226:	ea23 73e3 	bic.w	r3, r3, r3, asr #31
   8222a:	f89d 6077 	ldrb.w	r6, [sp, #119]	; 0x77
   8222e:	9308      	str	r3, [sp, #32]
   82230:	9512      	str	r5, [sp, #72]	; 0x48
   82232:	2e00      	cmp	r6, #0
   82234:	f000 808d 	beq.w	82352 <_svfprintf_r+0x3de>
   82238:	9b08      	ldr	r3, [sp, #32]
   8223a:	3301      	adds	r3, #1
   8223c:	9308      	str	r3, [sp, #32]
   8223e:	e088      	b.n	82352 <_svfprintf_r+0x3de>
   82240:	2a00      	cmp	r2, #0
   82242:	f041 80ef 	bne.w	83424 <_svfprintf_r+0x14b0>
   82246:	9a0f      	ldr	r2, [sp, #60]	; 0x3c
   82248:	f018 0f20 	tst.w	r8, #32
   8224c:	f852 3b04 	ldr.w	r3, [r2], #4
   82250:	920f      	str	r2, [sp, #60]	; 0x3c
   82252:	f040 852a 	bne.w	82caa <_svfprintf_r+0xd36>
   82256:	f018 0f10 	tst.w	r8, #16
   8225a:	f040 8627 	bne.w	82eac <_svfprintf_r+0xf38>
   8225e:	f018 0f40 	tst.w	r8, #64	; 0x40
   82262:	f000 8623 	beq.w	82eac <_svfprintf_r+0xf38>
   82266:	9a0a      	ldr	r2, [sp, #40]	; 0x28
   82268:	801a      	strh	r2, [r3, #0]
   8226a:	e6ab      	b.n	81fc4 <_svfprintf_r+0x50>
   8226c:	f89b 3000 	ldrb.w	r3, [fp]
   82270:	2b6c      	cmp	r3, #108	; 0x6c
   82272:	bf03      	ittte	eq
   82274:	f89b 3001 	ldrbeq.w	r3, [fp, #1]
   82278:	f048 0820 	orreq.w	r8, r8, #32
   8227c:	f10b 0b01 	addeq.w	fp, fp, #1
   82280:	f048 0810 	orrne.w	r8, r8, #16
   82284:	e6cf      	b.n	82026 <_svfprintf_r+0xb2>
   82286:	f048 0840 	orr.w	r8, r8, #64	; 0x40
   8228a:	f89b 3000 	ldrb.w	r3, [fp]
   8228e:	e6ca      	b.n	82026 <_svfprintf_r+0xb2>
   82290:	2a00      	cmp	r2, #0
   82292:	f041 80c3 	bne.w	8341c <_svfprintf_r+0x14a8>
   82296:	f018 0f20 	tst.w	r8, #32
   8229a:	f000 820b 	beq.w	826b4 <_svfprintf_r+0x740>
   8229e:	9c0f      	ldr	r4, [sp, #60]	; 0x3c
   822a0:	3407      	adds	r4, #7
   822a2:	f024 0307 	bic.w	r3, r4, #7
   822a6:	f103 0208 	add.w	r2, r3, #8
   822aa:	920f      	str	r2, [sp, #60]	; 0x3c
   822ac:	e9d3 4500 	ldrd	r4, r5, [r3]
   822b0:	2c00      	cmp	r4, #0
   822b2:	f175 0300 	sbcs.w	r3, r5, #0
   822b6:	f2c0 84cb 	blt.w	82c50 <_svfprintf_r+0xcdc>
   822ba:	9b09      	ldr	r3, [sp, #36]	; 0x24
   822bc:	f89d 6077 	ldrb.w	r6, [sp, #119]	; 0x77
   822c0:	3301      	adds	r3, #1
   822c2:	f000 84cf 	beq.w	82c64 <_svfprintf_r+0xcf0>
   822c6:	f028 0280 	bic.w	r2, r8, #128	; 0x80
   822ca:	9207      	str	r2, [sp, #28]
   822cc:	ea54 0205 	orrs.w	r2, r4, r5
   822d0:	f04f 0301 	mov.w	r3, #1
   822d4:	f43f af44 	beq.w	82160 <_svfprintf_r+0x1ec>
   822d8:	2b01      	cmp	r3, #1
   822da:	f000 8348 	beq.w	8296e <_svfprintf_r+0x9fa>
   822de:	2b02      	cmp	r3, #2
   822e0:	f000 839f 	beq.w	82a22 <_svfprintf_r+0xaae>
   822e4:	4651      	mov	r1, sl
   822e6:	e000      	b.n	822ea <_svfprintf_r+0x376>
   822e8:	4611      	mov	r1, r2
   822ea:	08e2      	lsrs	r2, r4, #3
   822ec:	ea42 7245 	orr.w	r2, r2, r5, lsl #29
   822f0:	08e8      	lsrs	r0, r5, #3
   822f2:	f004 0307 	and.w	r3, r4, #7
   822f6:	4605      	mov	r5, r0
   822f8:	4614      	mov	r4, r2
   822fa:	3330      	adds	r3, #48	; 0x30
   822fc:	ea54 0005 	orrs.w	r0, r4, r5
   82300:	f801 3c01 	strb.w	r3, [r1, #-1]
   82304:	f101 32ff 	add.w	r2, r1, #4294967295	; 0xffffffff
   82308:	d1ee      	bne.n	822e8 <_svfprintf_r+0x374>
   8230a:	9807      	ldr	r0, [sp, #28]
   8230c:	9211      	str	r2, [sp, #68]	; 0x44
   8230e:	07c0      	lsls	r0, r0, #31
   82310:	f100 8475 	bmi.w	82bfe <_svfprintf_r+0xc8a>
   82314:	ebaa 0302 	sub.w	r3, sl, r2
   82318:	930e      	str	r3, [sp, #56]	; 0x38
   8231a:	9b09      	ldr	r3, [sp, #36]	; 0x24
   8231c:	9a0e      	ldr	r2, [sp, #56]	; 0x38
   8231e:	4293      	cmp	r3, r2
   82320:	bfb8      	it	lt
   82322:	4613      	movlt	r3, r2
   82324:	9308      	str	r3, [sp, #32]
   82326:	2300      	movs	r3, #0
   82328:	9312      	str	r3, [sp, #72]	; 0x48
   8232a:	e782      	b.n	82232 <_svfprintf_r+0x2be>
   8232c:	2300      	movs	r3, #0
   8232e:	2101      	movs	r1, #1
   82330:	980f      	ldr	r0, [sp, #60]	; 0x3c
   82332:	461e      	mov	r6, r3
   82334:	6802      	ldr	r2, [r0, #0]
   82336:	f88d 3077 	strb.w	r3, [sp, #119]	; 0x77
   8233a:	9309      	str	r3, [sp, #36]	; 0x24
   8233c:	9312      	str	r3, [sp, #72]	; 0x48
   8233e:	1d03      	adds	r3, r0, #4
   82340:	930f      	str	r3, [sp, #60]	; 0x3c
   82342:	ab28      	add	r3, sp, #160	; 0xa0
   82344:	9108      	str	r1, [sp, #32]
   82346:	f8cd 801c 	str.w	r8, [sp, #28]
   8234a:	910e      	str	r1, [sp, #56]	; 0x38
   8234c:	f88d 20a0 	strb.w	r2, [sp, #160]	; 0xa0
   82350:	9311      	str	r3, [sp, #68]	; 0x44
   82352:	9b07      	ldr	r3, [sp, #28]
   82354:	f013 0302 	ands.w	r3, r3, #2
   82358:	9310      	str	r3, [sp, #64]	; 0x40
   8235a:	d002      	beq.n	82362 <_svfprintf_r+0x3ee>
   8235c:	9b08      	ldr	r3, [sp, #32]
   8235e:	3302      	adds	r3, #2
   82360:	9308      	str	r3, [sp, #32]
   82362:	9b07      	ldr	r3, [sp, #28]
   82364:	9c27      	ldr	r4, [sp, #156]	; 0x9c
   82366:	f013 0884 	ands.w	r8, r3, #132	; 0x84
   8236a:	d13f      	bne.n	823ec <_svfprintf_r+0x478>
   8236c:	9b0b      	ldr	r3, [sp, #44]	; 0x2c
   8236e:	9a08      	ldr	r2, [sp, #32]
   82370:	1a9d      	subs	r5, r3, r2
   82372:	2d00      	cmp	r5, #0
   82374:	dd3a      	ble.n	823ec <_svfprintf_r+0x478>
   82376:	2d10      	cmp	r5, #16
   82378:	9b26      	ldr	r3, [sp, #152]	; 0x98
   8237a:	dd29      	ble.n	823d0 <_svfprintf_r+0x45c>
   8237c:	464a      	mov	r2, r9
   8237e:	4621      	mov	r1, r4
   82380:	46a9      	mov	r9, r5
   82382:	e9dd 540c 	ldrd	r5, r4, [sp, #48]	; 0x30
   82386:	2610      	movs	r6, #16
   82388:	e006      	b.n	82398 <_svfprintf_r+0x424>
   8238a:	f1a9 0910 	sub.w	r9, r9, #16
   8238e:	f1b9 0f10 	cmp.w	r9, #16
   82392:	f102 0208 	add.w	r2, r2, #8
   82396:	dd18      	ble.n	823ca <_svfprintf_r+0x456>
   82398:	3301      	adds	r3, #1
   8239a:	4831      	ldr	r0, [pc, #196]	; (82460 <_svfprintf_r+0x4ec>)
   8239c:	3110      	adds	r1, #16
   8239e:	2b07      	cmp	r3, #7
   823a0:	e9cd 3126 	strd	r3, r1, [sp, #152]	; 0x98
   823a4:	e9c2 0600 	strd	r0, r6, [r2]
   823a8:	ddef      	ble.n	8238a <_svfprintf_r+0x416>
   823aa:	aa25      	add	r2, sp, #148	; 0x94
   823ac:	4629      	mov	r1, r5
   823ae:	4620      	mov	r0, r4
   823b0:	f003 fbae 	bl	85b10 <__ssprint_r>
   823b4:	2800      	cmp	r0, #0
   823b6:	f47f aea8 	bne.w	8210a <_svfprintf_r+0x196>
   823ba:	e9dd 3126 	ldrd	r3, r1, [sp, #152]	; 0x98
   823be:	f1a9 0910 	sub.w	r9, r9, #16
   823c2:	f1b9 0f10 	cmp.w	r9, #16
   823c6:	4652      	mov	r2, sl
   823c8:	dce6      	bgt.n	82398 <_svfprintf_r+0x424>
   823ca:	464d      	mov	r5, r9
   823cc:	460c      	mov	r4, r1
   823ce:	4691      	mov	r9, r2
   823d0:	3301      	adds	r3, #1
   823d2:	4a23      	ldr	r2, [pc, #140]	; (82460 <_svfprintf_r+0x4ec>)
   823d4:	442c      	add	r4, r5
   823d6:	2b07      	cmp	r3, #7
   823d8:	e9cd 3426 	strd	r3, r4, [sp, #152]	; 0x98
   823dc:	e9c9 2500 	strd	r2, r5, [r9]
   823e0:	f300 8568 	bgt.w	82eb4 <_svfprintf_r+0xf40>
   823e4:	f89d 6077 	ldrb.w	r6, [sp, #119]	; 0x77
   823e8:	f109 0908 	add.w	r9, r9, #8
   823ec:	b176      	cbz	r6, 8240c <_svfprintf_r+0x498>
   823ee:	2101      	movs	r1, #1
   823f0:	9b26      	ldr	r3, [sp, #152]	; 0x98
   823f2:	440c      	add	r4, r1
   823f4:	440b      	add	r3, r1
   823f6:	f10d 0277 	add.w	r2, sp, #119	; 0x77
   823fa:	2b07      	cmp	r3, #7
   823fc:	e9cd 3426 	strd	r3, r4, [sp, #152]	; 0x98
   82400:	e9c9 2100 	strd	r2, r1, [r9]
   82404:	f300 82f7 	bgt.w	829f6 <_svfprintf_r+0xa82>
   82408:	f109 0908 	add.w	r9, r9, #8
   8240c:	9b10      	ldr	r3, [sp, #64]	; 0x40
   8240e:	b16b      	cbz	r3, 8242c <_svfprintf_r+0x4b8>
   82410:	2102      	movs	r1, #2
   82412:	9b26      	ldr	r3, [sp, #152]	; 0x98
   82414:	440c      	add	r4, r1
   82416:	3301      	adds	r3, #1
   82418:	aa1e      	add	r2, sp, #120	; 0x78
   8241a:	2b07      	cmp	r3, #7
   8241c:	e9cd 3426 	strd	r3, r4, [sp, #152]	; 0x98
   82420:	e9c9 2100 	strd	r2, r1, [r9]
   82424:	f300 82f2 	bgt.w	82a0c <_svfprintf_r+0xa98>
   82428:	f109 0908 	add.w	r9, r9, #8
   8242c:	f1b8 0f80 	cmp.w	r8, #128	; 0x80
   82430:	f000 81e5 	beq.w	827fe <_svfprintf_r+0x88a>
   82434:	9b09      	ldr	r3, [sp, #36]	; 0x24
   82436:	9a0e      	ldr	r2, [sp, #56]	; 0x38
   82438:	1a9d      	subs	r5, r3, r2
   8243a:	2d00      	cmp	r5, #0
   8243c:	dd3f      	ble.n	824be <_svfprintf_r+0x54a>
   8243e:	2d10      	cmp	r5, #16
   82440:	9a26      	ldr	r2, [sp, #152]	; 0x98
   82442:	f340 8592 	ble.w	82f6a <_svfprintf_r+0xff6>
   82446:	f8df 801c 	ldr.w	r8, [pc, #28]	; 82464 <_svfprintf_r+0x4f0>
   8244a:	464b      	mov	r3, r9
   8244c:	4640      	mov	r0, r8
   8244e:	4621      	mov	r1, r4
   82450:	e9dd 940c 	ldrd	r9, r4, [sp, #48]	; 0x30
   82454:	46b8      	mov	r8, r7
   82456:	2610      	movs	r6, #16
   82458:	4607      	mov	r7, r0
   8245a:	e00a      	b.n	82472 <_svfprintf_r+0x4fe>
   8245c:	0008708c 	.word	0x0008708c
   82460:	00087048 	.word	0x00087048
   82464:	00087058 	.word	0x00087058
   82468:	3d10      	subs	r5, #16
   8246a:	2d10      	cmp	r5, #16
   8246c:	f103 0308 	add.w	r3, r3, #8
   82470:	dd15      	ble.n	8249e <_svfprintf_r+0x52a>
   82472:	3201      	adds	r2, #1
   82474:	3110      	adds	r1, #16
   82476:	2a07      	cmp	r2, #7
   82478:	e9cd 2126 	strd	r2, r1, [sp, #152]	; 0x98
   8247c:	e9c3 7600 	strd	r7, r6, [r3]
   82480:	ddf2      	ble.n	82468 <_svfprintf_r+0x4f4>
   82482:	aa25      	add	r2, sp, #148	; 0x94
   82484:	4649      	mov	r1, r9
   82486:	4620      	mov	r0, r4
   82488:	f003 fb42 	bl	85b10 <__ssprint_r>
   8248c:	2800      	cmp	r0, #0
   8248e:	f47f ae3c 	bne.w	8210a <_svfprintf_r+0x196>
   82492:	e9dd 2126 	ldrd	r2, r1, [sp, #152]	; 0x98
   82496:	3d10      	subs	r5, #16
   82498:	2d10      	cmp	r5, #16
   8249a:	4653      	mov	r3, sl
   8249c:	dce9      	bgt.n	82472 <_svfprintf_r+0x4fe>
   8249e:	4699      	mov	r9, r3
   824a0:	463b      	mov	r3, r7
   824a2:	460c      	mov	r4, r1
   824a4:	4647      	mov	r7, r8
   824a6:	4698      	mov	r8, r3
   824a8:	3201      	adds	r2, #1
   824aa:	442c      	add	r4, r5
   824ac:	2a07      	cmp	r2, #7
   824ae:	e9cd 2426 	strd	r2, r4, [sp, #152]	; 0x98
   824b2:	e9c9 8500 	strd	r8, r5, [r9]
   824b6:	f300 82cb 	bgt.w	82a50 <_svfprintf_r+0xadc>
   824ba:	f109 0908 	add.w	r9, r9, #8
   824be:	9b07      	ldr	r3, [sp, #28]
   824c0:	05de      	lsls	r6, r3, #23
   824c2:	f100 8142 	bmi.w	8274a <_svfprintf_r+0x7d6>
   824c6:	9b26      	ldr	r3, [sp, #152]	; 0x98
   824c8:	9a0e      	ldr	r2, [sp, #56]	; 0x38
   824ca:	3301      	adds	r3, #1
   824cc:	9911      	ldr	r1, [sp, #68]	; 0x44
   824ce:	4414      	add	r4, r2
   824d0:	2b07      	cmp	r3, #7
   824d2:	9427      	str	r4, [sp, #156]	; 0x9c
   824d4:	e9c9 1200 	strd	r1, r2, [r9]
   824d8:	9326      	str	r3, [sp, #152]	; 0x98
   824da:	f300 8281 	bgt.w	829e0 <_svfprintf_r+0xa6c>
   824de:	f109 0908 	add.w	r9, r9, #8
   824e2:	9b07      	ldr	r3, [sp, #28]
   824e4:	075b      	lsls	r3, r3, #29
   824e6:	d531      	bpl.n	8254c <_svfprintf_r+0x5d8>
   824e8:	9b0b      	ldr	r3, [sp, #44]	; 0x2c
   824ea:	9a08      	ldr	r2, [sp, #32]
   824ec:	1a9d      	subs	r5, r3, r2
   824ee:	2d00      	cmp	r5, #0
   824f0:	dd2c      	ble.n	8254c <_svfprintf_r+0x5d8>
   824f2:	2d10      	cmp	r5, #16
   824f4:	9b26      	ldr	r3, [sp, #152]	; 0x98
   824f6:	dd1f      	ble.n	82538 <_svfprintf_r+0x5c4>
   824f8:	e9dd 870c 	ldrd	r8, r7, [sp, #48]	; 0x30
   824fc:	2610      	movs	r6, #16
   824fe:	e004      	b.n	8250a <_svfprintf_r+0x596>
   82500:	3d10      	subs	r5, #16
   82502:	2d10      	cmp	r5, #16
   82504:	f109 0908 	add.w	r9, r9, #8
   82508:	dd16      	ble.n	82538 <_svfprintf_r+0x5c4>
   8250a:	3301      	adds	r3, #1
   8250c:	4ac6      	ldr	r2, [pc, #792]	; (82828 <_svfprintf_r+0x8b4>)
   8250e:	3410      	adds	r4, #16
   82510:	2b07      	cmp	r3, #7
   82512:	e9cd 3426 	strd	r3, r4, [sp, #152]	; 0x98
   82516:	e9c9 2600 	strd	r2, r6, [r9]
   8251a:	ddf1      	ble.n	82500 <_svfprintf_r+0x58c>
   8251c:	aa25      	add	r2, sp, #148	; 0x94
   8251e:	4641      	mov	r1, r8
   82520:	4638      	mov	r0, r7
   82522:	f003 faf5 	bl	85b10 <__ssprint_r>
   82526:	2800      	cmp	r0, #0
   82528:	f47f adef 	bne.w	8210a <_svfprintf_r+0x196>
   8252c:	e9dd 3426 	ldrd	r3, r4, [sp, #152]	; 0x98
   82530:	3d10      	subs	r5, #16
   82532:	2d10      	cmp	r5, #16
   82534:	46d1      	mov	r9, sl
   82536:	dce8      	bgt.n	8250a <_svfprintf_r+0x596>
   82538:	3301      	adds	r3, #1
   8253a:	4abb      	ldr	r2, [pc, #748]	; (82828 <_svfprintf_r+0x8b4>)
   8253c:	442c      	add	r4, r5
   8253e:	2b07      	cmp	r3, #7
   82540:	e9cd 3426 	strd	r3, r4, [sp, #152]	; 0x98
   82544:	e9c9 2500 	strd	r2, r5, [r9]
   82548:	f300 836c 	bgt.w	82c24 <_svfprintf_r+0xcb0>
   8254c:	e9dd 320a 	ldrd	r3, r2, [sp, #40]	; 0x28
   82550:	9908      	ldr	r1, [sp, #32]
   82552:	428a      	cmp	r2, r1
   82554:	bfac      	ite	ge
   82556:	189b      	addge	r3, r3, r2
   82558:	185b      	addlt	r3, r3, r1
   8255a:	930a      	str	r3, [sp, #40]	; 0x28
   8255c:	2c00      	cmp	r4, #0
   8255e:	f040 819f 	bne.w	828a0 <_svfprintf_r+0x92c>
   82562:	2300      	movs	r3, #0
   82564:	46d1      	mov	r9, sl
   82566:	9326      	str	r3, [sp, #152]	; 0x98
   82568:	e52c      	b.n	81fc4 <_svfprintf_r+0x50>
   8256a:	2a00      	cmp	r2, #0
   8256c:	f040 876a 	bne.w	83444 <_svfprintf_r+0x14d0>
   82570:	4bae      	ldr	r3, [pc, #696]	; (8282c <_svfprintf_r+0x8b8>)
   82572:	f018 0f20 	tst.w	r8, #32
   82576:	9318      	str	r3, [sp, #96]	; 0x60
   82578:	d040      	beq.n	825fc <_svfprintf_r+0x688>
   8257a:	9c0f      	ldr	r4, [sp, #60]	; 0x3c
   8257c:	3407      	adds	r4, #7
   8257e:	f024 0307 	bic.w	r3, r4, #7
   82582:	f103 0208 	add.w	r2, r3, #8
   82586:	920f      	str	r2, [sp, #60]	; 0x3c
   82588:	e9d3 4500 	ldrd	r4, r5, [r3]
   8258c:	f018 0f01 	tst.w	r8, #1
   82590:	f000 80c3 	beq.w	8271a <_svfprintf_r+0x7a6>
   82594:	ea54 0305 	orrs.w	r3, r4, r5
   82598:	f000 80bf 	beq.w	8271a <_svfprintf_r+0x7a6>
   8259c:	2330      	movs	r3, #48	; 0x30
   8259e:	f88d 7079 	strb.w	r7, [sp, #121]	; 0x79
   825a2:	f88d 3078 	strb.w	r3, [sp, #120]	; 0x78
   825a6:	f048 0802 	orr.w	r8, r8, #2
   825aa:	2302      	movs	r3, #2
   825ac:	e5ca      	b.n	82144 <_svfprintf_r+0x1d0>
   825ae:	f89b 3000 	ldrb.w	r3, [fp]
   825b2:	2201      	movs	r2, #1
   825b4:	212b      	movs	r1, #43	; 0x2b
   825b6:	e536      	b.n	82026 <_svfprintf_r+0xb2>
   825b8:	9b0f      	ldr	r3, [sp, #60]	; 0x3c
   825ba:	681c      	ldr	r4, [r3, #0]
   825bc:	1d18      	adds	r0, r3, #4
   825be:	2c00      	cmp	r4, #0
   825c0:	940b      	str	r4, [sp, #44]	; 0x2c
   825c2:	f89b 3000 	ldrb.w	r3, [fp]
   825c6:	900f      	str	r0, [sp, #60]	; 0x3c
   825c8:	f6bf ad2d 	bge.w	82026 <_svfprintf_r+0xb2>
   825cc:	4260      	negs	r0, r4
   825ce:	900b      	str	r0, [sp, #44]	; 0x2c
   825d0:	e09b      	b.n	8270a <_svfprintf_r+0x796>
   825d2:	f048 0801 	orr.w	r8, r8, #1
   825d6:	f89b 3000 	ldrb.w	r3, [fp]
   825da:	e524      	b.n	82026 <_svfprintf_r+0xb2>
   825dc:	f89b 3000 	ldrb.w	r3, [fp]
   825e0:	2900      	cmp	r1, #0
   825e2:	f47f ad20 	bne.w	82026 <_svfprintf_r+0xb2>
   825e6:	2201      	movs	r2, #1
   825e8:	2120      	movs	r1, #32
   825ea:	e51c      	b.n	82026 <_svfprintf_r+0xb2>
   825ec:	2a00      	cmp	r2, #0
   825ee:	f040 8721 	bne.w	83434 <_svfprintf_r+0x14c0>
   825f2:	4b8f      	ldr	r3, [pc, #572]	; (82830 <_svfprintf_r+0x8bc>)
   825f4:	f018 0f20 	tst.w	r8, #32
   825f8:	9318      	str	r3, [sp, #96]	; 0x60
   825fa:	d1be      	bne.n	8257a <_svfprintf_r+0x606>
   825fc:	9b0f      	ldr	r3, [sp, #60]	; 0x3c
   825fe:	f018 0f10 	tst.w	r8, #16
   82602:	f853 4b04 	ldr.w	r4, [r3], #4
   82606:	930f      	str	r3, [sp, #60]	; 0x3c
   82608:	f040 831a 	bne.w	82c40 <_svfprintf_r+0xccc>
   8260c:	f018 0f40 	tst.w	r8, #64	; 0x40
   82610:	f000 8316 	beq.w	82c40 <_svfprintf_r+0xccc>
   82614:	b2a4      	uxth	r4, r4
   82616:	2500      	movs	r5, #0
   82618:	e7b8      	b.n	8258c <_svfprintf_r+0x618>
   8261a:	f048 0808 	orr.w	r8, r8, #8
   8261e:	f89b 3000 	ldrb.w	r3, [fp]
   82622:	e500      	b.n	82026 <_svfprintf_r+0xb2>
   82624:	2a00      	cmp	r2, #0
   82626:	f040 86ed 	bne.w	83404 <_svfprintf_r+0x1490>
   8262a:	9c0f      	ldr	r4, [sp, #60]	; 0x3c
   8262c:	3407      	adds	r4, #7
   8262e:	f024 0607 	bic.w	r6, r4, #7
   82632:	e9d6 2300 	ldrd	r2, r3, [r6]
   82636:	f023 4400 	bic.w	r4, r3, #2147483648	; 0x80000000
   8263a:	9215      	str	r2, [sp, #84]	; 0x54
   8263c:	4615      	mov	r5, r2
   8263e:	4610      	mov	r0, r2
   82640:	9314      	str	r3, [sp, #80]	; 0x50
   82642:	3608      	adds	r6, #8
   82644:	4621      	mov	r1, r4
   82646:	f04f 32ff 	mov.w	r2, #4294967295	; 0xffffffff
   8264a:	4b7a      	ldr	r3, [pc, #488]	; (82834 <_svfprintf_r+0x8c0>)
   8264c:	960f      	str	r6, [sp, #60]	; 0x3c
   8264e:	f004 fcb1 	bl	86fb4 <__aeabi_dcmpun>
   82652:	2800      	cmp	r0, #0
   82654:	f040 8340 	bne.w	82cd8 <_svfprintf_r+0xd64>
   82658:	4628      	mov	r0, r5
   8265a:	4621      	mov	r1, r4
   8265c:	f04f 32ff 	mov.w	r2, #4294967295	; 0xffffffff
   82660:	4b74      	ldr	r3, [pc, #464]	; (82834 <_svfprintf_r+0x8c0>)
   82662:	f004 fc89 	bl	86f78 <__aeabi_dcmple>
   82666:	2800      	cmp	r0, #0
   82668:	f040 8336 	bne.w	82cd8 <_svfprintf_r+0xd64>
   8266c:	e9dd 0215 	ldrd	r0, r2, [sp, #84]	; 0x54
   82670:	9b17      	ldr	r3, [sp, #92]	; 0x5c
   82672:	9914      	ldr	r1, [sp, #80]	; 0x50
   82674:	f004 fc76 	bl	86f64 <__aeabi_dcmplt>
   82678:	2800      	cmp	r0, #0
   8267a:	f040 852f 	bne.w	830dc <_svfprintf_r+0x1168>
   8267e:	f89d 6077 	ldrb.w	r6, [sp, #119]	; 0x77
   82682:	2103      	movs	r1, #3
   82684:	2000      	movs	r0, #0
   82686:	e9cd 1008 	strd	r1, r0, [sp, #32]
   8268a:	4a6b      	ldr	r2, [pc, #428]	; (82838 <_svfprintf_r+0x8c4>)
   8268c:	4b6b      	ldr	r3, [pc, #428]	; (8283c <_svfprintf_r+0x8c8>)
   8268e:	2f47      	cmp	r7, #71	; 0x47
   82690:	bfd8      	it	le
   82692:	461a      	movle	r2, r3
   82694:	f028 0480 	bic.w	r4, r8, #128	; 0x80
   82698:	9407      	str	r4, [sp, #28]
   8269a:	910e      	str	r1, [sp, #56]	; 0x38
   8269c:	9012      	str	r0, [sp, #72]	; 0x48
   8269e:	9211      	str	r2, [sp, #68]	; 0x44
   826a0:	e5c7      	b.n	82232 <_svfprintf_r+0x2be>
   826a2:	2a00      	cmp	r2, #0
   826a4:	f040 86c2 	bne.w	8342c <_svfprintf_r+0x14b8>
   826a8:	f048 0810 	orr.w	r8, r8, #16
   826ac:	f018 0f20 	tst.w	r8, #32
   826b0:	f47f adf5 	bne.w	8229e <_svfprintf_r+0x32a>
   826b4:	9b0f      	ldr	r3, [sp, #60]	; 0x3c
   826b6:	f018 0f10 	tst.w	r8, #16
   826ba:	f853 4b04 	ldr.w	r4, [r3], #4
   826be:	930f      	str	r3, [sp, #60]	; 0x3c
   826c0:	f040 82c0 	bne.w	82c44 <_svfprintf_r+0xcd0>
   826c4:	f018 0f40 	tst.w	r8, #64	; 0x40
   826c8:	f000 82bc 	beq.w	82c44 <_svfprintf_r+0xcd0>
   826cc:	b224      	sxth	r4, r4
   826ce:	17e5      	asrs	r5, r4, #31
   826d0:	e5ee      	b.n	822b0 <_svfprintf_r+0x33c>
   826d2:	f89b 7000 	ldrb.w	r7, [fp]
   826d6:	f10b 0001 	add.w	r0, fp, #1
   826da:	2f2a      	cmp	r7, #42	; 0x2a
   826dc:	f000 867d 	beq.w	833da <_svfprintf_r+0x1466>
   826e0:	f1a7 0330 	sub.w	r3, r7, #48	; 0x30
   826e4:	2b09      	cmp	r3, #9
   826e6:	4683      	mov	fp, r0
   826e8:	f200 8560 	bhi.w	831ac <_svfprintf_r+0x1238>
   826ec:	2000      	movs	r0, #0
   826ee:	f81b 7b01 	ldrb.w	r7, [fp], #1
   826f2:	eb00 0080 	add.w	r0, r0, r0, lsl #2
   826f6:	eb03 0040 	add.w	r0, r3, r0, lsl #1
   826fa:	f1a7 0330 	sub.w	r3, r7, #48	; 0x30
   826fe:	2b09      	cmp	r3, #9
   82700:	d9f5      	bls.n	826ee <_svfprintf_r+0x77a>
   82702:	9009      	str	r0, [sp, #36]	; 0x24
   82704:	e492      	b.n	8202c <_svfprintf_r+0xb8>
   82706:	f89b 3000 	ldrb.w	r3, [fp]
   8270a:	f048 0804 	orr.w	r8, r8, #4
   8270e:	e48a      	b.n	82026 <_svfprintf_r+0xb2>
   82710:	f048 0880 	orr.w	r8, r8, #128	; 0x80
   82714:	f89b 3000 	ldrb.w	r3, [fp]
   82718:	e485      	b.n	82026 <_svfprintf_r+0xb2>
   8271a:	2302      	movs	r3, #2
   8271c:	e512      	b.n	82144 <_svfprintf_r+0x1d0>
   8271e:	2a00      	cmp	r2, #0
   82720:	f040 868c 	bne.w	8343c <_svfprintf_r+0x14c8>
   82724:	2f00      	cmp	r7, #0
   82726:	f43f ace9 	beq.w	820fc <_svfprintf_r+0x188>
   8272a:	2300      	movs	r3, #0
   8272c:	2201      	movs	r2, #1
   8272e:	461e      	mov	r6, r3
   82730:	f88d 3077 	strb.w	r3, [sp, #119]	; 0x77
   82734:	9309      	str	r3, [sp, #36]	; 0x24
   82736:	9312      	str	r3, [sp, #72]	; 0x48
   82738:	ab28      	add	r3, sp, #160	; 0xa0
   8273a:	9208      	str	r2, [sp, #32]
   8273c:	f88d 70a0 	strb.w	r7, [sp, #160]	; 0xa0
   82740:	f8cd 801c 	str.w	r8, [sp, #28]
   82744:	920e      	str	r2, [sp, #56]	; 0x38
   82746:	9311      	str	r3, [sp, #68]	; 0x44
   82748:	e603      	b.n	82352 <_svfprintf_r+0x3de>
   8274a:	2f65      	cmp	r7, #101	; 0x65
   8274c:	f340 80b1 	ble.w	828b2 <_svfprintf_r+0x93e>
   82750:	e9dd 0215 	ldrd	r0, r2, [sp, #84]	; 0x54
   82754:	9b17      	ldr	r3, [sp, #92]	; 0x5c
   82756:	9914      	ldr	r1, [sp, #80]	; 0x50
   82758:	f004 fbfa 	bl	86f50 <__aeabi_dcmpeq>
   8275c:	2800      	cmp	r0, #0
   8275e:	f000 8182 	beq.w	82a66 <_svfprintf_r+0xaf2>
   82762:	2101      	movs	r1, #1
   82764:	9b26      	ldr	r3, [sp, #152]	; 0x98
   82766:	4a36      	ldr	r2, [pc, #216]	; (82840 <_svfprintf_r+0x8cc>)
   82768:	440b      	add	r3, r1
   8276a:	440c      	add	r4, r1
   8276c:	2b07      	cmp	r3, #7
   8276e:	9427      	str	r4, [sp, #156]	; 0x9c
   82770:	9326      	str	r3, [sp, #152]	; 0x98
   82772:	e9c9 2100 	strd	r2, r1, [r9]
   82776:	f300 83ee 	bgt.w	82f56 <_svfprintf_r+0xfe2>
   8277a:	f109 0908 	add.w	r9, r9, #8
   8277e:	9b1f      	ldr	r3, [sp, #124]	; 0x7c
   82780:	9a13      	ldr	r2, [sp, #76]	; 0x4c
   82782:	9c27      	ldr	r4, [sp, #156]	; 0x9c
   82784:	4293      	cmp	r3, r2
   82786:	f280 8248 	bge.w	82c1a <_svfprintf_r+0xca6>
   8278a:	9b26      	ldr	r3, [sp, #152]	; 0x98
   8278c:	9a19      	ldr	r2, [sp, #100]	; 0x64
   8278e:	3301      	adds	r3, #1
   82790:	991a      	ldr	r1, [sp, #104]	; 0x68
   82792:	4414      	add	r4, r2
   82794:	2b07      	cmp	r3, #7
   82796:	e9c9 1200 	strd	r1, r2, [r9]
   8279a:	e9cd 3426 	strd	r3, r4, [sp, #152]	; 0x98
   8279e:	f300 8355 	bgt.w	82e4c <_svfprintf_r+0xed8>
   827a2:	f109 0908 	add.w	r9, r9, #8
   827a6:	9b13      	ldr	r3, [sp, #76]	; 0x4c
   827a8:	1e5d      	subs	r5, r3, #1
   827aa:	2d00      	cmp	r5, #0
   827ac:	f77f ae99 	ble.w	824e2 <_svfprintf_r+0x56e>
   827b0:	2d10      	cmp	r5, #16
   827b2:	9a26      	ldr	r2, [sp, #152]	; 0x98
   827b4:	f340 859f 	ble.w	832f6 <_svfprintf_r+0x1382>
   827b8:	f8df 8088 	ldr.w	r8, [pc, #136]	; 82844 <_svfprintf_r+0x8d0>
   827bc:	4623      	mov	r3, r4
   827be:	2610      	movs	r6, #16
   827c0:	4644      	mov	r4, r8
   827c2:	9f0d      	ldr	r7, [sp, #52]	; 0x34
   827c4:	f8dd 8030 	ldr.w	r8, [sp, #48]	; 0x30
   827c8:	e005      	b.n	827d6 <_svfprintf_r+0x862>
   827ca:	f109 0908 	add.w	r9, r9, #8
   827ce:	3d10      	subs	r5, #16
   827d0:	2d10      	cmp	r5, #16
   827d2:	f340 8399 	ble.w	82f08 <_svfprintf_r+0xf94>
   827d6:	3201      	adds	r2, #1
   827d8:	3310      	adds	r3, #16
   827da:	2a07      	cmp	r2, #7
   827dc:	e9cd 2326 	strd	r2, r3, [sp, #152]	; 0x98
   827e0:	e9c9 4600 	strd	r4, r6, [r9]
   827e4:	ddf1      	ble.n	827ca <_svfprintf_r+0x856>
   827e6:	aa25      	add	r2, sp, #148	; 0x94
   827e8:	4641      	mov	r1, r8
   827ea:	4638      	mov	r0, r7
   827ec:	f003 f990 	bl	85b10 <__ssprint_r>
   827f0:	2800      	cmp	r0, #0
   827f2:	f47f ac8a 	bne.w	8210a <_svfprintf_r+0x196>
   827f6:	e9dd 2326 	ldrd	r2, r3, [sp, #152]	; 0x98
   827fa:	46d1      	mov	r9, sl
   827fc:	e7e7      	b.n	827ce <_svfprintf_r+0x85a>
   827fe:	9b0b      	ldr	r3, [sp, #44]	; 0x2c
   82800:	9a08      	ldr	r2, [sp, #32]
   82802:	1a9d      	subs	r5, r3, r2
   82804:	2d00      	cmp	r5, #0
   82806:	f77f ae15 	ble.w	82434 <_svfprintf_r+0x4c0>
   8280a:	2d10      	cmp	r5, #16
   8280c:	9a26      	ldr	r2, [sp, #152]	; 0x98
   8280e:	f340 84b3 	ble.w	83178 <_svfprintf_r+0x1204>
   82812:	f8df 8030 	ldr.w	r8, [pc, #48]	; 82844 <_svfprintf_r+0x8d0>
   82816:	464b      	mov	r3, r9
   82818:	4640      	mov	r0, r8
   8281a:	4621      	mov	r1, r4
   8281c:	e9dd 940c 	ldrd	r9, r4, [sp, #48]	; 0x30
   82820:	46b8      	mov	r8, r7
   82822:	2610      	movs	r6, #16
   82824:	4607      	mov	r7, r0
   82826:	e014      	b.n	82852 <_svfprintf_r+0x8de>
   82828:	00087048 	.word	0x00087048
   8282c:	00087078 	.word	0x00087078
   82830:	0008708c 	.word	0x0008708c
   82834:	7fefffff 	.word	0x7fefffff
   82838:	0008706c 	.word	0x0008706c
   8283c:	00087068 	.word	0x00087068
   82840:	000870a8 	.word	0x000870a8
   82844:	00087058 	.word	0x00087058
   82848:	3d10      	subs	r5, #16
   8284a:	2d10      	cmp	r5, #16
   8284c:	f103 0308 	add.w	r3, r3, #8
   82850:	dd15      	ble.n	8287e <_svfprintf_r+0x90a>
   82852:	3201      	adds	r2, #1
   82854:	3110      	adds	r1, #16
   82856:	2a07      	cmp	r2, #7
   82858:	e9cd 2126 	strd	r2, r1, [sp, #152]	; 0x98
   8285c:	e9c3 7600 	strd	r7, r6, [r3]
   82860:	ddf2      	ble.n	82848 <_svfprintf_r+0x8d4>
   82862:	aa25      	add	r2, sp, #148	; 0x94
   82864:	4649      	mov	r1, r9
   82866:	4620      	mov	r0, r4
   82868:	f003 f952 	bl	85b10 <__ssprint_r>
   8286c:	2800      	cmp	r0, #0
   8286e:	f47f ac4c 	bne.w	8210a <_svfprintf_r+0x196>
   82872:	e9dd 2126 	ldrd	r2, r1, [sp, #152]	; 0x98
   82876:	3d10      	subs	r5, #16
   82878:	2d10      	cmp	r5, #16
   8287a:	4653      	mov	r3, sl
   8287c:	dce9      	bgt.n	82852 <_svfprintf_r+0x8de>
   8287e:	4699      	mov	r9, r3
   82880:	463b      	mov	r3, r7
   82882:	460c      	mov	r4, r1
   82884:	4647      	mov	r7, r8
   82886:	4698      	mov	r8, r3
   82888:	3201      	adds	r2, #1
   8288a:	442c      	add	r4, r5
   8288c:	2a07      	cmp	r2, #7
   8288e:	e9cd 2426 	strd	r2, r4, [sp, #152]	; 0x98
   82892:	e9c9 8500 	strd	r8, r5, [r9]
   82896:	f300 8343 	bgt.w	82f20 <_svfprintf_r+0xfac>
   8289a:	f109 0908 	add.w	r9, r9, #8
   8289e:	e5c9      	b.n	82434 <_svfprintf_r+0x4c0>
   828a0:	aa25      	add	r2, sp, #148	; 0x94
   828a2:	e9dd 100c 	ldrd	r1, r0, [sp, #48]	; 0x30
   828a6:	f003 f933 	bl	85b10 <__ssprint_r>
   828aa:	2800      	cmp	r0, #0
   828ac:	f43f ae59 	beq.w	82562 <_svfprintf_r+0x5ee>
   828b0:	e42b      	b.n	8210a <_svfprintf_r+0x196>
   828b2:	9a13      	ldr	r2, [sp, #76]	; 0x4c
   828b4:	9b26      	ldr	r3, [sp, #152]	; 0x98
   828b6:	2a01      	cmp	r2, #1
   828b8:	f104 0401 	add.w	r4, r4, #1
   828bc:	f103 0501 	add.w	r5, r3, #1
   828c0:	f109 0608 	add.w	r6, r9, #8
   828c4:	f340 8187 	ble.w	82bd6 <_svfprintf_r+0xc62>
   828c8:	2301      	movs	r3, #1
   828ca:	9a11      	ldr	r2, [sp, #68]	; 0x44
   828cc:	2d07      	cmp	r5, #7
   828ce:	f8c9 2000 	str.w	r2, [r9]
   828d2:	e9cd 5426 	strd	r5, r4, [sp, #152]	; 0x98
   828d6:	f8c9 3004 	str.w	r3, [r9, #4]
   828da:	f300 82f9 	bgt.w	82ed0 <_svfprintf_r+0xf5c>
   828de:	9b19      	ldr	r3, [sp, #100]	; 0x64
   828e0:	3501      	adds	r5, #1
   828e2:	9a1a      	ldr	r2, [sp, #104]	; 0x68
   828e4:	441c      	add	r4, r3
   828e6:	2d07      	cmp	r5, #7
   828e8:	e9cd 5426 	strd	r5, r4, [sp, #152]	; 0x98
   828ec:	e9c6 2300 	strd	r2, r3, [r6]
   828f0:	f300 82fa 	bgt.w	82ee8 <_svfprintf_r+0xf74>
   828f4:	3608      	adds	r6, #8
   828f6:	1c6f      	adds	r7, r5, #1
   828f8:	970e      	str	r7, [sp, #56]	; 0x38
   828fa:	9709      	str	r7, [sp, #36]	; 0x24
   828fc:	9f13      	ldr	r7, [sp, #76]	; 0x4c
   828fe:	e9dd 0215 	ldrd	r0, r2, [sp, #84]	; 0x54
   82902:	9b17      	ldr	r3, [sp, #92]	; 0x5c
   82904:	9914      	ldr	r1, [sp, #80]	; 0x50
   82906:	3f01      	subs	r7, #1
   82908:	f106 0908 	add.w	r9, r6, #8
   8290c:	f004 fb20 	bl	86f50 <__aeabi_dcmpeq>
   82910:	2800      	cmp	r0, #0
   82912:	f040 811f 	bne.w	82b54 <_svfprintf_r+0xbe0>
   82916:	443c      	add	r4, r7
   82918:	9b11      	ldr	r3, [sp, #68]	; 0x44
   8291a:	6077      	str	r7, [r6, #4]
   8291c:	9f09      	ldr	r7, [sp, #36]	; 0x24
   8291e:	3301      	adds	r3, #1
   82920:	2f07      	cmp	r7, #7
   82922:	6033      	str	r3, [r6, #0]
   82924:	9427      	str	r4, [sp, #156]	; 0x9c
   82926:	9726      	str	r7, [sp, #152]	; 0x98
   82928:	f300 8280 	bgt.w	82e2c <_svfprintf_r+0xeb8>
   8292c:	f106 0310 	add.w	r3, r6, #16
   82930:	464e      	mov	r6, r9
   82932:	4699      	mov	r9, r3
   82934:	1caa      	adds	r2, r5, #2
   82936:	9209      	str	r2, [sp, #36]	; 0x24
   82938:	9a1b      	ldr	r2, [sp, #108]	; 0x6c
   8293a:	ab21      	add	r3, sp, #132	; 0x84
   8293c:	4414      	add	r4, r2
   8293e:	6072      	str	r2, [r6, #4]
   82940:	9a09      	ldr	r2, [sp, #36]	; 0x24
   82942:	9427      	str	r4, [sp, #156]	; 0x9c
   82944:	2a07      	cmp	r2, #7
   82946:	9226      	str	r2, [sp, #152]	; 0x98
   82948:	6033      	str	r3, [r6, #0]
   8294a:	f77f adca 	ble.w	824e2 <_svfprintf_r+0x56e>
   8294e:	e9dd 100c 	ldrd	r1, r0, [sp, #48]	; 0x30
   82952:	aa25      	add	r2, sp, #148	; 0x94
   82954:	f003 f8dc 	bl	85b10 <__ssprint_r>
   82958:	2800      	cmp	r0, #0
   8295a:	f47f abd6 	bne.w	8210a <_svfprintf_r+0x196>
   8295e:	46d1      	mov	r9, sl
   82960:	9c27      	ldr	r4, [sp, #156]	; 0x9c
   82962:	e5be      	b.n	824e2 <_svfprintf_r+0x56e>
   82964:	2b01      	cmp	r3, #1
   82966:	f8cd 801c 	str.w	r8, [sp, #28]
   8296a:	f47f acb8 	bne.w	822de <_svfprintf_r+0x36a>
   8296e:	2d00      	cmp	r5, #0
   82970:	bf08      	it	eq
   82972:	2c0a      	cmpeq	r4, #10
   82974:	f080 817d 	bcs.w	82c72 <_svfprintf_r+0xcfe>
   82978:	ab42      	add	r3, sp, #264	; 0x108
   8297a:	3430      	adds	r4, #48	; 0x30
   8297c:	f803 4d41 	strb.w	r4, [r3, #-65]!
   82980:	9311      	str	r3, [sp, #68]	; 0x44
   82982:	2301      	movs	r3, #1
   82984:	930e      	str	r3, [sp, #56]	; 0x38
   82986:	e4c8      	b.n	8231a <_svfprintf_r+0x3a6>
   82988:	aa25      	add	r2, sp, #148	; 0x94
   8298a:	e9dd 100c 	ldrd	r1, r0, [sp, #48]	; 0x30
   8298e:	f003 f8bf 	bl	85b10 <__ssprint_r>
   82992:	2800      	cmp	r0, #0
   82994:	f47f abb9 	bne.w	8210a <_svfprintf_r+0x196>
   82998:	46d1      	mov	r9, sl
   8299a:	9b1f      	ldr	r3, [sp, #124]	; 0x7c
   8299c:	9c27      	ldr	r4, [sp, #156]	; 0x9c
   8299e:	b91b      	cbnz	r3, 829a8 <_svfprintf_r+0xa34>
   829a0:	9a13      	ldr	r2, [sp, #76]	; 0x4c
   829a2:	2a00      	cmp	r2, #0
   829a4:	f000 8314 	beq.w	82fd0 <_svfprintf_r+0x105c>
   829a8:	9a26      	ldr	r2, [sp, #152]	; 0x98
   829aa:	9919      	ldr	r1, [sp, #100]	; 0x64
   829ac:	3201      	adds	r2, #1
   829ae:	981a      	ldr	r0, [sp, #104]	; 0x68
   829b0:	440c      	add	r4, r1
   829b2:	2a07      	cmp	r2, #7
   829b4:	9427      	str	r4, [sp, #156]	; 0x9c
   829b6:	e9c9 0100 	strd	r0, r1, [r9]
   829ba:	9226      	str	r2, [sp, #152]	; 0x98
   829bc:	f300 8406 	bgt.w	831cc <_svfprintf_r+0x1258>
   829c0:	f109 0908 	add.w	r9, r9, #8
   829c4:	2b00      	cmp	r3, #0
   829c6:	f2c0 843f 	blt.w	83248 <_svfprintf_r+0x12d4>
   829ca:	9b13      	ldr	r3, [sp, #76]	; 0x4c
   829cc:	3201      	adds	r2, #1
   829ce:	9911      	ldr	r1, [sp, #68]	; 0x44
   829d0:	441c      	add	r4, r3
   829d2:	2a07      	cmp	r2, #7
   829d4:	e9cd 2426 	strd	r2, r4, [sp, #152]	; 0x98
   829d8:	e9c9 1300 	strd	r1, r3, [r9]
   829dc:	f77f ad7f 	ble.w	824de <_svfprintf_r+0x56a>
   829e0:	e9dd 100c 	ldrd	r1, r0, [sp, #48]	; 0x30
   829e4:	aa25      	add	r2, sp, #148	; 0x94
   829e6:	f003 f893 	bl	85b10 <__ssprint_r>
   829ea:	2800      	cmp	r0, #0
   829ec:	f47f ab8d 	bne.w	8210a <_svfprintf_r+0x196>
   829f0:	9c27      	ldr	r4, [sp, #156]	; 0x9c
   829f2:	46d1      	mov	r9, sl
   829f4:	e575      	b.n	824e2 <_svfprintf_r+0x56e>
   829f6:	aa25      	add	r2, sp, #148	; 0x94
   829f8:	e9dd 100c 	ldrd	r1, r0, [sp, #48]	; 0x30
   829fc:	f003 f888 	bl	85b10 <__ssprint_r>
   82a00:	2800      	cmp	r0, #0
   82a02:	f47f ab82 	bne.w	8210a <_svfprintf_r+0x196>
   82a06:	46d1      	mov	r9, sl
   82a08:	9c27      	ldr	r4, [sp, #156]	; 0x9c
   82a0a:	e4ff      	b.n	8240c <_svfprintf_r+0x498>
   82a0c:	aa25      	add	r2, sp, #148	; 0x94
   82a0e:	e9dd 100c 	ldrd	r1, r0, [sp, #48]	; 0x30
   82a12:	f003 f87d 	bl	85b10 <__ssprint_r>
   82a16:	2800      	cmp	r0, #0
   82a18:	f47f ab77 	bne.w	8210a <_svfprintf_r+0x196>
   82a1c:	46d1      	mov	r9, sl
   82a1e:	9c27      	ldr	r4, [sp, #156]	; 0x9c
   82a20:	e504      	b.n	8242c <_svfprintf_r+0x4b8>
   82a22:	4652      	mov	r2, sl
   82a24:	f8dd c060 	ldr.w	ip, [sp, #96]	; 0x60
   82a28:	0923      	lsrs	r3, r4, #4
   82a2a:	ea43 7305 	orr.w	r3, r3, r5, lsl #28
   82a2e:	0928      	lsrs	r0, r5, #4
   82a30:	f004 010f 	and.w	r1, r4, #15
   82a34:	4605      	mov	r5, r0
   82a36:	461c      	mov	r4, r3
   82a38:	f81c 3001 	ldrb.w	r3, [ip, r1]
   82a3c:	f802 3d01 	strb.w	r3, [r2, #-1]!
   82a40:	ea54 0305 	orrs.w	r3, r4, r5
   82a44:	d1f0      	bne.n	82a28 <_svfprintf_r+0xab4>
   82a46:	ebaa 0302 	sub.w	r3, sl, r2
   82a4a:	9211      	str	r2, [sp, #68]	; 0x44
   82a4c:	930e      	str	r3, [sp, #56]	; 0x38
   82a4e:	e464      	b.n	8231a <_svfprintf_r+0x3a6>
   82a50:	aa25      	add	r2, sp, #148	; 0x94
   82a52:	e9dd 100c 	ldrd	r1, r0, [sp, #48]	; 0x30
   82a56:	f003 f85b 	bl	85b10 <__ssprint_r>
   82a5a:	2800      	cmp	r0, #0
   82a5c:	f47f ab55 	bne.w	8210a <_svfprintf_r+0x196>
   82a60:	46d1      	mov	r9, sl
   82a62:	9c27      	ldr	r4, [sp, #156]	; 0x9c
   82a64:	e52b      	b.n	824be <_svfprintf_r+0x54a>
   82a66:	9b1f      	ldr	r3, [sp, #124]	; 0x7c
   82a68:	2b00      	cmp	r3, #0
   82a6a:	f340 8265 	ble.w	82f38 <_svfprintf_r+0xfc4>
   82a6e:	e9dd 3212 	ldrd	r3, r2, [sp, #72]	; 0x48
   82a72:	4293      	cmp	r3, r2
   82a74:	bfa8      	it	ge
   82a76:	4613      	movge	r3, r2
   82a78:	2b00      	cmp	r3, #0
   82a7a:	461d      	mov	r5, r3
   82a7c:	dd0c      	ble.n	82a98 <_svfprintf_r+0xb24>
   82a7e:	9b26      	ldr	r3, [sp, #152]	; 0x98
   82a80:	9a11      	ldr	r2, [sp, #68]	; 0x44
   82a82:	3301      	adds	r3, #1
   82a84:	442c      	add	r4, r5
   82a86:	2b07      	cmp	r3, #7
   82a88:	9427      	str	r4, [sp, #156]	; 0x9c
   82a8a:	e9c9 2500 	strd	r2, r5, [r9]
   82a8e:	9326      	str	r3, [sp, #152]	; 0x98
   82a90:	f300 832a 	bgt.w	830e8 <_svfprintf_r+0x1174>
   82a94:	f109 0908 	add.w	r9, r9, #8
   82a98:	9b12      	ldr	r3, [sp, #72]	; 0x48
   82a9a:	2d00      	cmp	r5, #0
   82a9c:	bfa8      	it	ge
   82a9e:	1b5b      	subge	r3, r3, r5
   82aa0:	2b00      	cmp	r3, #0
   82aa2:	461d      	mov	r5, r3
   82aa4:	f300 818c 	bgt.w	82dc0 <_svfprintf_r+0xe4c>
   82aa8:	9b1f      	ldr	r3, [sp, #124]	; 0x7c
   82aaa:	9a13      	ldr	r2, [sp, #76]	; 0x4c
   82aac:	4293      	cmp	r3, r2
   82aae:	f2c0 81ee 	blt.w	82e8e <_svfprintf_r+0xf1a>
   82ab2:	9a07      	ldr	r2, [sp, #28]
   82ab4:	07d1      	lsls	r1, r2, #31
   82ab6:	f100 81ea 	bmi.w	82e8e <_svfprintf_r+0xf1a>
   82aba:	9a13      	ldr	r2, [sp, #76]	; 0x4c
   82abc:	9812      	ldr	r0, [sp, #72]	; 0x48
   82abe:	1ad3      	subs	r3, r2, r3
   82ac0:	1a15      	subs	r5, r2, r0
   82ac2:	429d      	cmp	r5, r3
   82ac4:	bfa8      	it	ge
   82ac6:	461d      	movge	r5, r3
   82ac8:	2d00      	cmp	r5, #0
   82aca:	dd0f      	ble.n	82aec <_svfprintf_r+0xb78>
   82acc:	9a26      	ldr	r2, [sp, #152]	; 0x98
   82ace:	9911      	ldr	r1, [sp, #68]	; 0x44
   82ad0:	3201      	adds	r2, #1
   82ad2:	4401      	add	r1, r0
   82ad4:	442c      	add	r4, r5
   82ad6:	2a07      	cmp	r2, #7
   82ad8:	f8c9 1000 	str.w	r1, [r9]
   82adc:	9427      	str	r4, [sp, #156]	; 0x9c
   82ade:	f8c9 5004 	str.w	r5, [r9, #4]
   82ae2:	9226      	str	r2, [sp, #152]	; 0x98
   82ae4:	f300 8334 	bgt.w	83150 <_svfprintf_r+0x11dc>
   82ae8:	f109 0908 	add.w	r9, r9, #8
   82aec:	2d00      	cmp	r5, #0
   82aee:	bfb4      	ite	lt
   82af0:	461d      	movlt	r5, r3
   82af2:	1b5d      	subge	r5, r3, r5
   82af4:	2d00      	cmp	r5, #0
   82af6:	f77f acf4 	ble.w	824e2 <_svfprintf_r+0x56e>
   82afa:	2d10      	cmp	r5, #16
   82afc:	9a26      	ldr	r2, [sp, #152]	; 0x98
   82afe:	f340 83fa 	ble.w	832f6 <_svfprintf_r+0x1382>
   82b02:	f8df 8670 	ldr.w	r8, [pc, #1648]	; 83174 <_svfprintf_r+0x1200>
   82b06:	4623      	mov	r3, r4
   82b08:	2610      	movs	r6, #16
   82b0a:	4644      	mov	r4, r8
   82b0c:	9f0d      	ldr	r7, [sp, #52]	; 0x34
   82b0e:	f8dd 8030 	ldr.w	r8, [sp, #48]	; 0x30
   82b12:	e005      	b.n	82b20 <_svfprintf_r+0xbac>
   82b14:	f109 0908 	add.w	r9, r9, #8
   82b18:	3d10      	subs	r5, #16
   82b1a:	2d10      	cmp	r5, #16
   82b1c:	f340 81f4 	ble.w	82f08 <_svfprintf_r+0xf94>
   82b20:	3201      	adds	r2, #1
   82b22:	3310      	adds	r3, #16
   82b24:	2a07      	cmp	r2, #7
   82b26:	e9cd 2326 	strd	r2, r3, [sp, #152]	; 0x98
   82b2a:	e9c9 4600 	strd	r4, r6, [r9]
   82b2e:	ddf1      	ble.n	82b14 <_svfprintf_r+0xba0>
   82b30:	aa25      	add	r2, sp, #148	; 0x94
   82b32:	4641      	mov	r1, r8
   82b34:	4638      	mov	r0, r7
   82b36:	f002 ffeb 	bl	85b10 <__ssprint_r>
   82b3a:	2800      	cmp	r0, #0
   82b3c:	f47f aae5 	bne.w	8210a <_svfprintf_r+0x196>
   82b40:	e9dd 2326 	ldrd	r2, r3, [sp, #152]	; 0x98
   82b44:	46d1      	mov	r9, sl
   82b46:	e7e7      	b.n	82b18 <_svfprintf_r+0xba4>
   82b48:	9b09      	ldr	r3, [sp, #36]	; 0x24
   82b4a:	f8cd a044 	str.w	sl, [sp, #68]	; 0x44
   82b4e:	930e      	str	r3, [sp, #56]	; 0x38
   82b50:	f7ff bbe3 	b.w	8231a <_svfprintf_r+0x3a6>
   82b54:	2f00      	cmp	r7, #0
   82b56:	f77f aeef 	ble.w	82938 <_svfprintf_r+0x9c4>
   82b5a:	2f10      	cmp	r7, #16
   82b5c:	f340 841a 	ble.w	83394 <_svfprintf_r+0x1420>
   82b60:	f8df 8610 	ldr.w	r8, [pc, #1552]	; 83174 <_svfprintf_r+0x1200>
   82b64:	4633      	mov	r3, r6
   82b66:	4622      	mov	r2, r4
   82b68:	4646      	mov	r6, r8
   82b6a:	f04f 0910 	mov.w	r9, #16
   82b6e:	9c0d      	ldr	r4, [sp, #52]	; 0x34
   82b70:	f8dd 8030 	ldr.w	r8, [sp, #48]	; 0x30
   82b74:	9d0e      	ldr	r5, [sp, #56]	; 0x38
   82b76:	e005      	b.n	82b84 <_svfprintf_r+0xc10>
   82b78:	3308      	adds	r3, #8
   82b7a:	3f10      	subs	r7, #16
   82b7c:	2f10      	cmp	r7, #16
   82b7e:	f340 81f8 	ble.w	82f72 <_svfprintf_r+0xffe>
   82b82:	3501      	adds	r5, #1
   82b84:	3210      	adds	r2, #16
   82b86:	2d07      	cmp	r5, #7
   82b88:	e9cd 5226 	strd	r5, r2, [sp, #152]	; 0x98
   82b8c:	e9c3 6900 	strd	r6, r9, [r3]
   82b90:	ddf2      	ble.n	82b78 <_svfprintf_r+0xc04>
   82b92:	aa25      	add	r2, sp, #148	; 0x94
   82b94:	4641      	mov	r1, r8
   82b96:	4620      	mov	r0, r4
   82b98:	f002 ffba 	bl	85b10 <__ssprint_r>
   82b9c:	2800      	cmp	r0, #0
   82b9e:	f47f aab4 	bne.w	8210a <_svfprintf_r+0x196>
   82ba2:	e9dd 5226 	ldrd	r5, r2, [sp, #152]	; 0x98
   82ba6:	4653      	mov	r3, sl
   82ba8:	e7e7      	b.n	82b7a <_svfprintf_r+0xc06>
   82baa:	9a0f      	ldr	r2, [sp, #60]	; 0x3c
   82bac:	f852 4b04 	ldr.w	r4, [r2], #4
   82bb0:	920f      	str	r2, [sp, #60]	; 0x3c
   82bb2:	f018 0210 	ands.w	r2, r8, #16
   82bb6:	f000 8087 	beq.w	82cc8 <_svfprintf_r+0xd54>
   82bba:	2500      	movs	r5, #0
   82bbc:	f7ff bac2 	b.w	82144 <_svfprintf_r+0x1d0>
   82bc0:	9b0f      	ldr	r3, [sp, #60]	; 0x3c
   82bc2:	f018 0f10 	tst.w	r8, #16
   82bc6:	f853 4b04 	ldr.w	r4, [r3], #4
   82bca:	930f      	str	r3, [sp, #60]	; 0x3c
   82bcc:	d074      	beq.n	82cb8 <_svfprintf_r+0xd44>
   82bce:	2500      	movs	r5, #0
   82bd0:	2301      	movs	r3, #1
   82bd2:	f7ff bab7 	b.w	82144 <_svfprintf_r+0x1d0>
   82bd6:	9a07      	ldr	r2, [sp, #28]
   82bd8:	07d2      	lsls	r2, r2, #31
   82bda:	f53f ae75 	bmi.w	828c8 <_svfprintf_r+0x954>
   82bde:	2201      	movs	r2, #1
   82be0:	9911      	ldr	r1, [sp, #68]	; 0x44
   82be2:	2d07      	cmp	r5, #7
   82be4:	f8c9 1000 	str.w	r1, [r9]
   82be8:	e9cd 5426 	strd	r5, r4, [sp, #152]	; 0x98
   82bec:	f8c9 2004 	str.w	r2, [r9, #4]
   82bf0:	f300 829d 	bgt.w	8312e <_svfprintf_r+0x11ba>
   82bf4:	3302      	adds	r3, #2
   82bf6:	9309      	str	r3, [sp, #36]	; 0x24
   82bf8:	f109 0910 	add.w	r9, r9, #16
   82bfc:	e69c      	b.n	82938 <_svfprintf_r+0x9c4>
   82bfe:	2b30      	cmp	r3, #48	; 0x30
   82c00:	f000 813f 	beq.w	82e82 <_svfprintf_r+0xf0e>
   82c04:	2330      	movs	r3, #48	; 0x30
   82c06:	9a11      	ldr	r2, [sp, #68]	; 0x44
   82c08:	3902      	subs	r1, #2
   82c0a:	f802 3c01 	strb.w	r3, [r2, #-1]
   82c0e:	ebaa 0301 	sub.w	r3, sl, r1
   82c12:	930e      	str	r3, [sp, #56]	; 0x38
   82c14:	9111      	str	r1, [sp, #68]	; 0x44
   82c16:	f7ff bb80 	b.w	8231a <_svfprintf_r+0x3a6>
   82c1a:	9b07      	ldr	r3, [sp, #28]
   82c1c:	07dd      	lsls	r5, r3, #31
   82c1e:	f53f adb4 	bmi.w	8278a <_svfprintf_r+0x816>
   82c22:	e45e      	b.n	824e2 <_svfprintf_r+0x56e>
   82c24:	aa25      	add	r2, sp, #148	; 0x94
   82c26:	e9dd 100c 	ldrd	r1, r0, [sp, #48]	; 0x30
   82c2a:	f002 ff71 	bl	85b10 <__ssprint_r>
   82c2e:	2800      	cmp	r0, #0
   82c30:	f47f aa6b 	bne.w	8210a <_svfprintf_r+0x196>
   82c34:	9c27      	ldr	r4, [sp, #156]	; 0x9c
   82c36:	e489      	b.n	8254c <_svfprintf_r+0x5d8>
   82c38:	f8cd a044 	str.w	sl, [sp, #68]	; 0x44
   82c3c:	f7ff bb6d 	b.w	8231a <_svfprintf_r+0x3a6>
   82c40:	2500      	movs	r5, #0
   82c42:	e4a3      	b.n	8258c <_svfprintf_r+0x618>
   82c44:	17e5      	asrs	r5, r4, #31
   82c46:	2c00      	cmp	r4, #0
   82c48:	f175 0300 	sbcs.w	r3, r5, #0
   82c4c:	f6bf ab35 	bge.w	822ba <_svfprintf_r+0x346>
   82c50:	262d      	movs	r6, #45	; 0x2d
   82c52:	9b09      	ldr	r3, [sp, #36]	; 0x24
   82c54:	4264      	negs	r4, r4
   82c56:	eb65 0545 	sbc.w	r5, r5, r5, lsl #1
   82c5a:	3301      	adds	r3, #1
   82c5c:	f88d 6077 	strb.w	r6, [sp, #119]	; 0x77
   82c60:	f47f ab31 	bne.w	822c6 <_svfprintf_r+0x352>
   82c64:	2d00      	cmp	r5, #0
   82c66:	bf08      	it	eq
   82c68:	2c0a      	cmpeq	r4, #10
   82c6a:	f8cd 801c 	str.w	r8, [sp, #28]
   82c6e:	f4ff ae83 	bcc.w	82978 <_svfprintf_r+0xa04>
   82c72:	46d0      	mov	r8, sl
   82c74:	4620      	mov	r0, r4
   82c76:	4629      	mov	r1, r5
   82c78:	220a      	movs	r2, #10
   82c7a:	2300      	movs	r3, #0
   82c7c:	f7fe fefc 	bl	81a78 <__aeabi_uldivmod>
   82c80:	3230      	adds	r2, #48	; 0x30
   82c82:	f808 2d01 	strb.w	r2, [r8, #-1]!
   82c86:	4620      	mov	r0, r4
   82c88:	4629      	mov	r1, r5
   82c8a:	2300      	movs	r3, #0
   82c8c:	220a      	movs	r2, #10
   82c8e:	f7fe fef3 	bl	81a78 <__aeabi_uldivmod>
   82c92:	4604      	mov	r4, r0
   82c94:	460d      	mov	r5, r1
   82c96:	ea54 0305 	orrs.w	r3, r4, r5
   82c9a:	d1eb      	bne.n	82c74 <_svfprintf_r+0xd00>
   82c9c:	ebaa 0308 	sub.w	r3, sl, r8
   82ca0:	f8cd 8044 	str.w	r8, [sp, #68]	; 0x44
   82ca4:	930e      	str	r3, [sp, #56]	; 0x38
   82ca6:	f7ff bb38 	b.w	8231a <_svfprintf_r+0x3a6>
   82caa:	9a0a      	ldr	r2, [sp, #40]	; 0x28
   82cac:	4610      	mov	r0, r2
   82cae:	17d1      	asrs	r1, r2, #31
   82cb0:	e9c3 0100 	strd	r0, r1, [r3]
   82cb4:	f7ff b986 	b.w	81fc4 <_svfprintf_r+0x50>
   82cb8:	f018 0f40 	tst.w	r8, #64	; 0x40
   82cbc:	bf18      	it	ne
   82cbe:	b2a4      	uxthne	r4, r4
   82cc0:	2500      	movs	r5, #0
   82cc2:	2301      	movs	r3, #1
   82cc4:	f7ff ba3e 	b.w	82144 <_svfprintf_r+0x1d0>
   82cc8:	f018 0340 	ands.w	r3, r8, #64	; 0x40
   82ccc:	bf1c      	itt	ne
   82cce:	4613      	movne	r3, r2
   82cd0:	b2a4      	uxthne	r4, r4
   82cd2:	2500      	movs	r5, #0
   82cd4:	f7ff ba36 	b.w	82144 <_svfprintf_r+0x1d0>
   82cd8:	9c15      	ldr	r4, [sp, #84]	; 0x54
   82cda:	4622      	mov	r2, r4
   82cdc:	4620      	mov	r0, r4
   82cde:	9c14      	ldr	r4, [sp, #80]	; 0x50
   82ce0:	4623      	mov	r3, r4
   82ce2:	4621      	mov	r1, r4
   82ce4:	f004 f966 	bl	86fb4 <__aeabi_dcmpun>
   82ce8:	2800      	cmp	r0, #0
   82cea:	f040 832e 	bne.w	8334a <_svfprintf_r+0x13d6>
   82cee:	9a09      	ldr	r2, [sp, #36]	; 0x24
   82cf0:	f027 0320 	bic.w	r3, r7, #32
   82cf4:	1c54      	adds	r4, r2, #1
   82cf6:	9308      	str	r3, [sp, #32]
   82cf8:	f000 8242 	beq.w	83180 <_svfprintf_r+0x120c>
   82cfc:	2b47      	cmp	r3, #71	; 0x47
   82cfe:	f000 816c 	beq.w	82fda <_svfprintf_r+0x1066>
   82d02:	f448 7380 	orr.w	r3, r8, #256	; 0x100
   82d06:	9307      	str	r3, [sp, #28]
   82d08:	e9dd 3614 	ldrd	r3, r6, [sp, #80]	; 0x50
   82d0c:	1e1d      	subs	r5, r3, #0
   82d0e:	bfb6      	itet	lt
   82d10:	f103 4500 	addlt.w	r5, r3, #2147483648	; 0x80000000
   82d14:	2300      	movge	r3, #0
   82d16:	232d      	movlt	r3, #45	; 0x2d
   82d18:	2f66      	cmp	r7, #102	; 0x66
   82d1a:	9310      	str	r3, [sp, #64]	; 0x40
   82d1c:	f000 8233 	beq.w	83186 <_svfprintf_r+0x1212>
   82d20:	2f46      	cmp	r7, #70	; 0x46
   82d22:	f000 8274 	beq.w	8320e <_svfprintf_r+0x129a>
   82d26:	9b08      	ldr	r3, [sp, #32]
   82d28:	4632      	mov	r2, r6
   82d2a:	2b45      	cmp	r3, #69	; 0x45
   82d2c:	f04f 0002 	mov.w	r0, #2
   82d30:	462b      	mov	r3, r5
   82d32:	f000 8158 	beq.w	82fe6 <_svfprintf_r+0x1072>
   82d36:	9c09      	ldr	r4, [sp, #36]	; 0x24
   82d38:	a923      	add	r1, sp, #140	; 0x8c
   82d3a:	e9cd 0400 	strd	r0, r4, [sp]
   82d3e:	9104      	str	r1, [sp, #16]
   82d40:	a820      	add	r0, sp, #128	; 0x80
   82d42:	a91f      	add	r1, sp, #124	; 0x7c
   82d44:	e9cd 1002 	strd	r1, r0, [sp, #8]
   82d48:	980d      	ldr	r0, [sp, #52]	; 0x34
   82d4a:	f000 fc57 	bl	835fc <_dtoa_r>
   82d4e:	2f67      	cmp	r7, #103	; 0x67
   82d50:	9011      	str	r0, [sp, #68]	; 0x44
   82d52:	f040 8354 	bne.w	833fe <_svfprintf_r+0x148a>
   82d56:	f018 0f01 	tst.w	r8, #1
   82d5a:	f000 8169 	beq.w	83030 <_svfprintf_r+0x10bc>
   82d5e:	9b11      	ldr	r3, [sp, #68]	; 0x44
   82d60:	9a09      	ldr	r2, [sp, #36]	; 0x24
   82d62:	189c      	adds	r4, r3, r2
   82d64:	9a16      	ldr	r2, [sp, #88]	; 0x58
   82d66:	4630      	mov	r0, r6
   82d68:	9b17      	ldr	r3, [sp, #92]	; 0x5c
   82d6a:	4629      	mov	r1, r5
   82d6c:	f004 f8f0 	bl	86f50 <__aeabi_dcmpeq>
   82d70:	2800      	cmp	r0, #0
   82d72:	f000 81d0 	beq.w	83116 <_svfprintf_r+0x11a2>
   82d76:	4623      	mov	r3, r4
   82d78:	9a11      	ldr	r2, [sp, #68]	; 0x44
   82d7a:	1a9b      	subs	r3, r3, r2
   82d7c:	9313      	str	r3, [sp, #76]	; 0x4c
   82d7e:	9b1f      	ldr	r3, [sp, #124]	; 0x7c
   82d80:	9312      	str	r3, [sp, #72]	; 0x48
   82d82:	9b08      	ldr	r3, [sp, #32]
   82d84:	2b47      	cmp	r3, #71	; 0x47
   82d86:	f000 815c 	beq.w	83042 <_svfprintf_r+0x10ce>
   82d8a:	2f66      	cmp	r7, #102	; 0x66
   82d8c:	f040 8160 	bne.w	83050 <_svfprintf_r+0x10dc>
   82d90:	9b12      	ldr	r3, [sp, #72]	; 0x48
   82d92:	2b00      	cmp	r3, #0
   82d94:	9b09      	ldr	r3, [sp, #36]	; 0x24
   82d96:	f340 82f5 	ble.w	83384 <_svfprintf_r+0x1410>
   82d9a:	2b00      	cmp	r3, #0
   82d9c:	f040 82e8 	bne.w	83370 <_svfprintf_r+0x13fc>
   82da0:	f018 0f01 	tst.w	r8, #1
   82da4:	f040 82e4 	bne.w	83370 <_svfprintf_r+0x13fc>
   82da8:	9b12      	ldr	r3, [sp, #72]	; 0x48
   82daa:	9308      	str	r3, [sp, #32]
   82dac:	930e      	str	r3, [sp, #56]	; 0x38
   82dae:	9b10      	ldr	r3, [sp, #64]	; 0x40
   82db0:	2b00      	cmp	r3, #0
   82db2:	f040 817a 	bne.w	830aa <_svfprintf_r+0x1136>
   82db6:	9309      	str	r3, [sp, #36]	; 0x24
   82db8:	f89d 6077 	ldrb.w	r6, [sp, #119]	; 0x77
   82dbc:	f7ff ba39 	b.w	82232 <_svfprintf_r+0x2be>
   82dc0:	2b10      	cmp	r3, #16
   82dc2:	9a26      	ldr	r2, [sp, #152]	; 0x98
   82dc4:	f340 82ea 	ble.w	8339c <_svfprintf_r+0x1428>
   82dc8:	f8df 83a8 	ldr.w	r8, [pc, #936]	; 83174 <_svfprintf_r+0x1200>
   82dcc:	4623      	mov	r3, r4
   82dce:	2610      	movs	r6, #16
   82dd0:	4644      	mov	r4, r8
   82dd2:	9f0d      	ldr	r7, [sp, #52]	; 0x34
   82dd4:	f8dd 8030 	ldr.w	r8, [sp, #48]	; 0x30
   82dd8:	e005      	b.n	82de6 <_svfprintf_r+0xe72>
   82dda:	f109 0908 	add.w	r9, r9, #8
   82dde:	3d10      	subs	r5, #16
   82de0:	2d10      	cmp	r5, #16
   82de2:	f340 80dc 	ble.w	82f9e <_svfprintf_r+0x102a>
   82de6:	3201      	adds	r2, #1
   82de8:	3310      	adds	r3, #16
   82dea:	2a07      	cmp	r2, #7
   82dec:	e9cd 2326 	strd	r2, r3, [sp, #152]	; 0x98
   82df0:	e9c9 4600 	strd	r4, r6, [r9]
   82df4:	ddf1      	ble.n	82dda <_svfprintf_r+0xe66>
   82df6:	aa25      	add	r2, sp, #148	; 0x94
   82df8:	4641      	mov	r1, r8
   82dfa:	4638      	mov	r0, r7
   82dfc:	f002 fe88 	bl	85b10 <__ssprint_r>
   82e00:	2800      	cmp	r0, #0
   82e02:	f47f a982 	bne.w	8210a <_svfprintf_r+0x196>
   82e06:	e9dd 2326 	ldrd	r2, r3, [sp, #152]	; 0x98
   82e0a:	46d1      	mov	r9, sl
   82e0c:	e7e7      	b.n	82dde <_svfprintf_r+0xe6a>
   82e0e:	2140      	movs	r1, #64	; 0x40
   82e10:	980d      	ldr	r0, [sp, #52]	; 0x34
   82e12:	f001 fc57 	bl	846c4 <_malloc_r>
   82e16:	9b0c      	ldr	r3, [sp, #48]	; 0x30
   82e18:	6018      	str	r0, [r3, #0]
   82e1a:	6118      	str	r0, [r3, #16]
   82e1c:	2800      	cmp	r0, #0
   82e1e:	f000 82f5 	beq.w	8340c <_svfprintf_r+0x1498>
   82e22:	2340      	movs	r3, #64	; 0x40
   82e24:	9a0c      	ldr	r2, [sp, #48]	; 0x30
   82e26:	6153      	str	r3, [r2, #20]
   82e28:	f7ff b8bb 	b.w	81fa2 <_svfprintf_r+0x2e>
   82e2c:	aa25      	add	r2, sp, #148	; 0x94
   82e2e:	e9dd 100c 	ldrd	r1, r0, [sp, #48]	; 0x30
   82e32:	f002 fe6d 	bl	85b10 <__ssprint_r>
   82e36:	2800      	cmp	r0, #0
   82e38:	f47f a967 	bne.w	8210a <_svfprintf_r+0x196>
   82e3c:	e9dd 3426 	ldrd	r3, r4, [sp, #152]	; 0x98
   82e40:	3301      	adds	r3, #1
   82e42:	9309      	str	r3, [sp, #36]	; 0x24
   82e44:	f10d 09d0 	add.w	r9, sp, #208	; 0xd0
   82e48:	4656      	mov	r6, sl
   82e4a:	e575      	b.n	82938 <_svfprintf_r+0x9c4>
   82e4c:	aa25      	add	r2, sp, #148	; 0x94
   82e4e:	e9dd 100c 	ldrd	r1, r0, [sp, #48]	; 0x30
   82e52:	f002 fe5d 	bl	85b10 <__ssprint_r>
   82e56:	2800      	cmp	r0, #0
   82e58:	f47f a957 	bne.w	8210a <_svfprintf_r+0x196>
   82e5c:	46d1      	mov	r9, sl
   82e5e:	9c27      	ldr	r4, [sp, #156]	; 0x9c
   82e60:	e4a1      	b.n	827a6 <_svfprintf_r+0x832>
   82e62:	9b09      	ldr	r3, [sp, #36]	; 0x24
   82e64:	9e11      	ldr	r6, [sp, #68]	; 0x44
   82e66:	2b06      	cmp	r3, #6
   82e68:	bf28      	it	cs
   82e6a:	2306      	movcs	r3, #6
   82e6c:	9308      	str	r3, [sp, #32]
   82e6e:	930e      	str	r3, [sp, #56]	; 0x38
   82e70:	4bbe      	ldr	r3, [pc, #760]	; (8316c <_svfprintf_r+0x11f8>)
   82e72:	9609      	str	r6, [sp, #36]	; 0x24
   82e74:	940f      	str	r4, [sp, #60]	; 0x3c
   82e76:	f8cd 801c 	str.w	r8, [sp, #28]
   82e7a:	9612      	str	r6, [sp, #72]	; 0x48
   82e7c:	9311      	str	r3, [sp, #68]	; 0x44
   82e7e:	f7ff b9d8 	b.w	82232 <_svfprintf_r+0x2be>
   82e82:	9b11      	ldr	r3, [sp, #68]	; 0x44
   82e84:	ebaa 0303 	sub.w	r3, sl, r3
   82e88:	930e      	str	r3, [sp, #56]	; 0x38
   82e8a:	f7ff ba46 	b.w	8231a <_svfprintf_r+0x3a6>
   82e8e:	9a26      	ldr	r2, [sp, #152]	; 0x98
   82e90:	9919      	ldr	r1, [sp, #100]	; 0x64
   82e92:	3201      	adds	r2, #1
   82e94:	981a      	ldr	r0, [sp, #104]	; 0x68
   82e96:	440c      	add	r4, r1
   82e98:	2a07      	cmp	r2, #7
   82e9a:	9427      	str	r4, [sp, #156]	; 0x9c
   82e9c:	e9c9 0100 	strd	r0, r1, [r9]
   82ea0:	9226      	str	r2, [sp, #152]	; 0x98
   82ea2:	f300 812c 	bgt.w	830fe <_svfprintf_r+0x118a>
   82ea6:	f109 0908 	add.w	r9, r9, #8
   82eaa:	e606      	b.n	82aba <_svfprintf_r+0xb46>
   82eac:	9a0a      	ldr	r2, [sp, #40]	; 0x28
   82eae:	601a      	str	r2, [r3, #0]
   82eb0:	f7ff b888 	b.w	81fc4 <_svfprintf_r+0x50>
   82eb4:	aa25      	add	r2, sp, #148	; 0x94
   82eb6:	e9dd 100c 	ldrd	r1, r0, [sp, #48]	; 0x30
   82eba:	f002 fe29 	bl	85b10 <__ssprint_r>
   82ebe:	2800      	cmp	r0, #0
   82ec0:	f47f a923 	bne.w	8210a <_svfprintf_r+0x196>
   82ec4:	46d1      	mov	r9, sl
   82ec6:	f89d 6077 	ldrb.w	r6, [sp, #119]	; 0x77
   82eca:	9c27      	ldr	r4, [sp, #156]	; 0x9c
   82ecc:	f7ff ba8e 	b.w	823ec <_svfprintf_r+0x478>
   82ed0:	aa25      	add	r2, sp, #148	; 0x94
   82ed2:	e9dd 100c 	ldrd	r1, r0, [sp, #48]	; 0x30
   82ed6:	f002 fe1b 	bl	85b10 <__ssprint_r>
   82eda:	2800      	cmp	r0, #0
   82edc:	f47f a915 	bne.w	8210a <_svfprintf_r+0x196>
   82ee0:	e9dd 5426 	ldrd	r5, r4, [sp, #152]	; 0x98
   82ee4:	4656      	mov	r6, sl
   82ee6:	e4fa      	b.n	828de <_svfprintf_r+0x96a>
   82ee8:	aa25      	add	r2, sp, #148	; 0x94
   82eea:	e9dd 100c 	ldrd	r1, r0, [sp, #48]	; 0x30
   82eee:	f002 fe0f 	bl	85b10 <__ssprint_r>
   82ef2:	2800      	cmp	r0, #0
   82ef4:	f47f a909 	bne.w	8210a <_svfprintf_r+0x196>
   82ef8:	e9dd 5426 	ldrd	r5, r4, [sp, #152]	; 0x98
   82efc:	4656      	mov	r6, sl
   82efe:	e4fa      	b.n	828f6 <_svfprintf_r+0x982>
   82f00:	2b01      	cmp	r3, #1
   82f02:	f47f a9ec 	bne.w	822de <_svfprintf_r+0x36a>
   82f06:	e537      	b.n	82978 <_svfprintf_r+0xa04>
   82f08:	46a0      	mov	r8, r4
   82f0a:	461c      	mov	r4, r3
   82f0c:	3201      	adds	r2, #1
   82f0e:	442c      	add	r4, r5
   82f10:	2a07      	cmp	r2, #7
   82f12:	e9cd 2426 	strd	r2, r4, [sp, #152]	; 0x98
   82f16:	e9c9 8500 	strd	r8, r5, [r9]
   82f1a:	f77f aae0 	ble.w	824de <_svfprintf_r+0x56a>
   82f1e:	e55f      	b.n	829e0 <_svfprintf_r+0xa6c>
   82f20:	aa25      	add	r2, sp, #148	; 0x94
   82f22:	e9dd 100c 	ldrd	r1, r0, [sp, #48]	; 0x30
   82f26:	f002 fdf3 	bl	85b10 <__ssprint_r>
   82f2a:	2800      	cmp	r0, #0
   82f2c:	f47f a8ed 	bne.w	8210a <_svfprintf_r+0x196>
   82f30:	46d1      	mov	r9, sl
   82f32:	9c27      	ldr	r4, [sp, #156]	; 0x9c
   82f34:	f7ff ba7e 	b.w	82434 <_svfprintf_r+0x4c0>
   82f38:	2001      	movs	r0, #1
   82f3a:	9a26      	ldr	r2, [sp, #152]	; 0x98
   82f3c:	498c      	ldr	r1, [pc, #560]	; (83170 <_svfprintf_r+0x11fc>)
   82f3e:	4402      	add	r2, r0
   82f40:	4404      	add	r4, r0
   82f42:	2a07      	cmp	r2, #7
   82f44:	e9cd 2426 	strd	r2, r4, [sp, #152]	; 0x98
   82f48:	e9c9 1000 	strd	r1, r0, [r9]
   82f4c:	f73f ad1c 	bgt.w	82988 <_svfprintf_r+0xa14>
   82f50:	f109 0908 	add.w	r9, r9, #8
   82f54:	e523      	b.n	8299e <_svfprintf_r+0xa2a>
   82f56:	aa25      	add	r2, sp, #148	; 0x94
   82f58:	e9dd 100c 	ldrd	r1, r0, [sp, #48]	; 0x30
   82f5c:	f002 fdd8 	bl	85b10 <__ssprint_r>
   82f60:	2800      	cmp	r0, #0
   82f62:	f47f a8d2 	bne.w	8210a <_svfprintf_r+0x196>
   82f66:	46d1      	mov	r9, sl
   82f68:	e409      	b.n	8277e <_svfprintf_r+0x80a>
   82f6a:	f8df 8208 	ldr.w	r8, [pc, #520]	; 83174 <_svfprintf_r+0x1200>
   82f6e:	f7ff ba9b 	b.w	824a8 <_svfprintf_r+0x534>
   82f72:	46b0      	mov	r8, r6
   82f74:	461e      	mov	r6, r3
   82f76:	1c6b      	adds	r3, r5, #1
   82f78:	4614      	mov	r4, r2
   82f7a:	9309      	str	r3, [sp, #36]	; 0x24
   82f7c:	f106 0208 	add.w	r2, r6, #8
   82f80:	9b09      	ldr	r3, [sp, #36]	; 0x24
   82f82:	443c      	add	r4, r7
   82f84:	2b07      	cmp	r3, #7
   82f86:	9427      	str	r4, [sp, #156]	; 0x9c
   82f88:	e9c6 8700 	strd	r8, r7, [r6]
   82f8c:	9326      	str	r3, [sp, #152]	; 0x98
   82f8e:	f73f af4d 	bgt.w	82e2c <_svfprintf_r+0xeb8>
   82f92:	3301      	adds	r3, #1
   82f94:	9309      	str	r3, [sp, #36]	; 0x24
   82f96:	f102 0908 	add.w	r9, r2, #8
   82f9a:	4616      	mov	r6, r2
   82f9c:	e4cc      	b.n	82938 <_svfprintf_r+0x9c4>
   82f9e:	46a0      	mov	r8, r4
   82fa0:	461c      	mov	r4, r3
   82fa2:	3201      	adds	r2, #1
   82fa4:	442c      	add	r4, r5
   82fa6:	2a07      	cmp	r2, #7
   82fa8:	e9cd 2426 	strd	r2, r4, [sp, #152]	; 0x98
   82fac:	e9c9 8500 	strd	r8, r5, [r9]
   82fb0:	f300 813f 	bgt.w	83232 <_svfprintf_r+0x12be>
   82fb4:	f109 0908 	add.w	r9, r9, #8
   82fb8:	e576      	b.n	82aa8 <_svfprintf_r+0xb34>
   82fba:	9811      	ldr	r0, [sp, #68]	; 0x44
   82fbc:	9509      	str	r5, [sp, #36]	; 0x24
   82fbe:	f7fe ffab 	bl	81f18 <strlen>
   82fc2:	f8cd 801c 	str.w	r8, [sp, #28]
   82fc6:	e9cd 040e 	strd	r0, r4, [sp, #56]	; 0x38
   82fca:	4603      	mov	r3, r0
   82fcc:	f7ff b92b 	b.w	82226 <_svfprintf_r+0x2b2>
   82fd0:	9a07      	ldr	r2, [sp, #28]
   82fd2:	07d0      	lsls	r0, r2, #31
   82fd4:	f57f aa85 	bpl.w	824e2 <_svfprintf_r+0x56e>
   82fd8:	e4e6      	b.n	829a8 <_svfprintf_r+0xa34>
   82fda:	2a00      	cmp	r2, #0
   82fdc:	4613      	mov	r3, r2
   82fde:	bf08      	it	eq
   82fe0:	2301      	moveq	r3, #1
   82fe2:	9309      	str	r3, [sp, #36]	; 0x24
   82fe4:	e68d      	b.n	82d02 <_svfprintf_r+0xd8e>
   82fe6:	9909      	ldr	r1, [sp, #36]	; 0x24
   82fe8:	9000      	str	r0, [sp, #0]
   82fea:	1c4c      	adds	r4, r1, #1
   82fec:	a923      	add	r1, sp, #140	; 0x8c
   82fee:	a820      	add	r0, sp, #128	; 0x80
   82ff0:	9104      	str	r1, [sp, #16]
   82ff2:	a91f      	add	r1, sp, #124	; 0x7c
   82ff4:	e9cd 1002 	strd	r1, r0, [sp, #8]
   82ff8:	9401      	str	r4, [sp, #4]
   82ffa:	980d      	ldr	r0, [sp, #52]	; 0x34
   82ffc:	940e      	str	r4, [sp, #56]	; 0x38
   82ffe:	f000 fafd 	bl	835fc <_dtoa_r>
   83002:	9011      	str	r0, [sp, #68]	; 0x44
   83004:	2f47      	cmp	r7, #71	; 0x47
   83006:	f040 81e3 	bne.w	833d0 <_svfprintf_r+0x145c>
   8300a:	f018 0f01 	tst.w	r8, #1
   8300e:	f000 81d8 	beq.w	833c2 <_svfprintf_r+0x144e>
   83012:	9b11      	ldr	r3, [sp, #68]	; 0x44
   83014:	9a0e      	ldr	r2, [sp, #56]	; 0x38
   83016:	2f46      	cmp	r7, #70	; 0x46
   83018:	eb03 0402 	add.w	r4, r3, r2
   8301c:	f47f aea2 	bne.w	82d64 <_svfprintf_r+0xdf0>
   83020:	9b11      	ldr	r3, [sp, #68]	; 0x44
   83022:	781b      	ldrb	r3, [r3, #0]
   83024:	2b30      	cmp	r3, #48	; 0x30
   83026:	f000 8169 	beq.w	832fc <_svfprintf_r+0x1388>
   8302a:	9b1f      	ldr	r3, [sp, #124]	; 0x7c
   8302c:	441c      	add	r4, r3
   8302e:	e699      	b.n	82d64 <_svfprintf_r+0xdf0>
   83030:	9a1f      	ldr	r2, [sp, #124]	; 0x7c
   83032:	9b23      	ldr	r3, [sp, #140]	; 0x8c
   83034:	9212      	str	r2, [sp, #72]	; 0x48
   83036:	9a11      	ldr	r2, [sp, #68]	; 0x44
   83038:	1a9b      	subs	r3, r3, r2
   8303a:	9313      	str	r3, [sp, #76]	; 0x4c
   8303c:	9b08      	ldr	r3, [sp, #32]
   8303e:	2b47      	cmp	r3, #71	; 0x47
   83040:	d106      	bne.n	83050 <_svfprintf_r+0x10dc>
   83042:	9b12      	ldr	r3, [sp, #72]	; 0x48
   83044:	1cda      	adds	r2, r3, #3
   83046:	db02      	blt.n	8304e <_svfprintf_r+0x10da>
   83048:	9a09      	ldr	r2, [sp, #36]	; 0x24
   8304a:	429a      	cmp	r2, r3
   8304c:	da34      	bge.n	830b8 <_svfprintf_r+0x1144>
   8304e:	3f02      	subs	r7, #2
   83050:	9b12      	ldr	r3, [sp, #72]	; 0x48
   83052:	f88d 7084 	strb.w	r7, [sp, #132]	; 0x84
   83056:	3b01      	subs	r3, #1
   83058:	2b00      	cmp	r3, #0
   8305a:	bfb4      	ite	lt
   8305c:	222d      	movlt	r2, #45	; 0x2d
   8305e:	222b      	movge	r2, #43	; 0x2b
   83060:	931f      	str	r3, [sp, #124]	; 0x7c
   83062:	bfb8      	it	lt
   83064:	9b12      	ldrlt	r3, [sp, #72]	; 0x48
   83066:	f88d 2085 	strb.w	r2, [sp, #133]	; 0x85
   8306a:	bfb8      	it	lt
   8306c:	f1c3 0301 	rsblt	r3, r3, #1
   83070:	2b09      	cmp	r3, #9
   83072:	f300 810d 	bgt.w	83290 <_svfprintf_r+0x131c>
   83076:	2230      	movs	r2, #48	; 0x30
   83078:	4413      	add	r3, r2
   8307a:	f88d 3087 	strb.w	r3, [sp, #135]	; 0x87
   8307e:	f88d 2086 	strb.w	r2, [sp, #134]	; 0x86
   83082:	ab22      	add	r3, sp, #136	; 0x88
   83084:	aa21      	add	r2, sp, #132	; 0x84
   83086:	1a9b      	subs	r3, r3, r2
   83088:	9a13      	ldr	r2, [sp, #76]	; 0x4c
   8308a:	931b      	str	r3, [sp, #108]	; 0x6c
   8308c:	2a01      	cmp	r2, #1
   8308e:	4413      	add	r3, r2
   83090:	930e      	str	r3, [sp, #56]	; 0x38
   83092:	f340 8150 	ble.w	83336 <_svfprintf_r+0x13c2>
   83096:	9b0e      	ldr	r3, [sp, #56]	; 0x38
   83098:	9a19      	ldr	r2, [sp, #100]	; 0x64
   8309a:	4413      	add	r3, r2
   8309c:	930e      	str	r3, [sp, #56]	; 0x38
   8309e:	ea23 73e3 	bic.w	r3, r3, r3, asr #31
   830a2:	9308      	str	r3, [sp, #32]
   830a4:	2300      	movs	r3, #0
   830a6:	9312      	str	r3, [sp, #72]	; 0x48
   830a8:	e681      	b.n	82dae <_svfprintf_r+0xe3a>
   830aa:	262d      	movs	r6, #45	; 0x2d
   830ac:	2300      	movs	r3, #0
   830ae:	f88d 6077 	strb.w	r6, [sp, #119]	; 0x77
   830b2:	9309      	str	r3, [sp, #36]	; 0x24
   830b4:	f7ff b8c0 	b.w	82238 <_svfprintf_r+0x2c4>
   830b8:	e9dd 3112 	ldrd	r3, r1, [sp, #72]	; 0x48
   830bc:	428b      	cmp	r3, r1
   830be:	f2c0 8093 	blt.w	831e8 <_svfprintf_r+0x1274>
   830c2:	f018 0f01 	tst.w	r8, #1
   830c6:	f000 8110 	beq.w	832ea <_svfprintf_r+0x1376>
   830ca:	9b12      	ldr	r3, [sp, #72]	; 0x48
   830cc:	9a19      	ldr	r2, [sp, #100]	; 0x64
   830ce:	2767      	movs	r7, #103	; 0x67
   830d0:	4413      	add	r3, r2
   830d2:	930e      	str	r3, [sp, #56]	; 0x38
   830d4:	ea23 73e3 	bic.w	r3, r3, r3, asr #31
   830d8:	9308      	str	r3, [sp, #32]
   830da:	e668      	b.n	82dae <_svfprintf_r+0xe3a>
   830dc:	232d      	movs	r3, #45	; 0x2d
   830de:	461e      	mov	r6, r3
   830e0:	f88d 3077 	strb.w	r3, [sp, #119]	; 0x77
   830e4:	f7ff bacd 	b.w	82682 <_svfprintf_r+0x70e>
   830e8:	aa25      	add	r2, sp, #148	; 0x94
   830ea:	e9dd 100c 	ldrd	r1, r0, [sp, #48]	; 0x30
   830ee:	f002 fd0f 	bl	85b10 <__ssprint_r>
   830f2:	2800      	cmp	r0, #0
   830f4:	f47f a809 	bne.w	8210a <_svfprintf_r+0x196>
   830f8:	46d1      	mov	r9, sl
   830fa:	9c27      	ldr	r4, [sp, #156]	; 0x9c
   830fc:	e4cc      	b.n	82a98 <_svfprintf_r+0xb24>
   830fe:	aa25      	add	r2, sp, #148	; 0x94
   83100:	e9dd 100c 	ldrd	r1, r0, [sp, #48]	; 0x30
   83104:	f002 fd04 	bl	85b10 <__ssprint_r>
   83108:	2800      	cmp	r0, #0
   8310a:	f47e affe 	bne.w	8210a <_svfprintf_r+0x196>
   8310e:	46d1      	mov	r9, sl
   83110:	9b1f      	ldr	r3, [sp, #124]	; 0x7c
   83112:	9c27      	ldr	r4, [sp, #156]	; 0x9c
   83114:	e4d1      	b.n	82aba <_svfprintf_r+0xb46>
   83116:	9b23      	ldr	r3, [sp, #140]	; 0x8c
   83118:	42a3      	cmp	r3, r4
   8311a:	f4bf ae2d 	bcs.w	82d78 <_svfprintf_r+0xe04>
   8311e:	2130      	movs	r1, #48	; 0x30
   83120:	1c5a      	adds	r2, r3, #1
   83122:	9223      	str	r2, [sp, #140]	; 0x8c
   83124:	7019      	strb	r1, [r3, #0]
   83126:	9b23      	ldr	r3, [sp, #140]	; 0x8c
   83128:	429c      	cmp	r4, r3
   8312a:	d8f9      	bhi.n	83120 <_svfprintf_r+0x11ac>
   8312c:	e624      	b.n	82d78 <_svfprintf_r+0xe04>
   8312e:	aa25      	add	r2, sp, #148	; 0x94
   83130:	e9dd 100c 	ldrd	r1, r0, [sp, #48]	; 0x30
   83134:	f002 fcec 	bl	85b10 <__ssprint_r>
   83138:	2800      	cmp	r0, #0
   8313a:	f47e afe6 	bne.w	8210a <_svfprintf_r+0x196>
   8313e:	e9dd 3426 	ldrd	r3, r4, [sp, #152]	; 0x98
   83142:	3301      	adds	r3, #1
   83144:	4656      	mov	r6, sl
   83146:	9309      	str	r3, [sp, #36]	; 0x24
   83148:	f10d 09d0 	add.w	r9, sp, #208	; 0xd0
   8314c:	f7ff bbf4 	b.w	82938 <_svfprintf_r+0x9c4>
   83150:	aa25      	add	r2, sp, #148	; 0x94
   83152:	e9dd 100c 	ldrd	r1, r0, [sp, #48]	; 0x30
   83156:	f002 fcdb 	bl	85b10 <__ssprint_r>
   8315a:	2800      	cmp	r0, #0
   8315c:	f47e afd5 	bne.w	8210a <_svfprintf_r+0x196>
   83160:	9b1f      	ldr	r3, [sp, #124]	; 0x7c
   83162:	9a13      	ldr	r2, [sp, #76]	; 0x4c
   83164:	46d1      	mov	r9, sl
   83166:	9c27      	ldr	r4, [sp, #156]	; 0x9c
   83168:	1ad3      	subs	r3, r2, r3
   8316a:	e4bf      	b.n	82aec <_svfprintf_r+0xb78>
   8316c:	000870a0 	.word	0x000870a0
   83170:	000870a8 	.word	0x000870a8
   83174:	00087058 	.word	0x00087058
   83178:	f8df 82dc 	ldr.w	r8, [pc, #732]	; 83458 <_svfprintf_r+0x14e4>
   8317c:	f7ff bb84 	b.w	82888 <_svfprintf_r+0x914>
   83180:	2306      	movs	r3, #6
   83182:	9309      	str	r3, [sp, #36]	; 0x24
   83184:	e5bd      	b.n	82d02 <_svfprintf_r+0xd8e>
   83186:	2003      	movs	r0, #3
   83188:	9c09      	ldr	r4, [sp, #36]	; 0x24
   8318a:	a923      	add	r1, sp, #140	; 0x8c
   8318c:	e9cd 0400 	strd	r0, r4, [sp]
   83190:	9104      	str	r1, [sp, #16]
   83192:	a820      	add	r0, sp, #128	; 0x80
   83194:	a91f      	add	r1, sp, #124	; 0x7c
   83196:	e9cd 1002 	strd	r1, r0, [sp, #8]
   8319a:	4632      	mov	r2, r6
   8319c:	462b      	mov	r3, r5
   8319e:	980d      	ldr	r0, [sp, #52]	; 0x34
   831a0:	f000 fa2c 	bl	835fc <_dtoa_r>
   831a4:	940e      	str	r4, [sp, #56]	; 0x38
   831a6:	9011      	str	r0, [sp, #68]	; 0x44
   831a8:	1904      	adds	r4, r0, r4
   831aa:	e739      	b.n	83020 <_svfprintf_r+0x10ac>
   831ac:	2300      	movs	r3, #0
   831ae:	9309      	str	r3, [sp, #36]	; 0x24
   831b0:	f7fe bf3c 	b.w	8202c <_svfprintf_r+0xb8>
   831b4:	9b09      	ldr	r3, [sp, #36]	; 0x24
   831b6:	940f      	str	r4, [sp, #60]	; 0x3c
   831b8:	9308      	str	r3, [sp, #32]
   831ba:	930e      	str	r3, [sp, #56]	; 0x38
   831bc:	9009      	str	r0, [sp, #36]	; 0x24
   831be:	f8cd 801c 	str.w	r8, [sp, #28]
   831c2:	9012      	str	r0, [sp, #72]	; 0x48
   831c4:	f89d 6077 	ldrb.w	r6, [sp, #119]	; 0x77
   831c8:	f7ff b833 	b.w	82232 <_svfprintf_r+0x2be>
   831cc:	aa25      	add	r2, sp, #148	; 0x94
   831ce:	e9dd 100c 	ldrd	r1, r0, [sp, #48]	; 0x30
   831d2:	f002 fc9d 	bl	85b10 <__ssprint_r>
   831d6:	2800      	cmp	r0, #0
   831d8:	f47e af97 	bne.w	8210a <_svfprintf_r+0x196>
   831dc:	e9dd 2426 	ldrd	r2, r4, [sp, #152]	; 0x98
   831e0:	46d1      	mov	r9, sl
   831e2:	9b1f      	ldr	r3, [sp, #124]	; 0x7c
   831e4:	f7ff bbee 	b.w	829c4 <_svfprintf_r+0xa50>
   831e8:	9a19      	ldr	r2, [sp, #100]	; 0x64
   831ea:	9b13      	ldr	r3, [sp, #76]	; 0x4c
   831ec:	4413      	add	r3, r2
   831ee:	9a12      	ldr	r2, [sp, #72]	; 0x48
   831f0:	930e      	str	r3, [sp, #56]	; 0x38
   831f2:	2a00      	cmp	r2, #0
   831f4:	dc06      	bgt.n	83204 <_svfprintf_r+0x1290>
   831f6:	9b12      	ldr	r3, [sp, #72]	; 0x48
   831f8:	9a0e      	ldr	r2, [sp, #56]	; 0x38
   831fa:	f1c3 0301 	rsb	r3, r3, #1
   831fe:	441a      	add	r2, r3
   83200:	4613      	mov	r3, r2
   83202:	920e      	str	r2, [sp, #56]	; 0x38
   83204:	ea23 73e3 	bic.w	r3, r3, r3, asr #31
   83208:	9308      	str	r3, [sp, #32]
   8320a:	2767      	movs	r7, #103	; 0x67
   8320c:	e5cf      	b.n	82dae <_svfprintf_r+0xe3a>
   8320e:	2003      	movs	r0, #3
   83210:	9c09      	ldr	r4, [sp, #36]	; 0x24
   83212:	a923      	add	r1, sp, #140	; 0x8c
   83214:	e9cd 0400 	strd	r0, r4, [sp]
   83218:	9104      	str	r1, [sp, #16]
   8321a:	a820      	add	r0, sp, #128	; 0x80
   8321c:	a91f      	add	r1, sp, #124	; 0x7c
   8321e:	e9cd 1002 	strd	r1, r0, [sp, #8]
   83222:	4632      	mov	r2, r6
   83224:	462b      	mov	r3, r5
   83226:	980d      	ldr	r0, [sp, #52]	; 0x34
   83228:	f000 f9e8 	bl	835fc <_dtoa_r>
   8322c:	940e      	str	r4, [sp, #56]	; 0x38
   8322e:	9011      	str	r0, [sp, #68]	; 0x44
   83230:	e6ef      	b.n	83012 <_svfprintf_r+0x109e>
   83232:	aa25      	add	r2, sp, #148	; 0x94
   83234:	e9dd 100c 	ldrd	r1, r0, [sp, #48]	; 0x30
   83238:	f002 fc6a 	bl	85b10 <__ssprint_r>
   8323c:	2800      	cmp	r0, #0
   8323e:	f47e af64 	bne.w	8210a <_svfprintf_r+0x196>
   83242:	46d1      	mov	r9, sl
   83244:	9c27      	ldr	r4, [sp, #156]	; 0x9c
   83246:	e42f      	b.n	82aa8 <_svfprintf_r+0xb34>
   83248:	425d      	negs	r5, r3
   8324a:	3310      	adds	r3, #16
   8324c:	f280 80d1 	bge.w	833f2 <_svfprintf_r+0x147e>
   83250:	f8df 8204 	ldr.w	r8, [pc, #516]	; 83458 <_svfprintf_r+0x14e4>
   83254:	4623      	mov	r3, r4
   83256:	2610      	movs	r6, #16
   83258:	9f0d      	ldr	r7, [sp, #52]	; 0x34
   8325a:	4644      	mov	r4, r8
   8325c:	e004      	b.n	83268 <_svfprintf_r+0x12f4>
   8325e:	f109 0908 	add.w	r9, r9, #8
   83262:	3d10      	subs	r5, #16
   83264:	2d10      	cmp	r5, #16
   83266:	dd58      	ble.n	8331a <_svfprintf_r+0x13a6>
   83268:	3201      	adds	r2, #1
   8326a:	3310      	adds	r3, #16
   8326c:	2a07      	cmp	r2, #7
   8326e:	e9cd 2326 	strd	r2, r3, [sp, #152]	; 0x98
   83272:	e9c9 4600 	strd	r4, r6, [r9]
   83276:	ddf2      	ble.n	8325e <_svfprintf_r+0x12ea>
   83278:	aa25      	add	r2, sp, #148	; 0x94
   8327a:	990c      	ldr	r1, [sp, #48]	; 0x30
   8327c:	4638      	mov	r0, r7
   8327e:	f002 fc47 	bl	85b10 <__ssprint_r>
   83282:	2800      	cmp	r0, #0
   83284:	f47e af41 	bne.w	8210a <_svfprintf_r+0x196>
   83288:	e9dd 2326 	ldrd	r2, r3, [sp, #152]	; 0x98
   8328c:	46d1      	mov	r9, sl
   8328e:	e7e8      	b.n	83262 <_svfprintf_r+0x12ee>
   83290:	f10d 0093 	add.w	r0, sp, #147	; 0x93
   83294:	4601      	mov	r1, r0
   83296:	4c6d      	ldr	r4, [pc, #436]	; (8344c <_svfprintf_r+0x14d8>)
   83298:	e000      	b.n	8329c <_svfprintf_r+0x1328>
   8329a:	4611      	mov	r1, r2
   8329c:	fba4 2503 	umull	r2, r5, r4, r3
   832a0:	08ed      	lsrs	r5, r5, #3
   832a2:	eb05 0285 	add.w	r2, r5, r5, lsl #2
   832a6:	eba3 0242 	sub.w	r2, r3, r2, lsl #1
   832aa:	3230      	adds	r2, #48	; 0x30
   832ac:	2d09      	cmp	r5, #9
   832ae:	f801 2c01 	strb.w	r2, [r1, #-1]
   832b2:	462b      	mov	r3, r5
   832b4:	f101 32ff 	add.w	r2, r1, #4294967295	; 0xffffffff
   832b8:	dcef      	bgt.n	8329a <_svfprintf_r+0x1326>
   832ba:	3330      	adds	r3, #48	; 0x30
   832bc:	3902      	subs	r1, #2
   832be:	b2dc      	uxtb	r4, r3
   832c0:	4288      	cmp	r0, r1
   832c2:	f802 4c01 	strb.w	r4, [r2, #-1]
   832c6:	f240 8097 	bls.w	833f8 <_svfprintf_r+0x1484>
   832ca:	f10d 0186 	add.w	r1, sp, #134	; 0x86
   832ce:	4613      	mov	r3, r2
   832d0:	e001      	b.n	832d6 <_svfprintf_r+0x1362>
   832d2:	f813 4b01 	ldrb.w	r4, [r3], #1
   832d6:	4298      	cmp	r0, r3
   832d8:	f801 4b01 	strb.w	r4, [r1], #1
   832dc:	d1f9      	bne.n	832d2 <_svfprintf_r+0x135e>
   832de:	ab25      	add	r3, sp, #148	; 0x94
   832e0:	1a9b      	subs	r3, r3, r2
   832e2:	f10d 0286 	add.w	r2, sp, #134	; 0x86
   832e6:	4413      	add	r3, r2
   832e8:	e6cc      	b.n	83084 <_svfprintf_r+0x1110>
   832ea:	ea23 72e3 	bic.w	r2, r3, r3, asr #31
   832ee:	9208      	str	r2, [sp, #32]
   832f0:	930e      	str	r3, [sp, #56]	; 0x38
   832f2:	2767      	movs	r7, #103	; 0x67
   832f4:	e55b      	b.n	82dae <_svfprintf_r+0xe3a>
   832f6:	f8df 8160 	ldr.w	r8, [pc, #352]	; 83458 <_svfprintf_r+0x14e4>
   832fa:	e607      	b.n	82f0c <_svfprintf_r+0xf98>
   832fc:	9a16      	ldr	r2, [sp, #88]	; 0x58
   832fe:	4630      	mov	r0, r6
   83300:	9b17      	ldr	r3, [sp, #92]	; 0x5c
   83302:	4629      	mov	r1, r5
   83304:	f003 fe24 	bl	86f50 <__aeabi_dcmpeq>
   83308:	2800      	cmp	r0, #0
   8330a:	f47f ae8e 	bne.w	8302a <_svfprintf_r+0x10b6>
   8330e:	9b0e      	ldr	r3, [sp, #56]	; 0x38
   83310:	f1c3 0301 	rsb	r3, r3, #1
   83314:	931f      	str	r3, [sp, #124]	; 0x7c
   83316:	441c      	add	r4, r3
   83318:	e524      	b.n	82d64 <_svfprintf_r+0xdf0>
   8331a:	46a0      	mov	r8, r4
   8331c:	461c      	mov	r4, r3
   8331e:	3201      	adds	r2, #1
   83320:	442c      	add	r4, r5
   83322:	2a07      	cmp	r2, #7
   83324:	e9cd 2426 	strd	r2, r4, [sp, #152]	; 0x98
   83328:	e9c9 8500 	strd	r8, r5, [r9]
   8332c:	dc3c      	bgt.n	833a8 <_svfprintf_r+0x1434>
   8332e:	f109 0908 	add.w	r9, r9, #8
   83332:	f7ff bb4a 	b.w	829ca <_svfprintf_r+0xa56>
   83336:	f018 0301 	ands.w	r3, r8, #1
   8333a:	9312      	str	r3, [sp, #72]	; 0x48
   8333c:	f47f aeab 	bne.w	83096 <_svfprintf_r+0x1122>
   83340:	9b0e      	ldr	r3, [sp, #56]	; 0x38
   83342:	ea23 73e3 	bic.w	r3, r3, r3, asr #31
   83346:	9308      	str	r3, [sp, #32]
   83348:	e531      	b.n	82dae <_svfprintf_r+0xe3a>
   8334a:	9b14      	ldr	r3, [sp, #80]	; 0x50
   8334c:	2103      	movs	r1, #3
   8334e:	2b00      	cmp	r3, #0
   83350:	bfb8      	it	lt
   83352:	232d      	movlt	r3, #45	; 0x2d
   83354:	f04f 0000 	mov.w	r0, #0
   83358:	bfba      	itte	lt
   8335a:	461e      	movlt	r6, r3
   8335c:	f88d 3077 	strblt.w	r3, [sp, #119]	; 0x77
   83360:	f89d 6077 	ldrbge.w	r6, [sp, #119]	; 0x77
   83364:	e9cd 1008 	strd	r1, r0, [sp, #32]
   83368:	4a39      	ldr	r2, [pc, #228]	; (83450 <_svfprintf_r+0x14dc>)
   8336a:	4b3a      	ldr	r3, [pc, #232]	; (83454 <_svfprintf_r+0x14e0>)
   8336c:	f7ff b98f 	b.w	8268e <_svfprintf_r+0x71a>
   83370:	9b12      	ldr	r3, [sp, #72]	; 0x48
   83372:	9a19      	ldr	r2, [sp, #100]	; 0x64
   83374:	4413      	add	r3, r2
   83376:	9a09      	ldr	r2, [sp, #36]	; 0x24
   83378:	441a      	add	r2, r3
   8337a:	ea22 73e2 	bic.w	r3, r2, r2, asr #31
   8337e:	920e      	str	r2, [sp, #56]	; 0x38
   83380:	9308      	str	r3, [sp, #32]
   83382:	e514      	b.n	82dae <_svfprintf_r+0xe3a>
   83384:	b96b      	cbnz	r3, 833a2 <_svfprintf_r+0x142e>
   83386:	f018 0f01 	tst.w	r8, #1
   8338a:	d10a      	bne.n	833a2 <_svfprintf_r+0x142e>
   8338c:	2301      	movs	r3, #1
   8338e:	9308      	str	r3, [sp, #32]
   83390:	930e      	str	r3, [sp, #56]	; 0x38
   83392:	e50c      	b.n	82dae <_svfprintf_r+0xe3a>
   83394:	464a      	mov	r2, r9
   83396:	f8df 80c0 	ldr.w	r8, [pc, #192]	; 83458 <_svfprintf_r+0x14e4>
   8339a:	e5f1      	b.n	82f80 <_svfprintf_r+0x100c>
   8339c:	f8df 80b8 	ldr.w	r8, [pc, #184]	; 83458 <_svfprintf_r+0x14e4>
   833a0:	e5ff      	b.n	82fa2 <_svfprintf_r+0x102e>
   833a2:	9b19      	ldr	r3, [sp, #100]	; 0x64
   833a4:	3301      	adds	r3, #1
   833a6:	e7e6      	b.n	83376 <_svfprintf_r+0x1402>
   833a8:	aa25      	add	r2, sp, #148	; 0x94
   833aa:	e9dd 100c 	ldrd	r1, r0, [sp, #48]	; 0x30
   833ae:	f002 fbaf 	bl	85b10 <__ssprint_r>
   833b2:	2800      	cmp	r0, #0
   833b4:	f47e aea9 	bne.w	8210a <_svfprintf_r+0x196>
   833b8:	e9dd 2426 	ldrd	r2, r4, [sp, #152]	; 0x98
   833bc:	46d1      	mov	r9, sl
   833be:	f7ff bb04 	b.w	829ca <_svfprintf_r+0xa56>
   833c2:	9a1f      	ldr	r2, [sp, #124]	; 0x7c
   833c4:	9b23      	ldr	r3, [sp, #140]	; 0x8c
   833c6:	9212      	str	r2, [sp, #72]	; 0x48
   833c8:	9a11      	ldr	r2, [sp, #68]	; 0x44
   833ca:	1a9b      	subs	r3, r3, r2
   833cc:	9313      	str	r3, [sp, #76]	; 0x4c
   833ce:	e638      	b.n	83042 <_svfprintf_r+0x10ce>
   833d0:	9b0e      	ldr	r3, [sp, #56]	; 0x38
   833d2:	9a11      	ldr	r2, [sp, #68]	; 0x44
   833d4:	4413      	add	r3, r2
   833d6:	461c      	mov	r4, r3
   833d8:	e4c4      	b.n	82d64 <_svfprintf_r+0xdf0>
   833da:	9d0f      	ldr	r5, [sp, #60]	; 0x3c
   833dc:	f89b 3001 	ldrb.w	r3, [fp, #1]
   833e0:	682c      	ldr	r4, [r5, #0]
   833e2:	4683      	mov	fp, r0
   833e4:	ea44 74e4 	orr.w	r4, r4, r4, asr #31
   833e8:	1d28      	adds	r0, r5, #4
   833ea:	9409      	str	r4, [sp, #36]	; 0x24
   833ec:	900f      	str	r0, [sp, #60]	; 0x3c
   833ee:	f7fe be1a 	b.w	82026 <_svfprintf_r+0xb2>
   833f2:	f8df 8064 	ldr.w	r8, [pc, #100]	; 83458 <_svfprintf_r+0x14e4>
   833f6:	e792      	b.n	8331e <_svfprintf_r+0x13aa>
   833f8:	f10d 0386 	add.w	r3, sp, #134	; 0x86
   833fc:	e642      	b.n	83084 <_svfprintf_r+0x1110>
   833fe:	9b09      	ldr	r3, [sp, #36]	; 0x24
   83400:	930e      	str	r3, [sp, #56]	; 0x38
   83402:	e5ff      	b.n	83004 <_svfprintf_r+0x1090>
   83404:	f88d 1077 	strb.w	r1, [sp, #119]	; 0x77
   83408:	f7ff b90f 	b.w	8262a <_svfprintf_r+0x6b6>
   8340c:	f04f 32ff 	mov.w	r2, #4294967295	; 0xffffffff
   83410:	230c      	movs	r3, #12
   83412:	920a      	str	r2, [sp, #40]	; 0x28
   83414:	9a0d      	ldr	r2, [sp, #52]	; 0x34
   83416:	6013      	str	r3, [r2, #0]
   83418:	f7fe be80 	b.w	8211c <_svfprintf_r+0x1a8>
   8341c:	f88d 1077 	strb.w	r1, [sp, #119]	; 0x77
   83420:	f7fe bf39 	b.w	82296 <_svfprintf_r+0x322>
   83424:	f88d 1077 	strb.w	r1, [sp, #119]	; 0x77
   83428:	f7fe bf0d 	b.w	82246 <_svfprintf_r+0x2d2>
   8342c:	f88d 1077 	strb.w	r1, [sp, #119]	; 0x77
   83430:	f7ff b93a 	b.w	826a8 <_svfprintf_r+0x734>
   83434:	f88d 1077 	strb.w	r1, [sp, #119]	; 0x77
   83438:	f7ff b8db 	b.w	825f2 <_svfprintf_r+0x67e>
   8343c:	f88d 1077 	strb.w	r1, [sp, #119]	; 0x77
   83440:	f7ff b970 	b.w	82724 <_svfprintf_r+0x7b0>
   83444:	f88d 1077 	strb.w	r1, [sp, #119]	; 0x77
   83448:	f7ff b892 	b.w	82570 <_svfprintf_r+0x5fc>
   8344c:	cccccccd 	.word	0xcccccccd
   83450:	00087074 	.word	0x00087074
   83454:	00087070 	.word	0x00087070
   83458:	00087058 	.word	0x00087058

0008345c <__register_exitproc>:
   8345c:	b4f0      	push	{r4, r5, r6, r7}
   8345e:	4c17      	ldr	r4, [pc, #92]	; (834bc <__register_exitproc+0x60>)
   83460:	6825      	ldr	r5, [r4, #0]
   83462:	f8d5 4148 	ldr.w	r4, [r5, #328]	; 0x148
   83466:	b30c      	cbz	r4, 834ac <__register_exitproc+0x50>
   83468:	6865      	ldr	r5, [r4, #4]
   8346a:	2d1f      	cmp	r5, #31
   8346c:	dc23      	bgt.n	834b6 <__register_exitproc+0x5a>
   8346e:	b938      	cbnz	r0, 83480 <__register_exitproc+0x24>
   83470:	2000      	movs	r0, #0
   83472:	1c6b      	adds	r3, r5, #1
   83474:	3502      	adds	r5, #2
   83476:	6063      	str	r3, [r4, #4]
   83478:	f844 1025 	str.w	r1, [r4, r5, lsl #2]
   8347c:	bcf0      	pop	{r4, r5, r6, r7}
   8347e:	4770      	bx	lr
   83480:	2601      	movs	r6, #1
   83482:	eb04 0c85 	add.w	ip, r4, r5, lsl #2
   83486:	f8cc 2088 	str.w	r2, [ip, #136]	; 0x88
   8348a:	f8d4 7188 	ldr.w	r7, [r4, #392]	; 0x188
   8348e:	fa06 f205 	lsl.w	r2, r6, r5
   83492:	4317      	orrs	r7, r2
   83494:	2802      	cmp	r0, #2
   83496:	f8c4 7188 	str.w	r7, [r4, #392]	; 0x188
   8349a:	f8cc 3108 	str.w	r3, [ip, #264]	; 0x108
   8349e:	d1e7      	bne.n	83470 <__register_exitproc+0x14>
   834a0:	f8d4 318c 	ldr.w	r3, [r4, #396]	; 0x18c
   834a4:	431a      	orrs	r2, r3
   834a6:	f8c4 218c 	str.w	r2, [r4, #396]	; 0x18c
   834aa:	e7e1      	b.n	83470 <__register_exitproc+0x14>
   834ac:	f505 74a6 	add.w	r4, r5, #332	; 0x14c
   834b0:	f8c5 4148 	str.w	r4, [r5, #328]	; 0x148
   834b4:	e7d8      	b.n	83468 <__register_exitproc+0xc>
   834b6:	f04f 30ff 	mov.w	r0, #4294967295	; 0xffffffff
   834ba:	e7df      	b.n	8347c <__register_exitproc+0x20>
   834bc:	00087044 	.word	0x00087044

000834c0 <register_fini>:
   834c0:	4b02      	ldr	r3, [pc, #8]	; (834cc <register_fini+0xc>)
   834c2:	b113      	cbz	r3, 834ca <register_fini+0xa>
   834c4:	4802      	ldr	r0, [pc, #8]	; (834d0 <register_fini+0x10>)
   834c6:	f7fe bc59 	b.w	81d7c <atexit>
   834ca:	4770      	bx	lr
   834cc:	00000000 	.word	0x00000000
   834d0:	00081d89 	.word	0x00081d89
   834d4:	00000000 	.word	0x00000000

000834d8 <quorem>:
   834d8:	e92d 4ff0 	stmdb	sp!, {r4, r5, r6, r7, r8, r9, sl, fp, lr}
   834dc:	6903      	ldr	r3, [r0, #16]
   834de:	690e      	ldr	r6, [r1, #16]
   834e0:	b083      	sub	sp, #12
   834e2:	42b3      	cmp	r3, r6
   834e4:	f2c0 8086 	blt.w	835f4 <quorem+0x11c>
   834e8:	3e01      	subs	r6, #1
   834ea:	f101 0814 	add.w	r8, r1, #20
   834ee:	f100 0914 	add.w	r9, r0, #20
   834f2:	f858 3026 	ldr.w	r3, [r8, r6, lsl #2]
   834f6:	f859 7026 	ldr.w	r7, [r9, r6, lsl #2]
   834fa:	3301      	adds	r3, #1
   834fc:	fbb7 f7f3 	udiv	r7, r7, r3
   83500:	00b3      	lsls	r3, r6, #2
   83502:	9300      	str	r3, [sp, #0]
   83504:	eb08 0a03 	add.w	sl, r8, r3
   83508:	444b      	add	r3, r9
   8350a:	9301      	str	r3, [sp, #4]
   8350c:	2f00      	cmp	r7, #0
   8350e:	d03b      	beq.n	83588 <quorem+0xb0>
   83510:	2300      	movs	r3, #0
   83512:	46c6      	mov	lr, r8
   83514:	461c      	mov	r4, r3
   83516:	46cc      	mov	ip, r9
   83518:	f85e 2b04 	ldr.w	r2, [lr], #4
   8351c:	f8dc 5000 	ldr.w	r5, [ip]
   83520:	fa1f fb82 	uxth.w	fp, r2
   83524:	fb07 330b 	mla	r3, r7, fp, r3
   83528:	0c12      	lsrs	r2, r2, #16
   8352a:	ea4f 4b13 	mov.w	fp, r3, lsr #16
   8352e:	fb07 bb02 	mla	fp, r7, r2, fp
   83532:	b29a      	uxth	r2, r3
   83534:	1aa2      	subs	r2, r4, r2
   83536:	b2ab      	uxth	r3, r5
   83538:	fa1f f48b 	uxth.w	r4, fp
   8353c:	441a      	add	r2, r3
   8353e:	ebc4 4415 	rsb	r4, r4, r5, lsr #16
   83542:	eb04 4422 	add.w	r4, r4, r2, asr #16
   83546:	b292      	uxth	r2, r2
   83548:	ea42 4204 	orr.w	r2, r2, r4, lsl #16
   8354c:	45f2      	cmp	sl, lr
   8354e:	f84c 2b04 	str.w	r2, [ip], #4
   83552:	ea4f 4424 	mov.w	r4, r4, asr #16
   83556:	ea4f 431b 	mov.w	r3, fp, lsr #16
   8355a:	d2dd      	bcs.n	83518 <quorem+0x40>
   8355c:	9b00      	ldr	r3, [sp, #0]
   8355e:	f859 3003 	ldr.w	r3, [r9, r3]
   83562:	b98b      	cbnz	r3, 83588 <quorem+0xb0>
   83564:	9a01      	ldr	r2, [sp, #4]
   83566:	1f13      	subs	r3, r2, #4
   83568:	4599      	cmp	r9, r3
   8356a:	d20c      	bcs.n	83586 <quorem+0xae>
   8356c:	f852 3c04 	ldr.w	r3, [r2, #-4]
   83570:	b94b      	cbnz	r3, 83586 <quorem+0xae>
   83572:	f1a2 0308 	sub.w	r3, r2, #8
   83576:	e002      	b.n	8357e <quorem+0xa6>
   83578:	681a      	ldr	r2, [r3, #0]
   8357a:	3b04      	subs	r3, #4
   8357c:	b91a      	cbnz	r2, 83586 <quorem+0xae>
   8357e:	4599      	cmp	r9, r3
   83580:	f106 36ff 	add.w	r6, r6, #4294967295	; 0xffffffff
   83584:	d3f8      	bcc.n	83578 <quorem+0xa0>
   83586:	6106      	str	r6, [r0, #16]
   83588:	4604      	mov	r4, r0
   8358a:	f001 fee9 	bl	85360 <__mcmp>
   8358e:	2800      	cmp	r0, #0
   83590:	db2c      	blt.n	835ec <quorem+0x114>
   83592:	464d      	mov	r5, r9
   83594:	2300      	movs	r3, #0
   83596:	3701      	adds	r7, #1
   83598:	f858 1b04 	ldr.w	r1, [r8], #4
   8359c:	6828      	ldr	r0, [r5, #0]
   8359e:	b28a      	uxth	r2, r1
   835a0:	1a9a      	subs	r2, r3, r2
   835a2:	0c0b      	lsrs	r3, r1, #16
   835a4:	b281      	uxth	r1, r0
   835a6:	440a      	add	r2, r1
   835a8:	ebc3 4310 	rsb	r3, r3, r0, lsr #16
   835ac:	eb03 4322 	add.w	r3, r3, r2, asr #16
   835b0:	b292      	uxth	r2, r2
   835b2:	ea42 4203 	orr.w	r2, r2, r3, lsl #16
   835b6:	45c2      	cmp	sl, r8
   835b8:	f845 2b04 	str.w	r2, [r5], #4
   835bc:	ea4f 4323 	mov.w	r3, r3, asr #16
   835c0:	d2ea      	bcs.n	83598 <quorem+0xc0>
   835c2:	f859 2026 	ldr.w	r2, [r9, r6, lsl #2]
   835c6:	eb09 0386 	add.w	r3, r9, r6, lsl #2
   835ca:	b97a      	cbnz	r2, 835ec <quorem+0x114>
   835cc:	1f1a      	subs	r2, r3, #4
   835ce:	4591      	cmp	r9, r2
   835d0:	d20b      	bcs.n	835ea <quorem+0x112>
   835d2:	f853 2c04 	ldr.w	r2, [r3, #-4]
   835d6:	b942      	cbnz	r2, 835ea <quorem+0x112>
   835d8:	3b08      	subs	r3, #8
   835da:	e002      	b.n	835e2 <quorem+0x10a>
   835dc:	681a      	ldr	r2, [r3, #0]
   835de:	3b04      	subs	r3, #4
   835e0:	b91a      	cbnz	r2, 835ea <quorem+0x112>
   835e2:	4599      	cmp	r9, r3
   835e4:	f106 36ff 	add.w	r6, r6, #4294967295	; 0xffffffff
   835e8:	d3f8      	bcc.n	835dc <quorem+0x104>
   835ea:	6126      	str	r6, [r4, #16]
   835ec:	4638      	mov	r0, r7
   835ee:	b003      	add	sp, #12
   835f0:	e8bd 8ff0 	ldmia.w	sp!, {r4, r5, r6, r7, r8, r9, sl, fp, pc}
   835f4:	2000      	movs	r0, #0
   835f6:	b003      	add	sp, #12
   835f8:	e8bd 8ff0 	ldmia.w	sp!, {r4, r5, r6, r7, r8, r9, sl, fp, pc}

000835fc <_dtoa_r>:
   835fc:	e92d 4ff0 	stmdb	sp!, {r4, r5, r6, r7, r8, r9, sl, fp, lr}
   83600:	461f      	mov	r7, r3
   83602:	4616      	mov	r6, r2
   83604:	6c03      	ldr	r3, [r0, #64]	; 0x40
   83606:	b099      	sub	sp, #100	; 0x64
   83608:	4604      	mov	r4, r0
   8360a:	e9cd 6702 	strd	r6, r7, [sp, #8]
   8360e:	b14b      	cbz	r3, 83624 <_dtoa_r+0x28>
   83610:	2201      	movs	r2, #1
   83612:	6c45      	ldr	r5, [r0, #68]	; 0x44
   83614:	4619      	mov	r1, r3
   83616:	40aa      	lsls	r2, r5
   83618:	e9c3 5201 	strd	r5, r2, [r3, #4]
   8361c:	f001 fc5e 	bl	84edc <_Bfree>
   83620:	2300      	movs	r3, #0
   83622:	6423      	str	r3, [r4, #64]	; 0x40
   83624:	1e3e      	subs	r6, r7, #0
   83626:	bfb4      	ite	lt
   83628:	2301      	movlt	r3, #1
   8362a:	2300      	movge	r3, #0
   8362c:	9a25      	ldr	r2, [sp, #148]	; 0x94
   8362e:	bfb8      	it	lt
   83630:	f026 4600 	biclt.w	r6, r6, #2147483648	; 0x80000000
   83634:	6013      	str	r3, [r2, #0]
   83636:	4b74      	ldr	r3, [pc, #464]	; (83808 <_dtoa_r+0x20c>)
   83638:	bfb8      	it	lt
   8363a:	9603      	strlt	r6, [sp, #12]
   8363c:	43b3      	bics	r3, r6
   8363e:	f000 80a3 	beq.w	83788 <_dtoa_r+0x18c>
   83642:	e9dd 8902 	ldrd	r8, r9, [sp, #8]
   83646:	2200      	movs	r2, #0
   83648:	2300      	movs	r3, #0
   8364a:	4640      	mov	r0, r8
   8364c:	4649      	mov	r1, r9
   8364e:	f003 fc7f 	bl	86f50 <__aeabi_dcmpeq>
   83652:	4607      	mov	r7, r0
   83654:	b178      	cbz	r0, 83676 <_dtoa_r+0x7a>
   83656:	2301      	movs	r3, #1
   83658:	9a24      	ldr	r2, [sp, #144]	; 0x90
   8365a:	6013      	str	r3, [r2, #0]
   8365c:	9b26      	ldr	r3, [sp, #152]	; 0x98
   8365e:	2b00      	cmp	r3, #0
   83660:	f000 80bf 	beq.w	837e2 <_dtoa_r+0x1e6>
   83664:	4b69      	ldr	r3, [pc, #420]	; (8380c <_dtoa_r+0x210>)
   83666:	9a26      	ldr	r2, [sp, #152]	; 0x98
   83668:	f103 39ff 	add.w	r9, r3, #4294967295	; 0xffffffff
   8366c:	6013      	str	r3, [r2, #0]
   8366e:	4648      	mov	r0, r9
   83670:	b019      	add	sp, #100	; 0x64
   83672:	e8bd 8ff0 	ldmia.w	sp!, {r4, r5, r6, r7, r8, r9, sl, fp, pc}
   83676:	aa16      	add	r2, sp, #88	; 0x58
   83678:	ab17      	add	r3, sp, #92	; 0x5c
   8367a:	e9cd 3200 	strd	r3, r2, [sp]
   8367e:	4620      	mov	r0, r4
   83680:	4642      	mov	r2, r8
   83682:	464b      	mov	r3, r9
   83684:	f001 ff8a 	bl	8559c <__d2b>
   83688:	0d35      	lsrs	r5, r6, #20
   8368a:	4683      	mov	fp, r0
   8368c:	f040 809c 	bne.w	837c8 <_dtoa_r+0x1cc>
   83690:	e9dd 8516 	ldrd	r8, r5, [sp, #88]	; 0x58
   83694:	4445      	add	r5, r8
   83696:	f205 4332 	addw	r3, r5, #1074	; 0x432
   8369a:	2b20      	cmp	r3, #32
   8369c:	f340 842f 	ble.w	83efe <_dtoa_r+0x902>
   836a0:	f1c3 0340 	rsb	r3, r3, #64	; 0x40
   836a4:	409e      	lsls	r6, r3
   836a6:	9b02      	ldr	r3, [sp, #8]
   836a8:	f205 4012 	addw	r0, r5, #1042	; 0x412
   836ac:	fa23 f000 	lsr.w	r0, r3, r0
   836b0:	4330      	orrs	r0, r6
   836b2:	f003 f96b 	bl	8698c <__aeabi_ui2d>
   836b6:	2201      	movs	r2, #1
   836b8:	3d01      	subs	r5, #1
   836ba:	920a      	str	r2, [sp, #40]	; 0x28
   836bc:	f1a1 71f8 	sub.w	r1, r1, #32505856	; 0x1f00000
   836c0:	2200      	movs	r2, #0
   836c2:	4b53      	ldr	r3, [pc, #332]	; (83810 <_dtoa_r+0x214>)
   836c4:	f003 f824 	bl	86710 <__aeabi_dsub>
   836c8:	a349      	add	r3, pc, #292	; (adr r3, 837f0 <_dtoa_r+0x1f4>)
   836ca:	e9d3 2300 	ldrd	r2, r3, [r3]
   836ce:	f003 f9d7 	bl	86a80 <__aeabi_dmul>
   836d2:	a349      	add	r3, pc, #292	; (adr r3, 837f8 <_dtoa_r+0x1fc>)
   836d4:	e9d3 2300 	ldrd	r2, r3, [r3]
   836d8:	f003 f81c 	bl	86714 <__adddf3>
   836dc:	4606      	mov	r6, r0
   836de:	4628      	mov	r0, r5
   836e0:	460f      	mov	r7, r1
   836e2:	f003 f963 	bl	869ac <__aeabi_i2d>
   836e6:	a346      	add	r3, pc, #280	; (adr r3, 83800 <_dtoa_r+0x204>)
   836e8:	e9d3 2300 	ldrd	r2, r3, [r3]
   836ec:	f003 f9c8 	bl	86a80 <__aeabi_dmul>
   836f0:	4602      	mov	r2, r0
   836f2:	460b      	mov	r3, r1
   836f4:	4630      	mov	r0, r6
   836f6:	4639      	mov	r1, r7
   836f8:	f003 f80c 	bl	86714 <__adddf3>
   836fc:	4606      	mov	r6, r0
   836fe:	460f      	mov	r7, r1
   83700:	f003 fc6e 	bl	86fe0 <__aeabi_d2iz>
   83704:	2200      	movs	r2, #0
   83706:	9005      	str	r0, [sp, #20]
   83708:	2300      	movs	r3, #0
   8370a:	4630      	mov	r0, r6
   8370c:	4639      	mov	r1, r7
   8370e:	f003 fc29 	bl	86f64 <__aeabi_dcmplt>
   83712:	2800      	cmp	r0, #0
   83714:	f040 8275 	bne.w	83c02 <_dtoa_r+0x606>
   83718:	9e05      	ldr	r6, [sp, #20]
   8371a:	2e16      	cmp	r6, #22
   8371c:	f200 825f 	bhi.w	83bde <_dtoa_r+0x5e2>
   83720:	e9dd 2302 	ldrd	r2, r3, [sp, #8]
   83724:	493b      	ldr	r1, [pc, #236]	; (83814 <_dtoa_r+0x218>)
   83726:	eb01 01c6 	add.w	r1, r1, r6, lsl #3
   8372a:	e9d1 0100 	ldrd	r0, r1, [r1]
   8372e:	f003 fc37 	bl	86fa0 <__aeabi_dcmpgt>
   83732:	2800      	cmp	r0, #0
   83734:	f000 83df 	beq.w	83ef6 <_dtoa_r+0x8fa>
   83738:	1e73      	subs	r3, r6, #1
   8373a:	9305      	str	r3, [sp, #20]
   8373c:	2300      	movs	r3, #0
   8373e:	930d      	str	r3, [sp, #52]	; 0x34
   83740:	eba8 0505 	sub.w	r5, r8, r5
   83744:	f1b5 0a01 	subs.w	sl, r5, #1
   83748:	f100 8255 	bmi.w	83bf6 <_dtoa_r+0x5fa>
   8374c:	2300      	movs	r3, #0
   8374e:	9306      	str	r3, [sp, #24]
   83750:	9b05      	ldr	r3, [sp, #20]
   83752:	2b00      	cmp	r3, #0
   83754:	f2c0 8246 	blt.w	83be4 <_dtoa_r+0x5e8>
   83758:	449a      	add	sl, r3
   8375a:	930c      	str	r3, [sp, #48]	; 0x30
   8375c:	2300      	movs	r3, #0
   8375e:	930b      	str	r3, [sp, #44]	; 0x2c
   83760:	9b22      	ldr	r3, [sp, #136]	; 0x88
   83762:	2b09      	cmp	r3, #9
   83764:	d85e      	bhi.n	83824 <_dtoa_r+0x228>
   83766:	2b05      	cmp	r3, #5
   83768:	f340 83c7 	ble.w	83efa <_dtoa_r+0x8fe>
   8376c:	2600      	movs	r6, #0
   8376e:	3b04      	subs	r3, #4
   83770:	9322      	str	r3, [sp, #136]	; 0x88
   83772:	9b22      	ldr	r3, [sp, #136]	; 0x88
   83774:	3b02      	subs	r3, #2
   83776:	2b03      	cmp	r3, #3
   83778:	f200 849f 	bhi.w	840ba <_dtoa_r+0xabe>
   8377c:	e8df f013 	tbh	[pc, r3, lsl #1]
   83780:	03c603e4 	.word	0x03c603e4
   83784:	04fa03ee 	.word	0x04fa03ee
   83788:	f242 730f 	movw	r3, #9999	; 0x270f
   8378c:	9a24      	ldr	r2, [sp, #144]	; 0x90
   8378e:	6013      	str	r3, [r2, #0]
   83790:	9b02      	ldr	r3, [sp, #8]
   83792:	b983      	cbnz	r3, 837b6 <_dtoa_r+0x1ba>
   83794:	f3c6 0613 	ubfx	r6, r6, #0, #20
   83798:	b96e      	cbnz	r6, 837b6 <_dtoa_r+0x1ba>
   8379a:	9b26      	ldr	r3, [sp, #152]	; 0x98
   8379c:	f8df 9078 	ldr.w	r9, [pc, #120]	; 83818 <_dtoa_r+0x21c>
   837a0:	2b00      	cmp	r3, #0
   837a2:	f43f af64 	beq.w	8366e <_dtoa_r+0x72>
   837a6:	f109 0308 	add.w	r3, r9, #8
   837aa:	4648      	mov	r0, r9
   837ac:	9a26      	ldr	r2, [sp, #152]	; 0x98
   837ae:	6013      	str	r3, [r2, #0]
   837b0:	b019      	add	sp, #100	; 0x64
   837b2:	e8bd 8ff0 	ldmia.w	sp!, {r4, r5, r6, r7, r8, r9, sl, fp, pc}
   837b6:	9b26      	ldr	r3, [sp, #152]	; 0x98
   837b8:	f8df 9060 	ldr.w	r9, [pc, #96]	; 8381c <_dtoa_r+0x220>
   837bc:	2b00      	cmp	r3, #0
   837be:	f43f af56 	beq.w	8366e <_dtoa_r+0x72>
   837c2:	f109 0303 	add.w	r3, r9, #3
   837c6:	e7f0      	b.n	837aa <_dtoa_r+0x1ae>
   837c8:	f3c9 0313 	ubfx	r3, r9, #0, #20
   837cc:	f043 517f 	orr.w	r1, r3, #1069547520	; 0x3fc00000
   837d0:	4640      	mov	r0, r8
   837d2:	f2a5 35ff 	subw	r5, r5, #1023	; 0x3ff
   837d6:	970a      	str	r7, [sp, #40]	; 0x28
   837d8:	f441 1140 	orr.w	r1, r1, #3145728	; 0x300000
   837dc:	f8dd 8058 	ldr.w	r8, [sp, #88]	; 0x58
   837e0:	e76e      	b.n	836c0 <_dtoa_r+0xc4>
   837e2:	f8df 903c 	ldr.w	r9, [pc, #60]	; 83820 <_dtoa_r+0x224>
   837e6:	4648      	mov	r0, r9
   837e8:	b019      	add	sp, #100	; 0x64
   837ea:	e8bd 8ff0 	ldmia.w	sp!, {r4, r5, r6, r7, r8, r9, sl, fp, pc}
   837ee:	bf00      	nop
   837f0:	636f4361 	.word	0x636f4361
   837f4:	3fd287a7 	.word	0x3fd287a7
   837f8:	8b60c8b3 	.word	0x8b60c8b3
   837fc:	3fc68a28 	.word	0x3fc68a28
   83800:	509f79fb 	.word	0x509f79fb
   83804:	3fd34413 	.word	0x3fd34413
   83808:	7ff00000 	.word	0x7ff00000
   8380c:	000870a9 	.word	0x000870a9
   83810:	3ff80000 	.word	0x3ff80000
   83814:	000870e0 	.word	0x000870e0
   83818:	000870ac 	.word	0x000870ac
   8381c:	000870b8 	.word	0x000870b8
   83820:	000870a8 	.word	0x000870a8
   83824:	f04f 35ff 	mov.w	r5, #4294967295	; 0xffffffff
   83828:	2601      	movs	r6, #1
   8382a:	2300      	movs	r3, #0
   8382c:	e9cd 5608 	strd	r5, r6, [sp, #32]
   83830:	9322      	str	r3, [sp, #136]	; 0x88
   83832:	9323      	str	r3, [sp, #140]	; 0x8c
   83834:	2100      	movs	r1, #0
   83836:	9514      	str	r5, [sp, #80]	; 0x50
   83838:	6461      	str	r1, [r4, #68]	; 0x44
   8383a:	4620      	mov	r0, r4
   8383c:	f001 fb28 	bl	84e90 <_Balloc>
   83840:	2d0e      	cmp	r5, #14
   83842:	4681      	mov	r9, r0
   83844:	6420      	str	r0, [r4, #64]	; 0x40
   83846:	f200 80fe 	bhi.w	83a46 <_dtoa_r+0x44a>
   8384a:	2e00      	cmp	r6, #0
   8384c:	f000 80fb 	beq.w	83a46 <_dtoa_r+0x44a>
   83850:	e9dd 2302 	ldrd	r2, r3, [sp, #8]
   83854:	4616      	mov	r6, r2
   83856:	461f      	mov	r7, r3
   83858:	9905      	ldr	r1, [sp, #20]
   8385a:	e9cd 670e 	strd	r6, r7, [sp, #56]	; 0x38
   8385e:	2900      	cmp	r1, #0
   83860:	f340 83e9 	ble.w	84036 <_dtoa_r+0xa3a>
   83864:	4b9b      	ldr	r3, [pc, #620]	; (83ad4 <_dtoa_r+0x4d8>)
   83866:	f001 020f 	and.w	r2, r1, #15
   8386a:	110d      	asrs	r5, r1, #4
   8386c:	eb03 03c2 	add.w	r3, r3, r2, lsl #3
   83870:	e9d3 1200 	ldrd	r1, r2, [r3]
   83874:	e9cd 1202 	strd	r1, r2, [sp, #8]
   83878:	06ea      	lsls	r2, r5, #27
   8387a:	f140 84a0 	bpl.w	841be <_dtoa_r+0xbc2>
   8387e:	4b96      	ldr	r3, [pc, #600]	; (83ad8 <_dtoa_r+0x4dc>)
   83880:	4639      	mov	r1, r7
   83882:	e9d3 2308 	ldrd	r2, r3, [r3, #32]
   83886:	4630      	mov	r0, r6
   83888:	f003 fa24 	bl	86cd4 <__aeabi_ddiv>
   8388c:	2703      	movs	r7, #3
   8388e:	e9cd 0110 	strd	r0, r1, [sp, #64]	; 0x40
   83892:	f005 050f 	and.w	r5, r5, #15
   83896:	b17d      	cbz	r5, 838b8 <_dtoa_r+0x2bc>
   83898:	e9dd 0102 	ldrd	r0, r1, [sp, #8]
   8389c:	4e8e      	ldr	r6, [pc, #568]	; (83ad8 <_dtoa_r+0x4dc>)
   8389e:	07eb      	lsls	r3, r5, #31
   838a0:	d504      	bpl.n	838ac <_dtoa_r+0x2b0>
   838a2:	e9d6 2300 	ldrd	r2, r3, [r6]
   838a6:	f003 f8eb 	bl	86a80 <__aeabi_dmul>
   838aa:	3701      	adds	r7, #1
   838ac:	106d      	asrs	r5, r5, #1
   838ae:	f106 0608 	add.w	r6, r6, #8
   838b2:	d1f4      	bne.n	8389e <_dtoa_r+0x2a2>
   838b4:	e9cd 0102 	strd	r0, r1, [sp, #8]
   838b8:	e9dd 2302 	ldrd	r2, r3, [sp, #8]
   838bc:	e9dd 0110 	ldrd	r0, r1, [sp, #64]	; 0x40
   838c0:	f003 fa08 	bl	86cd4 <__aeabi_ddiv>
   838c4:	e9cd 0102 	strd	r0, r1, [sp, #8]
   838c8:	9b0d      	ldr	r3, [sp, #52]	; 0x34
   838ca:	b143      	cbz	r3, 838de <_dtoa_r+0x2e2>
   838cc:	e9dd 0102 	ldrd	r0, r1, [sp, #8]
   838d0:	2200      	movs	r2, #0
   838d2:	4b82      	ldr	r3, [pc, #520]	; (83adc <_dtoa_r+0x4e0>)
   838d4:	f003 fb46 	bl	86f64 <__aeabi_dcmplt>
   838d8:	2800      	cmp	r0, #0
   838da:	f040 8509 	bne.w	842f0 <_dtoa_r+0xcf4>
   838de:	4638      	mov	r0, r7
   838e0:	f003 f864 	bl	869ac <__aeabi_i2d>
   838e4:	e9dd 2302 	ldrd	r2, r3, [sp, #8]
   838e8:	f003 f8ca 	bl	86a80 <__aeabi_dmul>
   838ec:	4b7c      	ldr	r3, [pc, #496]	; (83ae0 <_dtoa_r+0x4e4>)
   838ee:	2200      	movs	r2, #0
   838f0:	f002 ff10 	bl	86714 <__adddf3>
   838f4:	9b08      	ldr	r3, [sp, #32]
   838f6:	4605      	mov	r5, r0
   838f8:	f1a1 7650 	sub.w	r6, r1, #54525952	; 0x3400000
   838fc:	2b00      	cmp	r3, #0
   838fe:	f000 841e 	beq.w	8413e <_dtoa_r+0xb42>
   83902:	9b05      	ldr	r3, [sp, #20]
   83904:	9315      	str	r3, [sp, #84]	; 0x54
   83906:	9b08      	ldr	r3, [sp, #32]
   83908:	9310      	str	r3, [sp, #64]	; 0x40
   8390a:	e9dd 0102 	ldrd	r0, r1, [sp, #8]
   8390e:	f003 fb67 	bl	86fe0 <__aeabi_d2iz>
   83912:	9a10      	ldr	r2, [sp, #64]	; 0x40
   83914:	4b6f      	ldr	r3, [pc, #444]	; (83ad4 <_dtoa_r+0x4d8>)
   83916:	f100 0830 	add.w	r8, r0, #48	; 0x30
   8391a:	eb03 03c2 	add.w	r3, r3, r2, lsl #3
   8391e:	e953 1202 	ldrd	r1, r2, [r3, #-8]
   83922:	e9cd 1212 	strd	r1, r2, [sp, #72]	; 0x48
   83926:	f003 f841 	bl	869ac <__aeabi_i2d>
   8392a:	460b      	mov	r3, r1
   8392c:	4602      	mov	r2, r0
   8392e:	e9dd 0102 	ldrd	r0, r1, [sp, #8]
   83932:	e9cd 5602 	strd	r5, r6, [sp, #8]
   83936:	f002 feeb 	bl	86710 <__aeabi_dsub>
   8393a:	9b09      	ldr	r3, [sp, #36]	; 0x24
   8393c:	fa5f f888 	uxtb.w	r8, r8
   83940:	4606      	mov	r6, r0
   83942:	460f      	mov	r7, r1
   83944:	f109 0501 	add.w	r5, r9, #1
   83948:	2b00      	cmp	r3, #0
   8394a:	f000 8463 	beq.w	84214 <_dtoa_r+0xc18>
   8394e:	e9dd 2312 	ldrd	r2, r3, [sp, #72]	; 0x48
   83952:	2000      	movs	r0, #0
   83954:	4963      	ldr	r1, [pc, #396]	; (83ae4 <_dtoa_r+0x4e8>)
   83956:	f003 f9bd 	bl	86cd4 <__aeabi_ddiv>
   8395a:	e9dd 2302 	ldrd	r2, r3, [sp, #8]
   8395e:	f002 fed7 	bl	86710 <__aeabi_dsub>
   83962:	f889 8000 	strb.w	r8, [r9]
   83966:	4632      	mov	r2, r6
   83968:	463b      	mov	r3, r7
   8396a:	e9cd 0102 	strd	r0, r1, [sp, #8]
   8396e:	f003 fb17 	bl	86fa0 <__aeabi_dcmpgt>
   83972:	2800      	cmp	r0, #0
   83974:	f040 850e 	bne.w	84394 <_dtoa_r+0xd98>
   83978:	4632      	mov	r2, r6
   8397a:	463b      	mov	r3, r7
   8397c:	2000      	movs	r0, #0
   8397e:	4957      	ldr	r1, [pc, #348]	; (83adc <_dtoa_r+0x4e0>)
   83980:	f002 fec6 	bl	86710 <__aeabi_dsub>
   83984:	4602      	mov	r2, r0
   83986:	460b      	mov	r3, r1
   83988:	e9dd 0102 	ldrd	r0, r1, [sp, #8]
   8398c:	f003 fb08 	bl	86fa0 <__aeabi_dcmpgt>
   83990:	2800      	cmp	r0, #0
   83992:	f040 8509 	bne.w	843a8 <_dtoa_r+0xdac>
   83996:	9a10      	ldr	r2, [sp, #64]	; 0x40
   83998:	2a01      	cmp	r2, #1
   8399a:	d050      	beq.n	83a3e <_dtoa_r+0x442>
   8399c:	444a      	add	r2, r9
   8399e:	f8cd a048 	str.w	sl, [sp, #72]	; 0x48
   839a2:	f8cd b040 	str.w	fp, [sp, #64]	; 0x40
   839a6:	46a0      	mov	r8, r4
   839a8:	e9dd ab02 	ldrd	sl, fp, [sp, #8]
   839ac:	f8cd 9008 	str.w	r9, [sp, #8]
   839b0:	4691      	mov	r9, r2
   839b2:	e00e      	b.n	839d2 <_dtoa_r+0x3d6>
   839b4:	4632      	mov	r2, r6
   839b6:	463b      	mov	r3, r7
   839b8:	2000      	movs	r0, #0
   839ba:	4948      	ldr	r1, [pc, #288]	; (83adc <_dtoa_r+0x4e0>)
   839bc:	f002 fea8 	bl	86710 <__aeabi_dsub>
   839c0:	4652      	mov	r2, sl
   839c2:	465b      	mov	r3, fp
   839c4:	f003 face 	bl	86f64 <__aeabi_dcmplt>
   839c8:	2800      	cmp	r0, #0
   839ca:	f040 84e6 	bne.w	8439a <_dtoa_r+0xd9e>
   839ce:	454d      	cmp	r5, r9
   839d0:	d02e      	beq.n	83a30 <_dtoa_r+0x434>
   839d2:	4650      	mov	r0, sl
   839d4:	4659      	mov	r1, fp
   839d6:	2200      	movs	r2, #0
   839d8:	4b43      	ldr	r3, [pc, #268]	; (83ae8 <_dtoa_r+0x4ec>)
   839da:	f003 f851 	bl	86a80 <__aeabi_dmul>
   839de:	2200      	movs	r2, #0
   839e0:	4b41      	ldr	r3, [pc, #260]	; (83ae8 <_dtoa_r+0x4ec>)
   839e2:	4682      	mov	sl, r0
   839e4:	468b      	mov	fp, r1
   839e6:	4630      	mov	r0, r6
   839e8:	4639      	mov	r1, r7
   839ea:	f003 f849 	bl	86a80 <__aeabi_dmul>
   839ee:	460f      	mov	r7, r1
   839f0:	4606      	mov	r6, r0
   839f2:	f003 faf5 	bl	86fe0 <__aeabi_d2iz>
   839f6:	4604      	mov	r4, r0
   839f8:	f002 ffd8 	bl	869ac <__aeabi_i2d>
   839fc:	4602      	mov	r2, r0
   839fe:	460b      	mov	r3, r1
   83a00:	4630      	mov	r0, r6
   83a02:	4639      	mov	r1, r7
   83a04:	f002 fe84 	bl	86710 <__aeabi_dsub>
   83a08:	3430      	adds	r4, #48	; 0x30
   83a0a:	b2e4      	uxtb	r4, r4
   83a0c:	f805 4b01 	strb.w	r4, [r5], #1
   83a10:	4652      	mov	r2, sl
   83a12:	465b      	mov	r3, fp
   83a14:	4606      	mov	r6, r0
   83a16:	460f      	mov	r7, r1
   83a18:	f003 faa4 	bl	86f64 <__aeabi_dcmplt>
   83a1c:	2800      	cmp	r0, #0
   83a1e:	d0c9      	beq.n	839b4 <_dtoa_r+0x3b8>
   83a20:	9b15      	ldr	r3, [sp, #84]	; 0x54
   83a22:	f8dd b040 	ldr.w	fp, [sp, #64]	; 0x40
   83a26:	f8dd 9008 	ldr.w	r9, [sp, #8]
   83a2a:	4644      	mov	r4, r8
   83a2c:	9305      	str	r3, [sp, #20]
   83a2e:	e239      	b.n	83ea4 <_dtoa_r+0x8a8>
   83a30:	4644      	mov	r4, r8
   83a32:	f8dd a048 	ldr.w	sl, [sp, #72]	; 0x48
   83a36:	f8dd b040 	ldr.w	fp, [sp, #64]	; 0x40
   83a3a:	f8dd 9008 	ldr.w	r9, [sp, #8]
   83a3e:	e9dd 230e 	ldrd	r2, r3, [sp, #56]	; 0x38
   83a42:	e9cd 2302 	strd	r2, r3, [sp, #8]
   83a46:	9b17      	ldr	r3, [sp, #92]	; 0x5c
   83a48:	2b00      	cmp	r3, #0
   83a4a:	f2c0 80a9 	blt.w	83ba0 <_dtoa_r+0x5a4>
   83a4e:	9a05      	ldr	r2, [sp, #20]
   83a50:	2a0e      	cmp	r2, #14
   83a52:	f300 80a5 	bgt.w	83ba0 <_dtoa_r+0x5a4>
   83a56:	4b1f      	ldr	r3, [pc, #124]	; (83ad4 <_dtoa_r+0x4d8>)
   83a58:	eb03 03c2 	add.w	r3, r3, r2, lsl #3
   83a5c:	e9d3 2300 	ldrd	r2, r3, [r3]
   83a60:	e9cd 2306 	strd	r2, r3, [sp, #24]
   83a64:	9b23      	ldr	r3, [sp, #140]	; 0x8c
   83a66:	2b00      	cmp	r3, #0
   83a68:	f2c0 82c1 	blt.w	83fee <_dtoa_r+0x9f2>
   83a6c:	e9dd 6702 	ldrd	r6, r7, [sp, #8]
   83a70:	e9dd 2306 	ldrd	r2, r3, [sp, #24]
   83a74:	4630      	mov	r0, r6
   83a76:	4639      	mov	r1, r7
   83a78:	f003 f92c 	bl	86cd4 <__aeabi_ddiv>
   83a7c:	f003 fab0 	bl	86fe0 <__aeabi_d2iz>
   83a80:	4680      	mov	r8, r0
   83a82:	f002 ff93 	bl	869ac <__aeabi_i2d>
   83a86:	e9dd 2306 	ldrd	r2, r3, [sp, #24]
   83a8a:	f002 fff9 	bl	86a80 <__aeabi_dmul>
   83a8e:	4602      	mov	r2, r0
   83a90:	460b      	mov	r3, r1
   83a92:	4630      	mov	r0, r6
   83a94:	4639      	mov	r1, r7
   83a96:	f002 fe3b 	bl	86710 <__aeabi_dsub>
   83a9a:	9e08      	ldr	r6, [sp, #32]
   83a9c:	f108 0530 	add.w	r5, r8, #48	; 0x30
   83aa0:	2e01      	cmp	r6, #1
   83aa2:	f889 5000 	strb.w	r5, [r9]
   83aa6:	4602      	mov	r2, r0
   83aa8:	460b      	mov	r3, r1
   83aaa:	f109 0501 	add.w	r5, r9, #1
   83aae:	d04c      	beq.n	83b4a <_dtoa_r+0x54e>
   83ab0:	2200      	movs	r2, #0
   83ab2:	4b0d      	ldr	r3, [pc, #52]	; (83ae8 <_dtoa_r+0x4ec>)
   83ab4:	f002 ffe4 	bl	86a80 <__aeabi_dmul>
   83ab8:	2200      	movs	r2, #0
   83aba:	2300      	movs	r3, #0
   83abc:	4606      	mov	r6, r0
   83abe:	460f      	mov	r7, r1
   83ac0:	f003 fa46 	bl	86f50 <__aeabi_dcmpeq>
   83ac4:	2800      	cmp	r0, #0
   83ac6:	f040 81ed 	bne.w	83ea4 <_dtoa_r+0x8a8>
   83aca:	f8cd b008 	str.w	fp, [sp, #8]
   83ace:	e9dd ab06 	ldrd	sl, fp, [sp, #24]
   83ad2:	e018      	b.n	83b06 <_dtoa_r+0x50a>
   83ad4:	000870e0 	.word	0x000870e0
   83ad8:	000871d0 	.word	0x000871d0
   83adc:	3ff00000 	.word	0x3ff00000
   83ae0:	401c0000 	.word	0x401c0000
   83ae4:	3fe00000 	.word	0x3fe00000
   83ae8:	40240000 	.word	0x40240000
   83aec:	2200      	movs	r2, #0
   83aee:	4bc6      	ldr	r3, [pc, #792]	; (83e08 <_dtoa_r+0x80c>)
   83af0:	f002 ffc6 	bl	86a80 <__aeabi_dmul>
   83af4:	2200      	movs	r2, #0
   83af6:	2300      	movs	r3, #0
   83af8:	4606      	mov	r6, r0
   83afa:	460f      	mov	r7, r1
   83afc:	f003 fa28 	bl	86f50 <__aeabi_dcmpeq>
   83b00:	2800      	cmp	r0, #0
   83b02:	f040 8341 	bne.w	84188 <_dtoa_r+0xb8c>
   83b06:	4652      	mov	r2, sl
   83b08:	465b      	mov	r3, fp
   83b0a:	4630      	mov	r0, r6
   83b0c:	4639      	mov	r1, r7
   83b0e:	f003 f8e1 	bl	86cd4 <__aeabi_ddiv>
   83b12:	f003 fa65 	bl	86fe0 <__aeabi_d2iz>
   83b16:	4680      	mov	r8, r0
   83b18:	f002 ff48 	bl	869ac <__aeabi_i2d>
   83b1c:	4652      	mov	r2, sl
   83b1e:	465b      	mov	r3, fp
   83b20:	f002 ffae 	bl	86a80 <__aeabi_dmul>
   83b24:	4602      	mov	r2, r0
   83b26:	460b      	mov	r3, r1
   83b28:	4630      	mov	r0, r6
   83b2a:	4639      	mov	r1, r7
   83b2c:	f002 fdf0 	bl	86710 <__aeabi_dsub>
   83b30:	f108 0630 	add.w	r6, r8, #48	; 0x30
   83b34:	f805 6b01 	strb.w	r6, [r5], #1
   83b38:	9f08      	ldr	r7, [sp, #32]
   83b3a:	eba5 0609 	sub.w	r6, r5, r9
   83b3e:	42b7      	cmp	r7, r6
   83b40:	4602      	mov	r2, r0
   83b42:	460b      	mov	r3, r1
   83b44:	d1d2      	bne.n	83aec <_dtoa_r+0x4f0>
   83b46:	f8dd b008 	ldr.w	fp, [sp, #8]
   83b4a:	4610      	mov	r0, r2
   83b4c:	4619      	mov	r1, r3
   83b4e:	f002 fde1 	bl	86714 <__adddf3>
   83b52:	e9dd 2306 	ldrd	r2, r3, [sp, #24]
   83b56:	4606      	mov	r6, r0
   83b58:	460f      	mov	r7, r1
   83b5a:	f003 fa21 	bl	86fa0 <__aeabi_dcmpgt>
   83b5e:	b960      	cbnz	r0, 83b7a <_dtoa_r+0x57e>
   83b60:	e9dd 2306 	ldrd	r2, r3, [sp, #24]
   83b64:	4630      	mov	r0, r6
   83b66:	4639      	mov	r1, r7
   83b68:	f003 f9f2 	bl	86f50 <__aeabi_dcmpeq>
   83b6c:	2800      	cmp	r0, #0
   83b6e:	f000 8199 	beq.w	83ea4 <_dtoa_r+0x8a8>
   83b72:	f018 0f01 	tst.w	r8, #1
   83b76:	f000 8195 	beq.w	83ea4 <_dtoa_r+0x8a8>
   83b7a:	f815 8c01 	ldrb.w	r8, [r5, #-1]
   83b7e:	e005      	b.n	83b8c <_dtoa_r+0x590>
   83b80:	4599      	cmp	r9, r3
   83b82:	f000 833a 	beq.w	841fa <_dtoa_r+0xbfe>
   83b86:	461d      	mov	r5, r3
   83b88:	f813 8c01 	ldrb.w	r8, [r3, #-1]
   83b8c:	f1b8 0f39 	cmp.w	r8, #57	; 0x39
   83b90:	f105 33ff 	add.w	r3, r5, #4294967295	; 0xffffffff
   83b94:	d0f4      	beq.n	83b80 <_dtoa_r+0x584>
   83b96:	f108 0801 	add.w	r8, r8, #1
   83b9a:	f883 8000 	strb.w	r8, [r3]
   83b9e:	e181      	b.n	83ea4 <_dtoa_r+0x8a8>
   83ba0:	9a09      	ldr	r2, [sp, #36]	; 0x24
   83ba2:	2a00      	cmp	r2, #0
   83ba4:	d03d      	beq.n	83c22 <_dtoa_r+0x626>
   83ba6:	9a22      	ldr	r2, [sp, #136]	; 0x88
   83ba8:	2a01      	cmp	r2, #1
   83baa:	f340 8212 	ble.w	83fd2 <_dtoa_r+0x9d6>
   83bae:	9b08      	ldr	r3, [sp, #32]
   83bb0:	f103 38ff 	add.w	r8, r3, #4294967295	; 0xffffffff
   83bb4:	9b0b      	ldr	r3, [sp, #44]	; 0x2c
   83bb6:	4543      	cmp	r3, r8
   83bb8:	f2c0 82e9 	blt.w	8418e <_dtoa_r+0xb92>
   83bbc:	eba3 0808 	sub.w	r8, r3, r8
   83bc0:	9b08      	ldr	r3, [sp, #32]
   83bc2:	2b00      	cmp	r3, #0
   83bc4:	f2c0 830e 	blt.w	841e4 <_dtoa_r+0xbe8>
   83bc8:	9a06      	ldr	r2, [sp, #24]
   83bca:	449a      	add	sl, r3
   83bcc:	920a      	str	r2, [sp, #40]	; 0x28
   83bce:	441a      	add	r2, r3
   83bd0:	9206      	str	r2, [sp, #24]
   83bd2:	2101      	movs	r1, #1
   83bd4:	4620      	mov	r0, r4
   83bd6:	f001 fa69 	bl	850ac <__i2b>
   83bda:	4606      	mov	r6, r0
   83bdc:	e026      	b.n	83c2c <_dtoa_r+0x630>
   83bde:	2301      	movs	r3, #1
   83be0:	930d      	str	r3, [sp, #52]	; 0x34
   83be2:	e5ad      	b.n	83740 <_dtoa_r+0x144>
   83be4:	2300      	movs	r3, #0
   83be6:	930c      	str	r3, [sp, #48]	; 0x30
   83be8:	e9dd 3205 	ldrd	r3, r2, [sp, #20]
   83bec:	1ad2      	subs	r2, r2, r3
   83bee:	425b      	negs	r3, r3
   83bf0:	9206      	str	r2, [sp, #24]
   83bf2:	930b      	str	r3, [sp, #44]	; 0x2c
   83bf4:	e5b4      	b.n	83760 <_dtoa_r+0x164>
   83bf6:	f1c5 0301 	rsb	r3, r5, #1
   83bfa:	9306      	str	r3, [sp, #24]
   83bfc:	f04f 0a00 	mov.w	sl, #0
   83c00:	e5a6      	b.n	83750 <_dtoa_r+0x154>
   83c02:	f8dd 9014 	ldr.w	r9, [sp, #20]
   83c06:	4648      	mov	r0, r9
   83c08:	f002 fed0 	bl	869ac <__aeabi_i2d>
   83c0c:	4632      	mov	r2, r6
   83c0e:	463b      	mov	r3, r7
   83c10:	f003 f99e 	bl	86f50 <__aeabi_dcmpeq>
   83c14:	2800      	cmp	r0, #0
   83c16:	f47f ad7f 	bne.w	83718 <_dtoa_r+0x11c>
   83c1a:	f109 33ff 	add.w	r3, r9, #4294967295	; 0xffffffff
   83c1e:	9305      	str	r3, [sp, #20]
   83c20:	e57a      	b.n	83718 <_dtoa_r+0x11c>
   83c22:	9b06      	ldr	r3, [sp, #24]
   83c24:	f8dd 802c 	ldr.w	r8, [sp, #44]	; 0x2c
   83c28:	9e09      	ldr	r6, [sp, #36]	; 0x24
   83c2a:	930a      	str	r3, [sp, #40]	; 0x28
   83c2c:	990a      	ldr	r1, [sp, #40]	; 0x28
   83c2e:	2900      	cmp	r1, #0
   83c30:	460b      	mov	r3, r1
   83c32:	dd0c      	ble.n	83c4e <_dtoa_r+0x652>
   83c34:	f1ba 0f00 	cmp.w	sl, #0
   83c38:	dd09      	ble.n	83c4e <_dtoa_r+0x652>
   83c3a:	4551      	cmp	r1, sl
   83c3c:	bfa8      	it	ge
   83c3e:	4653      	movge	r3, sl
   83c40:	9a06      	ldr	r2, [sp, #24]
   83c42:	ebaa 0a03 	sub.w	sl, sl, r3
   83c46:	1ad2      	subs	r2, r2, r3
   83c48:	9206      	str	r2, [sp, #24]
   83c4a:	1aca      	subs	r2, r1, r3
   83c4c:	920a      	str	r2, [sp, #40]	; 0x28
   83c4e:	9b0b      	ldr	r3, [sp, #44]	; 0x2c
   83c50:	b17b      	cbz	r3, 83c72 <_dtoa_r+0x676>
   83c52:	9a09      	ldr	r2, [sp, #36]	; 0x24
   83c54:	2a00      	cmp	r2, #0
   83c56:	f000 8290 	beq.w	8417a <_dtoa_r+0xb7e>
   83c5a:	eba3 0708 	sub.w	r7, r3, r8
   83c5e:	f1b8 0f00 	cmp.w	r8, #0
   83c62:	f040 819a 	bne.w	83f9a <_dtoa_r+0x99e>
   83c66:	4659      	mov	r1, fp
   83c68:	463a      	mov	r2, r7
   83c6a:	4620      	mov	r0, r4
   83c6c:	f001 face 	bl	8520c <__pow5mult>
   83c70:	4683      	mov	fp, r0
   83c72:	2101      	movs	r1, #1
   83c74:	4620      	mov	r0, r4
   83c76:	f001 fa19 	bl	850ac <__i2b>
   83c7a:	9a0c      	ldr	r2, [sp, #48]	; 0x30
   83c7c:	4607      	mov	r7, r0
   83c7e:	2a00      	cmp	r2, #0
   83c80:	f040 8125 	bne.w	83ece <_dtoa_r+0x8d2>
   83c84:	9b22      	ldr	r3, [sp, #136]	; 0x88
   83c86:	2b01      	cmp	r3, #1
   83c88:	f340 816b 	ble.w	83f62 <_dtoa_r+0x966>
   83c8c:	2001      	movs	r0, #1
   83c8e:	4450      	add	r0, sl
   83c90:	f010 001f 	ands.w	r0, r0, #31
   83c94:	f000 8119 	beq.w	83eca <_dtoa_r+0x8ce>
   83c98:	f1c0 0320 	rsb	r3, r0, #32
   83c9c:	2b04      	cmp	r3, #4
   83c9e:	f340 83b4 	ble.w	8440a <_dtoa_r+0xe0e>
   83ca2:	f1c0 001c 	rsb	r0, r0, #28
   83ca6:	9b06      	ldr	r3, [sp, #24]
   83ca8:	4482      	add	sl, r0
   83caa:	4403      	add	r3, r0
   83cac:	9306      	str	r3, [sp, #24]
   83cae:	9b0a      	ldr	r3, [sp, #40]	; 0x28
   83cb0:	4403      	add	r3, r0
   83cb2:	930a      	str	r3, [sp, #40]	; 0x28
   83cb4:	9b06      	ldr	r3, [sp, #24]
   83cb6:	2b00      	cmp	r3, #0
   83cb8:	dd05      	ble.n	83cc6 <_dtoa_r+0x6ca>
   83cba:	4659      	mov	r1, fp
   83cbc:	461a      	mov	r2, r3
   83cbe:	4620      	mov	r0, r4
   83cc0:	f001 faf4 	bl	852ac <__lshift>
   83cc4:	4683      	mov	fp, r0
   83cc6:	f1ba 0f00 	cmp.w	sl, #0
   83cca:	dd05      	ble.n	83cd8 <_dtoa_r+0x6dc>
   83ccc:	4639      	mov	r1, r7
   83cce:	4652      	mov	r2, sl
   83cd0:	4620      	mov	r0, r4
   83cd2:	f001 faeb 	bl	852ac <__lshift>
   83cd6:	4607      	mov	r7, r0
   83cd8:	9b0d      	ldr	r3, [sp, #52]	; 0x34
   83cda:	2b00      	cmp	r3, #0
   83cdc:	d177      	bne.n	83dce <_dtoa_r+0x7d2>
   83cde:	9b08      	ldr	r3, [sp, #32]
   83ce0:	2b00      	cmp	r3, #0
   83ce2:	f340 8205 	ble.w	840f0 <_dtoa_r+0xaf4>
   83ce6:	9b09      	ldr	r3, [sp, #36]	; 0x24
   83ce8:	2b00      	cmp	r3, #0
   83cea:	f000 8089 	beq.w	83e00 <_dtoa_r+0x804>
   83cee:	9b0a      	ldr	r3, [sp, #40]	; 0x28
   83cf0:	2b00      	cmp	r3, #0
   83cf2:	f300 8167 	bgt.w	83fc4 <_dtoa_r+0x9c8>
   83cf6:	9b0c      	ldr	r3, [sp, #48]	; 0x30
   83cf8:	2b00      	cmp	r3, #0
   83cfa:	f040 81ca 	bne.w	84092 <_dtoa_r+0xa96>
   83cfe:	46b2      	mov	sl, r6
   83d00:	46c8      	mov	r8, r9
   83d02:	9b02      	ldr	r3, [sp, #8]
   83d04:	9a08      	ldr	r2, [sp, #32]
   83d06:	f003 0301 	and.w	r3, r3, #1
   83d0a:	930a      	str	r3, [sp, #40]	; 0x28
   83d0c:	f109 33ff 	add.w	r3, r9, #4294967295	; 0xffffffff
   83d10:	441a      	add	r2, r3
   83d12:	9206      	str	r2, [sp, #24]
   83d14:	f8cd 902c 	str.w	r9, [sp, #44]	; 0x2c
   83d18:	4639      	mov	r1, r7
   83d1a:	4658      	mov	r0, fp
   83d1c:	f7ff fbdc 	bl	834d8 <quorem>
   83d20:	4631      	mov	r1, r6
   83d22:	4681      	mov	r9, r0
   83d24:	9009      	str	r0, [sp, #36]	; 0x24
   83d26:	4658      	mov	r0, fp
   83d28:	f001 fb1a 	bl	85360 <__mcmp>
   83d2c:	4652      	mov	r2, sl
   83d2e:	9002      	str	r0, [sp, #8]
   83d30:	4639      	mov	r1, r7
   83d32:	4620      	mov	r0, r4
   83d34:	f001 fb30 	bl	85398 <__mdiff>
   83d38:	68c2      	ldr	r2, [r0, #12]
   83d3a:	4605      	mov	r5, r0
   83d3c:	f109 0930 	add.w	r9, r9, #48	; 0x30
   83d40:	4601      	mov	r1, r0
   83d42:	2a00      	cmp	r2, #0
   83d44:	f040 81cf 	bne.w	840e6 <_dtoa_r+0xaea>
   83d48:	4658      	mov	r0, fp
   83d4a:	f001 fb09 	bl	85360 <__mcmp>
   83d4e:	4629      	mov	r1, r5
   83d50:	9008      	str	r0, [sp, #32]
   83d52:	4620      	mov	r0, r4
   83d54:	f001 f8c2 	bl	84edc <_Bfree>
   83d58:	9a08      	ldr	r2, [sp, #32]
   83d5a:	b932      	cbnz	r2, 83d6a <_dtoa_r+0x76e>
   83d5c:	9b22      	ldr	r3, [sp, #136]	; 0x88
   83d5e:	b923      	cbnz	r3, 83d6a <_dtoa_r+0x76e>
   83d60:	9b0a      	ldr	r3, [sp, #40]	; 0x28
   83d62:	2b00      	cmp	r3, #0
   83d64:	f000 8324 	beq.w	843b0 <_dtoa_r+0xdb4>
   83d68:	9a22      	ldr	r2, [sp, #136]	; 0x88
   83d6a:	9b02      	ldr	r3, [sp, #8]
   83d6c:	2b00      	cmp	r3, #0
   83d6e:	f2c0 8219 	blt.w	841a4 <_dtoa_r+0xba8>
   83d72:	d105      	bne.n	83d80 <_dtoa_r+0x784>
   83d74:	9b22      	ldr	r3, [sp, #136]	; 0x88
   83d76:	b91b      	cbnz	r3, 83d80 <_dtoa_r+0x784>
   83d78:	9b0a      	ldr	r3, [sp, #40]	; 0x28
   83d7a:	2b00      	cmp	r3, #0
   83d7c:	f000 8212 	beq.w	841a4 <_dtoa_r+0xba8>
   83d80:	2a00      	cmp	r2, #0
   83d82:	f108 0501 	add.w	r5, r8, #1
   83d86:	f300 8221 	bgt.w	841cc <_dtoa_r+0xbd0>
   83d8a:	9b06      	ldr	r3, [sp, #24]
   83d8c:	f888 9000 	strb.w	r9, [r8]
   83d90:	4543      	cmp	r3, r8
   83d92:	f000 822c 	beq.w	841ee <_dtoa_r+0xbf2>
   83d96:	4659      	mov	r1, fp
   83d98:	2300      	movs	r3, #0
   83d9a:	220a      	movs	r2, #10
   83d9c:	4620      	mov	r0, r4
   83d9e:	f001 f8a7 	bl	84ef0 <__multadd>
   83da2:	4556      	cmp	r6, sl
   83da4:	4683      	mov	fp, r0
   83da6:	4631      	mov	r1, r6
   83da8:	f04f 0300 	mov.w	r3, #0
   83dac:	f04f 020a 	mov.w	r2, #10
   83db0:	4620      	mov	r0, r4
   83db2:	f000 8192 	beq.w	840da <_dtoa_r+0xade>
   83db6:	f001 f89b 	bl	84ef0 <__multadd>
   83dba:	4651      	mov	r1, sl
   83dbc:	4606      	mov	r6, r0
   83dbe:	2300      	movs	r3, #0
   83dc0:	220a      	movs	r2, #10
   83dc2:	4620      	mov	r0, r4
   83dc4:	f001 f894 	bl	84ef0 <__multadd>
   83dc8:	46a8      	mov	r8, r5
   83dca:	4682      	mov	sl, r0
   83dcc:	e7a4      	b.n	83d18 <_dtoa_r+0x71c>
   83dce:	4639      	mov	r1, r7
   83dd0:	4658      	mov	r0, fp
   83dd2:	f001 fac5 	bl	85360 <__mcmp>
   83dd6:	2800      	cmp	r0, #0
   83dd8:	da81      	bge.n	83cde <_dtoa_r+0x6e2>
   83dda:	9d05      	ldr	r5, [sp, #20]
   83ddc:	4659      	mov	r1, fp
   83dde:	2300      	movs	r3, #0
   83de0:	220a      	movs	r2, #10
   83de2:	4620      	mov	r0, r4
   83de4:	3d01      	subs	r5, #1
   83de6:	9505      	str	r5, [sp, #20]
   83de8:	f001 f882 	bl	84ef0 <__multadd>
   83dec:	9b09      	ldr	r3, [sp, #36]	; 0x24
   83dee:	4683      	mov	fp, r0
   83df0:	2b00      	cmp	r3, #0
   83df2:	f040 82ee 	bne.w	843d2 <_dtoa_r+0xdd6>
   83df6:	9b14      	ldr	r3, [sp, #80]	; 0x50
   83df8:	2b00      	cmp	r3, #0
   83dfa:	f340 82f9 	ble.w	843f0 <_dtoa_r+0xdf4>
   83dfe:	9308      	str	r3, [sp, #32]
   83e00:	464d      	mov	r5, r9
   83e02:	f8dd 8020 	ldr.w	r8, [sp, #32]
   83e06:	e008      	b.n	83e1a <_dtoa_r+0x81e>
   83e08:	40240000 	.word	0x40240000
   83e0c:	4659      	mov	r1, fp
   83e0e:	2300      	movs	r3, #0
   83e10:	220a      	movs	r2, #10
   83e12:	4620      	mov	r0, r4
   83e14:	f001 f86c 	bl	84ef0 <__multadd>
   83e18:	4683      	mov	fp, r0
   83e1a:	4639      	mov	r1, r7
   83e1c:	4658      	mov	r0, fp
   83e1e:	f7ff fb5b 	bl	834d8 <quorem>
   83e22:	3030      	adds	r0, #48	; 0x30
   83e24:	f805 0b01 	strb.w	r0, [r5], #1
   83e28:	eba5 0209 	sub.w	r2, r5, r9
   83e2c:	4590      	cmp	r8, r2
   83e2e:	dced      	bgt.n	83e0c <_dtoa_r+0x810>
   83e30:	2200      	movs	r2, #0
   83e32:	4603      	mov	r3, r0
   83e34:	9202      	str	r2, [sp, #8]
   83e36:	4659      	mov	r1, fp
   83e38:	2201      	movs	r2, #1
   83e3a:	4620      	mov	r0, r4
   83e3c:	9308      	str	r3, [sp, #32]
   83e3e:	f001 fa35 	bl	852ac <__lshift>
   83e42:	4639      	mov	r1, r7
   83e44:	4683      	mov	fp, r0
   83e46:	f001 fa8b 	bl	85360 <__mcmp>
   83e4a:	2800      	cmp	r0, #0
   83e4c:	f815 2c01 	ldrb.w	r2, [r5, #-1]
   83e50:	9b08      	ldr	r3, [sp, #32]
   83e52:	dc11      	bgt.n	83e78 <_dtoa_r+0x87c>
   83e54:	d105      	bne.n	83e62 <_dtoa_r+0x866>
   83e56:	07db      	lsls	r3, r3, #31
   83e58:	d40e      	bmi.n	83e78 <_dtoa_r+0x87c>
   83e5a:	e002      	b.n	83e62 <_dtoa_r+0x866>
   83e5c:	f815 2c02 	ldrb.w	r2, [r5, #-2]
   83e60:	461d      	mov	r5, r3
   83e62:	2a30      	cmp	r2, #48	; 0x30
   83e64:	f105 33ff 	add.w	r3, r5, #4294967295	; 0xffffffff
   83e68:	d0f8      	beq.n	83e5c <_dtoa_r+0x860>
   83e6a:	e00b      	b.n	83e84 <_dtoa_r+0x888>
   83e6c:	4599      	cmp	r9, r3
   83e6e:	f000 814c 	beq.w	8410a <_dtoa_r+0xb0e>
   83e72:	461d      	mov	r5, r3
   83e74:	f813 2c01 	ldrb.w	r2, [r3, #-1]
   83e78:	2a39      	cmp	r2, #57	; 0x39
   83e7a:	f105 33ff 	add.w	r3, r5, #4294967295	; 0xffffffff
   83e7e:	d0f5      	beq.n	83e6c <_dtoa_r+0x870>
   83e80:	3201      	adds	r2, #1
   83e82:	701a      	strb	r2, [r3, #0]
   83e84:	4639      	mov	r1, r7
   83e86:	4620      	mov	r0, r4
   83e88:	f001 f828 	bl	84edc <_Bfree>
   83e8c:	b156      	cbz	r6, 83ea4 <_dtoa_r+0x8a8>
   83e8e:	9902      	ldr	r1, [sp, #8]
   83e90:	b121      	cbz	r1, 83e9c <_dtoa_r+0x8a0>
   83e92:	42b1      	cmp	r1, r6
   83e94:	d002      	beq.n	83e9c <_dtoa_r+0x8a0>
   83e96:	4620      	mov	r0, r4
   83e98:	f001 f820 	bl	84edc <_Bfree>
   83e9c:	4631      	mov	r1, r6
   83e9e:	4620      	mov	r0, r4
   83ea0:	f001 f81c 	bl	84edc <_Bfree>
   83ea4:	4659      	mov	r1, fp
   83ea6:	4620      	mov	r0, r4
   83ea8:	f001 f818 	bl	84edc <_Bfree>
   83eac:	2200      	movs	r2, #0
   83eae:	9b05      	ldr	r3, [sp, #20]
   83eb0:	702a      	strb	r2, [r5, #0]
   83eb2:	9a24      	ldr	r2, [sp, #144]	; 0x90
   83eb4:	3301      	adds	r3, #1
   83eb6:	6013      	str	r3, [r2, #0]
   83eb8:	9b26      	ldr	r3, [sp, #152]	; 0x98
   83eba:	2b00      	cmp	r3, #0
   83ebc:	f43f abd7 	beq.w	8366e <_dtoa_r+0x72>
   83ec0:	4648      	mov	r0, r9
   83ec2:	601d      	str	r5, [r3, #0]
   83ec4:	b019      	add	sp, #100	; 0x64
   83ec6:	e8bd 8ff0 	ldmia.w	sp!, {r4, r5, r6, r7, r8, r9, sl, fp, pc}
   83eca:	201c      	movs	r0, #28
   83ecc:	e6eb      	b.n	83ca6 <_dtoa_r+0x6aa>
   83ece:	4601      	mov	r1, r0
   83ed0:	4620      	mov	r0, r4
   83ed2:	f001 f99b 	bl	8520c <__pow5mult>
   83ed6:	9b22      	ldr	r3, [sp, #136]	; 0x88
   83ed8:	4607      	mov	r7, r0
   83eda:	2b01      	cmp	r3, #1
   83edc:	f340 80d4 	ble.w	84088 <_dtoa_r+0xa8c>
   83ee0:	2300      	movs	r3, #0
   83ee2:	930c      	str	r3, [sp, #48]	; 0x30
   83ee4:	693b      	ldr	r3, [r7, #16]
   83ee6:	eb07 0383 	add.w	r3, r7, r3, lsl #2
   83eea:	6918      	ldr	r0, [r3, #16]
   83eec:	f001 f88e 	bl	8500c <__hi0bits>
   83ef0:	f1c0 0020 	rsb	r0, r0, #32
   83ef4:	e6cb      	b.n	83c8e <_dtoa_r+0x692>
   83ef6:	900d      	str	r0, [sp, #52]	; 0x34
   83ef8:	e422      	b.n	83740 <_dtoa_r+0x144>
   83efa:	2601      	movs	r6, #1
   83efc:	e439      	b.n	83772 <_dtoa_r+0x176>
   83efe:	f1c3 0620 	rsb	r6, r3, #32
   83f02:	9b02      	ldr	r3, [sp, #8]
   83f04:	fa03 f006 	lsl.w	r0, r3, r6
   83f08:	f7ff bbd3 	b.w	836b2 <_dtoa_r+0xb6>
   83f0c:	2300      	movs	r3, #0
   83f0e:	9309      	str	r3, [sp, #36]	; 0x24
   83f10:	9b05      	ldr	r3, [sp, #20]
   83f12:	9a23      	ldr	r2, [sp, #140]	; 0x8c
   83f14:	4413      	add	r3, r2
   83f16:	9314      	str	r3, [sp, #80]	; 0x50
   83f18:	3301      	adds	r3, #1
   83f1a:	2b01      	cmp	r3, #1
   83f1c:	461f      	mov	r7, r3
   83f1e:	bfb8      	it	lt
   83f20:	2701      	movlt	r7, #1
   83f22:	9308      	str	r3, [sp, #32]
   83f24:	2100      	movs	r1, #0
   83f26:	2f17      	cmp	r7, #23
   83f28:	9d08      	ldr	r5, [sp, #32]
   83f2a:	6461      	str	r1, [r4, #68]	; 0x44
   83f2c:	f77f ac85 	ble.w	8383a <_dtoa_r+0x23e>
   83f30:	2201      	movs	r2, #1
   83f32:	2304      	movs	r3, #4
   83f34:	005b      	lsls	r3, r3, #1
   83f36:	f103 0014 	add.w	r0, r3, #20
   83f3a:	42b8      	cmp	r0, r7
   83f3c:	4611      	mov	r1, r2
   83f3e:	f102 0201 	add.w	r2, r2, #1
   83f42:	d9f7      	bls.n	83f34 <_dtoa_r+0x938>
   83f44:	6461      	str	r1, [r4, #68]	; 0x44
   83f46:	e478      	b.n	8383a <_dtoa_r+0x23e>
   83f48:	2300      	movs	r3, #0
   83f4a:	9309      	str	r3, [sp, #36]	; 0x24
   83f4c:	9b23      	ldr	r3, [sp, #140]	; 0x8c
   83f4e:	2b00      	cmp	r3, #0
   83f50:	f340 80e2 	ble.w	84118 <_dtoa_r+0xb1c>
   83f54:	9314      	str	r3, [sp, #80]	; 0x50
   83f56:	9308      	str	r3, [sp, #32]
   83f58:	461f      	mov	r7, r3
   83f5a:	e7e3      	b.n	83f24 <_dtoa_r+0x928>
   83f5c:	2301      	movs	r3, #1
   83f5e:	9309      	str	r3, [sp, #36]	; 0x24
   83f60:	e7f4      	b.n	83f4c <_dtoa_r+0x950>
   83f62:	9b02      	ldr	r3, [sp, #8]
   83f64:	2b00      	cmp	r3, #0
   83f66:	f47f ae91 	bne.w	83c8c <_dtoa_r+0x690>
   83f6a:	e9dd 1202 	ldrd	r1, r2, [sp, #8]
   83f6e:	f3c2 0313 	ubfx	r3, r2, #0, #20
   83f72:	2b00      	cmp	r3, #0
   83f74:	f040 8199 	bne.w	842aa <_dtoa_r+0xcae>
   83f78:	f022 4300 	bic.w	r3, r2, #2147483648	; 0x80000000
   83f7c:	0d1b      	lsrs	r3, r3, #20
   83f7e:	051b      	lsls	r3, r3, #20
   83f80:	b12b      	cbz	r3, 83f8e <_dtoa_r+0x992>
   83f82:	9b06      	ldr	r3, [sp, #24]
   83f84:	f10a 0a01 	add.w	sl, sl, #1
   83f88:	3301      	adds	r3, #1
   83f8a:	9306      	str	r3, [sp, #24]
   83f8c:	2301      	movs	r3, #1
   83f8e:	9a0c      	ldr	r2, [sp, #48]	; 0x30
   83f90:	930c      	str	r3, [sp, #48]	; 0x30
   83f92:	2a00      	cmp	r2, #0
   83f94:	f43f ae7a 	beq.w	83c8c <_dtoa_r+0x690>
   83f98:	e7a4      	b.n	83ee4 <_dtoa_r+0x8e8>
   83f9a:	4642      	mov	r2, r8
   83f9c:	4631      	mov	r1, r6
   83f9e:	4620      	mov	r0, r4
   83fa0:	f001 f934 	bl	8520c <__pow5mult>
   83fa4:	465a      	mov	r2, fp
   83fa6:	4601      	mov	r1, r0
   83fa8:	4606      	mov	r6, r0
   83faa:	4620      	mov	r0, r4
   83fac:	f001 f888 	bl	850c0 <__multiply>
   83fb0:	4680      	mov	r8, r0
   83fb2:	4659      	mov	r1, fp
   83fb4:	4620      	mov	r0, r4
   83fb6:	f000 ff91 	bl	84edc <_Bfree>
   83fba:	46c3      	mov	fp, r8
   83fbc:	2f00      	cmp	r7, #0
   83fbe:	f43f ae58 	beq.w	83c72 <_dtoa_r+0x676>
   83fc2:	e650      	b.n	83c66 <_dtoa_r+0x66a>
   83fc4:	4631      	mov	r1, r6
   83fc6:	461a      	mov	r2, r3
   83fc8:	4620      	mov	r0, r4
   83fca:	f001 f96f 	bl	852ac <__lshift>
   83fce:	4606      	mov	r6, r0
   83fd0:	e691      	b.n	83cf6 <_dtoa_r+0x6fa>
   83fd2:	9a0a      	ldr	r2, [sp, #40]	; 0x28
   83fd4:	2a00      	cmp	r2, #0
   83fd6:	f000 815d 	beq.w	84294 <_dtoa_r+0xc98>
   83fda:	9a06      	ldr	r2, [sp, #24]
   83fdc:	f203 4333 	addw	r3, r3, #1075	; 0x433
   83fe0:	920a      	str	r2, [sp, #40]	; 0x28
   83fe2:	441a      	add	r2, r3
   83fe4:	449a      	add	sl, r3
   83fe6:	9206      	str	r2, [sp, #24]
   83fe8:	f8dd 802c 	ldr.w	r8, [sp, #44]	; 0x2c
   83fec:	e5f1      	b.n	83bd2 <_dtoa_r+0x5d6>
   83fee:	9b08      	ldr	r3, [sp, #32]
   83ff0:	2b00      	cmp	r3, #0
   83ff2:	f73f ad3b 	bgt.w	83a6c <_dtoa_r+0x470>
   83ff6:	f040 81f8 	bne.w	843ea <_dtoa_r+0xdee>
   83ffa:	e9dd 0106 	ldrd	r0, r1, [sp, #24]
   83ffe:	2200      	movs	r2, #0
   84000:	4bb5      	ldr	r3, [pc, #724]	; (842d8 <_dtoa_r+0xcdc>)
   84002:	f002 fd3d 	bl	86a80 <__aeabi_dmul>
   84006:	e9dd 2302 	ldrd	r2, r3, [sp, #8]
   8400a:	f002 ffbf 	bl	86f8c <__aeabi_dcmpge>
   8400e:	9f08      	ldr	r7, [sp, #32]
   84010:	463e      	mov	r6, r7
   84012:	2800      	cmp	r0, #0
   84014:	d174      	bne.n	84100 <_dtoa_r+0xb04>
   84016:	2331      	movs	r3, #49	; 0x31
   84018:	9a05      	ldr	r2, [sp, #20]
   8401a:	f889 3000 	strb.w	r3, [r9]
   8401e:	3201      	adds	r2, #1
   84020:	9205      	str	r2, [sp, #20]
   84022:	f109 0501 	add.w	r5, r9, #1
   84026:	4639      	mov	r1, r7
   84028:	4620      	mov	r0, r4
   8402a:	f000 ff57 	bl	84edc <_Bfree>
   8402e:	2e00      	cmp	r6, #0
   84030:	f47f af34 	bne.w	83e9c <_dtoa_r+0x8a0>
   84034:	e736      	b.n	83ea4 <_dtoa_r+0x8a8>
   84036:	f000 8148 	beq.w	842ca <_dtoa_r+0xcce>
   8403a:	e9dd 010e 	ldrd	r0, r1, [sp, #56]	; 0x38
   8403e:	9b05      	ldr	r3, [sp, #20]
   84040:	425d      	negs	r5, r3
   84042:	4ba6      	ldr	r3, [pc, #664]	; (842dc <_dtoa_r+0xce0>)
   84044:	f005 020f 	and.w	r2, r5, #15
   84048:	eb03 03c2 	add.w	r3, r3, r2, lsl #3
   8404c:	e9d3 2300 	ldrd	r2, r3, [r3]
   84050:	f002 fd16 	bl	86a80 <__aeabi_dmul>
   84054:	112d      	asrs	r5, r5, #4
   84056:	e9cd 0102 	strd	r0, r1, [sp, #8]
   8405a:	f000 81ce 	beq.w	843fa <_dtoa_r+0xdfe>
   8405e:	2300      	movs	r3, #0
   84060:	2702      	movs	r7, #2
   84062:	4e9f      	ldr	r6, [pc, #636]	; (842e0 <_dtoa_r+0xce4>)
   84064:	07ea      	lsls	r2, r5, #31
   84066:	d505      	bpl.n	84074 <_dtoa_r+0xa78>
   84068:	e9d6 2300 	ldrd	r2, r3, [r6]
   8406c:	f002 fd08 	bl	86a80 <__aeabi_dmul>
   84070:	2301      	movs	r3, #1
   84072:	441f      	add	r7, r3
   84074:	106d      	asrs	r5, r5, #1
   84076:	f106 0608 	add.w	r6, r6, #8
   8407a:	d1f3      	bne.n	84064 <_dtoa_r+0xa68>
   8407c:	2b00      	cmp	r3, #0
   8407e:	f43f ac23 	beq.w	838c8 <_dtoa_r+0x2cc>
   84082:	e9cd 0102 	strd	r0, r1, [sp, #8]
   84086:	e41f      	b.n	838c8 <_dtoa_r+0x2cc>
   84088:	9b02      	ldr	r3, [sp, #8]
   8408a:	2b00      	cmp	r3, #0
   8408c:	f43f af6d 	beq.w	83f6a <_dtoa_r+0x96e>
   84090:	e726      	b.n	83ee0 <_dtoa_r+0x8e4>
   84092:	6871      	ldr	r1, [r6, #4]
   84094:	4620      	mov	r0, r4
   84096:	f000 fefb 	bl	84e90 <_Balloc>
   8409a:	4605      	mov	r5, r0
   8409c:	6933      	ldr	r3, [r6, #16]
   8409e:	f106 010c 	add.w	r1, r6, #12
   840a2:	3302      	adds	r3, #2
   840a4:	009a      	lsls	r2, r3, #2
   840a6:	300c      	adds	r0, #12
   840a8:	f000 fe16 	bl	84cd8 <memcpy>
   840ac:	4629      	mov	r1, r5
   840ae:	2201      	movs	r2, #1
   840b0:	4620      	mov	r0, r4
   840b2:	f001 f8fb 	bl	852ac <__lshift>
   840b6:	4682      	mov	sl, r0
   840b8:	e622      	b.n	83d00 <_dtoa_r+0x704>
   840ba:	2500      	movs	r5, #0
   840bc:	4620      	mov	r0, r4
   840be:	6465      	str	r5, [r4, #68]	; 0x44
   840c0:	4629      	mov	r1, r5
   840c2:	f000 fee5 	bl	84e90 <_Balloc>
   840c6:	f04f 33ff 	mov.w	r3, #4294967295	; 0xffffffff
   840ca:	9314      	str	r3, [sp, #80]	; 0x50
   840cc:	9308      	str	r3, [sp, #32]
   840ce:	2301      	movs	r3, #1
   840d0:	4681      	mov	r9, r0
   840d2:	9523      	str	r5, [sp, #140]	; 0x8c
   840d4:	6420      	str	r0, [r4, #64]	; 0x40
   840d6:	9309      	str	r3, [sp, #36]	; 0x24
   840d8:	e4b5      	b.n	83a46 <_dtoa_r+0x44a>
   840da:	f000 ff09 	bl	84ef0 <__multadd>
   840de:	46a8      	mov	r8, r5
   840e0:	4606      	mov	r6, r0
   840e2:	4682      	mov	sl, r0
   840e4:	e618      	b.n	83d18 <_dtoa_r+0x71c>
   840e6:	4620      	mov	r0, r4
   840e8:	f000 fef8 	bl	84edc <_Bfree>
   840ec:	2201      	movs	r2, #1
   840ee:	e63c      	b.n	83d6a <_dtoa_r+0x76e>
   840f0:	9b22      	ldr	r3, [sp, #136]	; 0x88
   840f2:	2b02      	cmp	r3, #2
   840f4:	f77f adf7 	ble.w	83ce6 <_dtoa_r+0x6ea>
   840f8:	9b08      	ldr	r3, [sp, #32]
   840fa:	2b00      	cmp	r3, #0
   840fc:	f000 80d7 	beq.w	842ae <_dtoa_r+0xcb2>
   84100:	9b23      	ldr	r3, [sp, #140]	; 0x8c
   84102:	464d      	mov	r5, r9
   84104:	43db      	mvns	r3, r3
   84106:	9305      	str	r3, [sp, #20]
   84108:	e78d      	b.n	84026 <_dtoa_r+0xa2a>
   8410a:	2331      	movs	r3, #49	; 0x31
   8410c:	9a05      	ldr	r2, [sp, #20]
   8410e:	f889 3000 	strb.w	r3, [r9]
   84112:	3201      	adds	r2, #1
   84114:	9205      	str	r2, [sp, #20]
   84116:	e6b5      	b.n	83e84 <_dtoa_r+0x888>
   84118:	2501      	movs	r5, #1
   8411a:	9523      	str	r5, [sp, #140]	; 0x8c
   8411c:	9508      	str	r5, [sp, #32]
   8411e:	f7ff bb89 	b.w	83834 <_dtoa_r+0x238>
   84122:	4638      	mov	r0, r7
   84124:	f002 fc42 	bl	869ac <__aeabi_i2d>
   84128:	e9dd 2302 	ldrd	r2, r3, [sp, #8]
   8412c:	f002 fca8 	bl	86a80 <__aeabi_dmul>
   84130:	2200      	movs	r2, #0
   84132:	4b6c      	ldr	r3, [pc, #432]	; (842e4 <_dtoa_r+0xce8>)
   84134:	f002 faee 	bl	86714 <__adddf3>
   84138:	4605      	mov	r5, r0
   8413a:	f1a1 7650 	sub.w	r6, r1, #54525952	; 0x3400000
   8413e:	e9dd 0102 	ldrd	r0, r1, [sp, #8]
   84142:	2200      	movs	r2, #0
   84144:	4b64      	ldr	r3, [pc, #400]	; (842d8 <_dtoa_r+0xcdc>)
   84146:	f002 fae3 	bl	86710 <__aeabi_dsub>
   8414a:	462a      	mov	r2, r5
   8414c:	4633      	mov	r3, r6
   8414e:	e9cd 0102 	strd	r0, r1, [sp, #8]
   84152:	f002 ff25 	bl	86fa0 <__aeabi_dcmpgt>
   84156:	4607      	mov	r7, r0
   84158:	2800      	cmp	r0, #0
   8415a:	d158      	bne.n	8420e <_dtoa_r+0xc12>
   8415c:	e9dd 0102 	ldrd	r0, r1, [sp, #8]
   84160:	462a      	mov	r2, r5
   84162:	f106 4300 	add.w	r3, r6, #2147483648	; 0x80000000
   84166:	f002 fefd 	bl	86f64 <__aeabi_dcmplt>
   8416a:	2800      	cmp	r0, #0
   8416c:	f43f ac67 	beq.w	83a3e <_dtoa_r+0x442>
   84170:	463e      	mov	r6, r7
   84172:	e7c5      	b.n	84100 <_dtoa_r+0xb04>
   84174:	2301      	movs	r3, #1
   84176:	9309      	str	r3, [sp, #36]	; 0x24
   84178:	e6ca      	b.n	83f10 <_dtoa_r+0x914>
   8417a:	4659      	mov	r1, fp
   8417c:	9a0b      	ldr	r2, [sp, #44]	; 0x2c
   8417e:	4620      	mov	r0, r4
   84180:	f001 f844 	bl	8520c <__pow5mult>
   84184:	4683      	mov	fp, r0
   84186:	e574      	b.n	83c72 <_dtoa_r+0x676>
   84188:	f8dd b008 	ldr.w	fp, [sp, #8]
   8418c:	e68a      	b.n	83ea4 <_dtoa_r+0x8a8>
   8418e:	9b0b      	ldr	r3, [sp, #44]	; 0x2c
   84190:	9a0c      	ldr	r2, [sp, #48]	; 0x30
   84192:	eba8 0303 	sub.w	r3, r8, r3
   84196:	441a      	add	r2, r3
   84198:	f8cd 802c 	str.w	r8, [sp, #44]	; 0x2c
   8419c:	920c      	str	r2, [sp, #48]	; 0x30
   8419e:	f04f 0800 	mov.w	r8, #0
   841a2:	e50d      	b.n	83bc0 <_dtoa_r+0x5c4>
   841a4:	2a00      	cmp	r2, #0
   841a6:	464b      	mov	r3, r9
   841a8:	f108 0501 	add.w	r5, r8, #1
   841ac:	f8dd 902c 	ldr.w	r9, [sp, #44]	; 0x2c
   841b0:	f300 80c5 	bgt.w	8433e <_dtoa_r+0xd42>
   841b4:	9602      	str	r6, [sp, #8]
   841b6:	f888 3000 	strb.w	r3, [r8]
   841ba:	4656      	mov	r6, sl
   841bc:	e662      	b.n	83e84 <_dtoa_r+0x888>
   841be:	e9dd 230e 	ldrd	r2, r3, [sp, #56]	; 0x38
   841c2:	2702      	movs	r7, #2
   841c4:	e9cd 2310 	strd	r2, r3, [sp, #64]	; 0x40
   841c8:	f7ff bb65 	b.w	83896 <_dtoa_r+0x29a>
   841cc:	464b      	mov	r3, r9
   841ce:	2b39      	cmp	r3, #57	; 0x39
   841d0:	f8dd 902c 	ldr.w	r9, [sp, #44]	; 0x2c
   841d4:	f000 80c5 	beq.w	84362 <_dtoa_r+0xd66>
   841d8:	3301      	adds	r3, #1
   841da:	9602      	str	r6, [sp, #8]
   841dc:	f888 3000 	strb.w	r3, [r8]
   841e0:	4656      	mov	r6, sl
   841e2:	e64f      	b.n	83e84 <_dtoa_r+0x888>
   841e4:	9b06      	ldr	r3, [sp, #24]
   841e6:	9a08      	ldr	r2, [sp, #32]
   841e8:	1a9b      	subs	r3, r3, r2
   841ea:	930a      	str	r3, [sp, #40]	; 0x28
   841ec:	e4f1      	b.n	83bd2 <_dtoa_r+0x5d6>
   841ee:	464b      	mov	r3, r9
   841f0:	9602      	str	r6, [sp, #8]
   841f2:	f8dd 902c 	ldr.w	r9, [sp, #44]	; 0x2c
   841f6:	4656      	mov	r6, sl
   841f8:	e61d      	b.n	83e36 <_dtoa_r+0x83a>
   841fa:	2330      	movs	r3, #48	; 0x30
   841fc:	f889 3000 	strb.w	r3, [r9]
   84200:	9b05      	ldr	r3, [sp, #20]
   84202:	f815 8c01 	ldrb.w	r8, [r5, #-1]
   84206:	3301      	adds	r3, #1
   84208:	9305      	str	r3, [sp, #20]
   8420a:	464b      	mov	r3, r9
   8420c:	e4c3      	b.n	83b96 <_dtoa_r+0x59a>
   8420e:	2700      	movs	r7, #0
   84210:	463e      	mov	r6, r7
   84212:	e700      	b.n	84016 <_dtoa_r+0xa1a>
   84214:	e9dd 2312 	ldrd	r2, r3, [sp, #72]	; 0x48
   84218:	e9dd 0102 	ldrd	r0, r1, [sp, #8]
   8421c:	f002 fc30 	bl	86a80 <__aeabi_dmul>
   84220:	9b10      	ldr	r3, [sp, #64]	; 0x40
   84222:	e9cd 0102 	strd	r0, r1, [sp, #8]
   84226:	2b01      	cmp	r3, #1
   84228:	f889 8000 	strb.w	r8, [r9]
   8422c:	d021      	beq.n	84272 <_dtoa_r+0xc76>
   8422e:	9b10      	ldr	r3, [sp, #64]	; 0x40
   84230:	f8cd a040 	str.w	sl, [sp, #64]	; 0x40
   84234:	444b      	add	r3, r9
   84236:	469a      	mov	sl, r3
   84238:	2200      	movs	r2, #0
   8423a:	4b2b      	ldr	r3, [pc, #172]	; (842e8 <_dtoa_r+0xcec>)
   8423c:	4630      	mov	r0, r6
   8423e:	4639      	mov	r1, r7
   84240:	f002 fc1e 	bl	86a80 <__aeabi_dmul>
   84244:	460f      	mov	r7, r1
   84246:	4606      	mov	r6, r0
   84248:	f002 feca 	bl	86fe0 <__aeabi_d2iz>
   8424c:	4680      	mov	r8, r0
   8424e:	f002 fbad 	bl	869ac <__aeabi_i2d>
   84252:	4602      	mov	r2, r0
   84254:	460b      	mov	r3, r1
   84256:	4630      	mov	r0, r6
   84258:	4639      	mov	r1, r7
   8425a:	f002 fa59 	bl	86710 <__aeabi_dsub>
   8425e:	f108 0830 	add.w	r8, r8, #48	; 0x30
   84262:	f805 8b01 	strb.w	r8, [r5], #1
   84266:	4555      	cmp	r5, sl
   84268:	4606      	mov	r6, r0
   8426a:	460f      	mov	r7, r1
   8426c:	d1e4      	bne.n	84238 <_dtoa_r+0xc3c>
   8426e:	f8dd a040 	ldr.w	sl, [sp, #64]	; 0x40
   84272:	2200      	movs	r2, #0
   84274:	e9dd 0102 	ldrd	r0, r1, [sp, #8]
   84278:	4b1c      	ldr	r3, [pc, #112]	; (842ec <_dtoa_r+0xcf0>)
   8427a:	f002 fa4b 	bl	86714 <__adddf3>
   8427e:	4632      	mov	r2, r6
   84280:	463b      	mov	r3, r7
   84282:	f002 fe6f 	bl	86f64 <__aeabi_dcmplt>
   84286:	2800      	cmp	r0, #0
   84288:	d071      	beq.n	8436e <_dtoa_r+0xd72>
   8428a:	9b15      	ldr	r3, [sp, #84]	; 0x54
   8428c:	9305      	str	r3, [sp, #20]
   8428e:	f815 8c01 	ldrb.w	r8, [r5, #-1]
   84292:	e47b      	b.n	83b8c <_dtoa_r+0x590>
   84294:	9b16      	ldr	r3, [sp, #88]	; 0x58
   84296:	9a06      	ldr	r2, [sp, #24]
   84298:	f1c3 0336 	rsb	r3, r3, #54	; 0x36
   8429c:	920a      	str	r2, [sp, #40]	; 0x28
   8429e:	441a      	add	r2, r3
   842a0:	449a      	add	sl, r3
   842a2:	9206      	str	r2, [sp, #24]
   842a4:	f8dd 802c 	ldr.w	r8, [sp, #44]	; 0x2c
   842a8:	e493      	b.n	83bd2 <_dtoa_r+0x5d6>
   842aa:	2300      	movs	r3, #0
   842ac:	e66f      	b.n	83f8e <_dtoa_r+0x992>
   842ae:	4639      	mov	r1, r7
   842b0:	2205      	movs	r2, #5
   842b2:	4620      	mov	r0, r4
   842b4:	f000 fe1c 	bl	84ef0 <__multadd>
   842b8:	4601      	mov	r1, r0
   842ba:	4607      	mov	r7, r0
   842bc:	4658      	mov	r0, fp
   842be:	f001 f84f 	bl	85360 <__mcmp>
   842c2:	2800      	cmp	r0, #0
   842c4:	f73f aea7 	bgt.w	84016 <_dtoa_r+0xa1a>
   842c8:	e71a      	b.n	84100 <_dtoa_r+0xb04>
   842ca:	e9dd 230e 	ldrd	r2, r3, [sp, #56]	; 0x38
   842ce:	2702      	movs	r7, #2
   842d0:	e9cd 2302 	strd	r2, r3, [sp, #8]
   842d4:	f7ff baf8 	b.w	838c8 <_dtoa_r+0x2cc>
   842d8:	40140000 	.word	0x40140000
   842dc:	000870e0 	.word	0x000870e0
   842e0:	000871d0 	.word	0x000871d0
   842e4:	401c0000 	.word	0x401c0000
   842e8:	40240000 	.word	0x40240000
   842ec:	3fe00000 	.word	0x3fe00000
   842f0:	9b08      	ldr	r3, [sp, #32]
   842f2:	2b00      	cmp	r3, #0
   842f4:	f43f af15 	beq.w	84122 <_dtoa_r+0xb26>
   842f8:	9b14      	ldr	r3, [sp, #80]	; 0x50
   842fa:	2b00      	cmp	r3, #0
   842fc:	f77f ab9f 	ble.w	83a3e <_dtoa_r+0x442>
   84300:	e9dd 0102 	ldrd	r0, r1, [sp, #8]
   84304:	2200      	movs	r2, #0
   84306:	4b45      	ldr	r3, [pc, #276]	; (8441c <_dtoa_r+0xe20>)
   84308:	f002 fbba 	bl	86a80 <__aeabi_dmul>
   8430c:	4605      	mov	r5, r0
   8430e:	460e      	mov	r6, r1
   84310:	1c78      	adds	r0, r7, #1
   84312:	e9cd 5602 	strd	r5, r6, [sp, #8]
   84316:	f002 fb49 	bl	869ac <__aeabi_i2d>
   8431a:	462a      	mov	r2, r5
   8431c:	4633      	mov	r3, r6
   8431e:	f002 fbaf 	bl	86a80 <__aeabi_dmul>
   84322:	2200      	movs	r2, #0
   84324:	4b3e      	ldr	r3, [pc, #248]	; (84420 <_dtoa_r+0xe24>)
   84326:	f002 f9f5 	bl	86714 <__adddf3>
   8432a:	9a05      	ldr	r2, [sp, #20]
   8432c:	9b14      	ldr	r3, [sp, #80]	; 0x50
   8432e:	3a01      	subs	r2, #1
   84330:	4605      	mov	r5, r0
   84332:	9215      	str	r2, [sp, #84]	; 0x54
   84334:	f1a1 7650 	sub.w	r6, r1, #54525952	; 0x3400000
   84338:	9310      	str	r3, [sp, #64]	; 0x40
   8433a:	f7ff bae6 	b.w	8390a <_dtoa_r+0x30e>
   8433e:	4659      	mov	r1, fp
   84340:	2201      	movs	r2, #1
   84342:	4620      	mov	r0, r4
   84344:	9302      	str	r3, [sp, #8]
   84346:	f000 ffb1 	bl	852ac <__lshift>
   8434a:	4639      	mov	r1, r7
   8434c:	4683      	mov	fp, r0
   8434e:	f001 f807 	bl	85360 <__mcmp>
   84352:	2800      	cmp	r0, #0
   84354:	9b02      	ldr	r3, [sp, #8]
   84356:	dd36      	ble.n	843c6 <_dtoa_r+0xdca>
   84358:	2b39      	cmp	r3, #57	; 0x39
   8435a:	d002      	beq.n	84362 <_dtoa_r+0xd66>
   8435c:	9b09      	ldr	r3, [sp, #36]	; 0x24
   8435e:	3331      	adds	r3, #49	; 0x31
   84360:	e728      	b.n	841b4 <_dtoa_r+0xbb8>
   84362:	2239      	movs	r2, #57	; 0x39
   84364:	9602      	str	r6, [sp, #8]
   84366:	f888 2000 	strb.w	r2, [r8]
   8436a:	4656      	mov	r6, sl
   8436c:	e584      	b.n	83e78 <_dtoa_r+0x87c>
   8436e:	e9dd 2302 	ldrd	r2, r3, [sp, #8]
   84372:	2000      	movs	r0, #0
   84374:	492b      	ldr	r1, [pc, #172]	; (84424 <_dtoa_r+0xe28>)
   84376:	f002 f9cb 	bl	86710 <__aeabi_dsub>
   8437a:	4632      	mov	r2, r6
   8437c:	463b      	mov	r3, r7
   8437e:	f002 fe0f 	bl	86fa0 <__aeabi_dcmpgt>
   84382:	b910      	cbnz	r0, 8438a <_dtoa_r+0xd8e>
   84384:	f7ff bb5b 	b.w	83a3e <_dtoa_r+0x442>
   84388:	4615      	mov	r5, r2
   8438a:	f815 3c01 	ldrb.w	r3, [r5, #-1]
   8438e:	1e6a      	subs	r2, r5, #1
   84390:	2b30      	cmp	r3, #48	; 0x30
   84392:	d0f9      	beq.n	84388 <_dtoa_r+0xd8c>
   84394:	9b15      	ldr	r3, [sp, #84]	; 0x54
   84396:	9305      	str	r3, [sp, #20]
   84398:	e584      	b.n	83ea4 <_dtoa_r+0x8a8>
   8439a:	4643      	mov	r3, r8
   8439c:	46a0      	mov	r8, r4
   8439e:	461c      	mov	r4, r3
   843a0:	f8dd b040 	ldr.w	fp, [sp, #64]	; 0x40
   843a4:	f8dd 9008 	ldr.w	r9, [sp, #8]
   843a8:	9b15      	ldr	r3, [sp, #84]	; 0x54
   843aa:	9305      	str	r3, [sp, #20]
   843ac:	f7ff bbee 	b.w	83b8c <_dtoa_r+0x590>
   843b0:	464b      	mov	r3, r9
   843b2:	2b39      	cmp	r3, #57	; 0x39
   843b4:	f8dd 902c 	ldr.w	r9, [sp, #44]	; 0x2c
   843b8:	f108 0501 	add.w	r5, r8, #1
   843bc:	d0d1      	beq.n	84362 <_dtoa_r+0xd66>
   843be:	9a02      	ldr	r2, [sp, #8]
   843c0:	2a00      	cmp	r2, #0
   843c2:	dccb      	bgt.n	8435c <_dtoa_r+0xd60>
   843c4:	e6f6      	b.n	841b4 <_dtoa_r+0xbb8>
   843c6:	f47f aef5 	bne.w	841b4 <_dtoa_r+0xbb8>
   843ca:	07da      	lsls	r2, r3, #31
   843cc:	f57f aef2 	bpl.w	841b4 <_dtoa_r+0xbb8>
   843d0:	e7c2      	b.n	84358 <_dtoa_r+0xd5c>
   843d2:	4631      	mov	r1, r6
   843d4:	2300      	movs	r3, #0
   843d6:	220a      	movs	r2, #10
   843d8:	4620      	mov	r0, r4
   843da:	f000 fd89 	bl	84ef0 <__multadd>
   843de:	9b14      	ldr	r3, [sp, #80]	; 0x50
   843e0:	4606      	mov	r6, r0
   843e2:	2b00      	cmp	r3, #0
   843e4:	dd0c      	ble.n	84400 <_dtoa_r+0xe04>
   843e6:	9308      	str	r3, [sp, #32]
   843e8:	e481      	b.n	83cee <_dtoa_r+0x6f2>
   843ea:	2700      	movs	r7, #0
   843ec:	463e      	mov	r6, r7
   843ee:	e687      	b.n	84100 <_dtoa_r+0xb04>
   843f0:	9b22      	ldr	r3, [sp, #136]	; 0x88
   843f2:	2b02      	cmp	r3, #2
   843f4:	dc0e      	bgt.n	84414 <_dtoa_r+0xe18>
   843f6:	9b14      	ldr	r3, [sp, #80]	; 0x50
   843f8:	e501      	b.n	83dfe <_dtoa_r+0x802>
   843fa:	2702      	movs	r7, #2
   843fc:	f7ff ba64 	b.w	838c8 <_dtoa_r+0x2cc>
   84400:	9b22      	ldr	r3, [sp, #136]	; 0x88
   84402:	2b02      	cmp	r3, #2
   84404:	dc06      	bgt.n	84414 <_dtoa_r+0xe18>
   84406:	9b14      	ldr	r3, [sp, #80]	; 0x50
   84408:	e7ed      	b.n	843e6 <_dtoa_r+0xdea>
   8440a:	f43f ac53 	beq.w	83cb4 <_dtoa_r+0x6b8>
   8440e:	f1c0 003c 	rsb	r0, r0, #60	; 0x3c
   84412:	e448      	b.n	83ca6 <_dtoa_r+0x6aa>
   84414:	9b14      	ldr	r3, [sp, #80]	; 0x50
   84416:	9308      	str	r3, [sp, #32]
   84418:	e66e      	b.n	840f8 <_dtoa_r+0xafc>
   8441a:	bf00      	nop
   8441c:	40240000 	.word	0x40240000
   84420:	401c0000 	.word	0x401c0000
   84424:	3fe00000 	.word	0x3fe00000

00084428 <_malloc_trim_r>:
   84428:	b5f8      	push	{r3, r4, r5, r6, r7, lr}
   8442a:	460c      	mov	r4, r1
   8442c:	4f23      	ldr	r7, [pc, #140]	; (844bc <_malloc_trim_r+0x94>)
   8442e:	4606      	mov	r6, r0
   84430:	f000 fd2a 	bl	84e88 <__malloc_lock>
   84434:	68bb      	ldr	r3, [r7, #8]
   84436:	f5c4 617e 	rsb	r1, r4, #4064	; 0xfe0
   8443a:	685d      	ldr	r5, [r3, #4]
   8443c:	310f      	adds	r1, #15
   8443e:	f025 0503 	bic.w	r5, r5, #3
   84442:	4429      	add	r1, r5
   84444:	f421 617f 	bic.w	r1, r1, #4080	; 0xff0
   84448:	f021 010f 	bic.w	r1, r1, #15
   8444c:	f5a1 5480 	sub.w	r4, r1, #4096	; 0x1000
   84450:	f5b4 5f80 	cmp.w	r4, #4096	; 0x1000
   84454:	db07      	blt.n	84466 <_malloc_trim_r+0x3e>
   84456:	2100      	movs	r1, #0
   84458:	4630      	mov	r0, r6
   8445a:	f001 fb47 	bl	85aec <_sbrk_r>
   8445e:	68bb      	ldr	r3, [r7, #8]
   84460:	442b      	add	r3, r5
   84462:	4298      	cmp	r0, r3
   84464:	d004      	beq.n	84470 <_malloc_trim_r+0x48>
   84466:	4630      	mov	r0, r6
   84468:	f000 fd10 	bl	84e8c <__malloc_unlock>
   8446c:	2000      	movs	r0, #0
   8446e:	bdf8      	pop	{r3, r4, r5, r6, r7, pc}
   84470:	4261      	negs	r1, r4
   84472:	4630      	mov	r0, r6
   84474:	f001 fb3a 	bl	85aec <_sbrk_r>
   84478:	3001      	adds	r0, #1
   8447a:	d00d      	beq.n	84498 <_malloc_trim_r+0x70>
   8447c:	4b10      	ldr	r3, [pc, #64]	; (844c0 <_malloc_trim_r+0x98>)
   8447e:	68ba      	ldr	r2, [r7, #8]
   84480:	6819      	ldr	r1, [r3, #0]
   84482:	1b2d      	subs	r5, r5, r4
   84484:	f045 0501 	orr.w	r5, r5, #1
   84488:	4630      	mov	r0, r6
   8448a:	1b09      	subs	r1, r1, r4
   8448c:	6055      	str	r5, [r2, #4]
   8448e:	6019      	str	r1, [r3, #0]
   84490:	f000 fcfc 	bl	84e8c <__malloc_unlock>
   84494:	2001      	movs	r0, #1
   84496:	bdf8      	pop	{r3, r4, r5, r6, r7, pc}
   84498:	2100      	movs	r1, #0
   8449a:	4630      	mov	r0, r6
   8449c:	f001 fb26 	bl	85aec <_sbrk_r>
   844a0:	68ba      	ldr	r2, [r7, #8]
   844a2:	1a83      	subs	r3, r0, r2
   844a4:	2b0f      	cmp	r3, #15
   844a6:	ddde      	ble.n	84466 <_malloc_trim_r+0x3e>
   844a8:	4906      	ldr	r1, [pc, #24]	; (844c4 <_malloc_trim_r+0x9c>)
   844aa:	f043 0301 	orr.w	r3, r3, #1
   844ae:	680c      	ldr	r4, [r1, #0]
   844b0:	4903      	ldr	r1, [pc, #12]	; (844c0 <_malloc_trim_r+0x98>)
   844b2:	1b00      	subs	r0, r0, r4
   844b4:	6053      	str	r3, [r2, #4]
   844b6:	6008      	str	r0, [r1, #0]
   844b8:	e7d5      	b.n	84466 <_malloc_trim_r+0x3e>
   844ba:	bf00      	nop
   844bc:	20070764 	.word	0x20070764
   844c0:	20070ba4 	.word	0x20070ba4
   844c4:	20070b6c 	.word	0x20070b6c

000844c8 <_free_r>:
   844c8:	2900      	cmp	r1, #0
   844ca:	d053      	beq.n	84574 <_free_r+0xac>
   844cc:	b5f8      	push	{r3, r4, r5, r6, r7, lr}
   844ce:	460d      	mov	r5, r1
   844d0:	4606      	mov	r6, r0
   844d2:	f000 fcd9 	bl	84e88 <__malloc_lock>
   844d6:	f855 cc04 	ldr.w	ip, [r5, #-4]
   844da:	4f71      	ldr	r7, [pc, #452]	; (846a0 <_free_r+0x1d8>)
   844dc:	f1a5 0108 	sub.w	r1, r5, #8
   844e0:	f02c 0301 	bic.w	r3, ip, #1
   844e4:	18ca      	adds	r2, r1, r3
   844e6:	68b8      	ldr	r0, [r7, #8]
   844e8:	6854      	ldr	r4, [r2, #4]
   844ea:	4290      	cmp	r0, r2
   844ec:	f024 0403 	bic.w	r4, r4, #3
   844f0:	d053      	beq.n	8459a <_free_r+0xd2>
   844f2:	f01c 0f01 	tst.w	ip, #1
   844f6:	6054      	str	r4, [r2, #4]
   844f8:	eb02 0004 	add.w	r0, r2, r4
   844fc:	d13b      	bne.n	84576 <_free_r+0xae>
   844fe:	f855 cc08 	ldr.w	ip, [r5, #-8]
   84502:	6840      	ldr	r0, [r0, #4]
   84504:	eba1 010c 	sub.w	r1, r1, ip
   84508:	688d      	ldr	r5, [r1, #8]
   8450a:	f107 0e08 	add.w	lr, r7, #8
   8450e:	4575      	cmp	r5, lr
   84510:	4463      	add	r3, ip
   84512:	f000 0001 	and.w	r0, r0, #1
   84516:	d075      	beq.n	84604 <_free_r+0x13c>
   84518:	f8d1 c00c 	ldr.w	ip, [r1, #12]
   8451c:	f8c5 c00c 	str.w	ip, [r5, #12]
   84520:	f8cc 5008 	str.w	r5, [ip, #8]
   84524:	b360      	cbz	r0, 84580 <_free_r+0xb8>
   84526:	f043 0201 	orr.w	r2, r3, #1
   8452a:	604a      	str	r2, [r1, #4]
   8452c:	50cb      	str	r3, [r1, r3]
   8452e:	f5b3 7f00 	cmp.w	r3, #512	; 0x200
   84532:	d350      	bcc.n	845d6 <_free_r+0x10e>
   84534:	0a5a      	lsrs	r2, r3, #9
   84536:	2a04      	cmp	r2, #4
   84538:	d870      	bhi.n	8461c <_free_r+0x154>
   8453a:	099a      	lsrs	r2, r3, #6
   8453c:	f102 0539 	add.w	r5, r2, #57	; 0x39
   84540:	00ed      	lsls	r5, r5, #3
   84542:	f102 0038 	add.w	r0, r2, #56	; 0x38
   84546:	197c      	adds	r4, r7, r5
   84548:	597a      	ldr	r2, [r7, r5]
   8454a:	3c08      	subs	r4, #8
   8454c:	4294      	cmp	r4, r2
   8454e:	d078      	beq.n	84642 <_free_r+0x17a>
   84550:	6850      	ldr	r0, [r2, #4]
   84552:	f020 0003 	bic.w	r0, r0, #3
   84556:	4298      	cmp	r0, r3
   84558:	d971      	bls.n	8463e <_free_r+0x176>
   8455a:	6892      	ldr	r2, [r2, #8]
   8455c:	4294      	cmp	r4, r2
   8455e:	d1f7      	bne.n	84550 <_free_r+0x88>
   84560:	68e3      	ldr	r3, [r4, #12]
   84562:	e9c1 4302 	strd	r4, r3, [r1, #8]
   84566:	4630      	mov	r0, r6
   84568:	6099      	str	r1, [r3, #8]
   8456a:	60e1      	str	r1, [r4, #12]
   8456c:	e8bd 40f8 	ldmia.w	sp!, {r3, r4, r5, r6, r7, lr}
   84570:	f000 bc8c 	b.w	84e8c <__malloc_unlock>
   84574:	4770      	bx	lr
   84576:	6840      	ldr	r0, [r0, #4]
   84578:	f000 0001 	and.w	r0, r0, #1
   8457c:	2800      	cmp	r0, #0
   8457e:	d1d2      	bne.n	84526 <_free_r+0x5e>
   84580:	6890      	ldr	r0, [r2, #8]
   84582:	4d48      	ldr	r5, [pc, #288]	; (846a4 <_free_r+0x1dc>)
   84584:	4423      	add	r3, r4
   84586:	42a8      	cmp	r0, r5
   84588:	f043 0401 	orr.w	r4, r3, #1
   8458c:	d062      	beq.n	84654 <_free_r+0x18c>
   8458e:	68d2      	ldr	r2, [r2, #12]
   84590:	60c2      	str	r2, [r0, #12]
   84592:	6090      	str	r0, [r2, #8]
   84594:	604c      	str	r4, [r1, #4]
   84596:	50cb      	str	r3, [r1, r3]
   84598:	e7c9      	b.n	8452e <_free_r+0x66>
   8459a:	f01c 0f01 	tst.w	ip, #1
   8459e:	4423      	add	r3, r4
   845a0:	d107      	bne.n	845b2 <_free_r+0xea>
   845a2:	f855 4c08 	ldr.w	r4, [r5, #-8]
   845a6:	1b09      	subs	r1, r1, r4
   845a8:	e9d1 0202 	ldrd	r0, r2, [r1, #8]
   845ac:	4423      	add	r3, r4
   845ae:	60c2      	str	r2, [r0, #12]
   845b0:	6090      	str	r0, [r2, #8]
   845b2:	4a3d      	ldr	r2, [pc, #244]	; (846a8 <_free_r+0x1e0>)
   845b4:	f043 0001 	orr.w	r0, r3, #1
   845b8:	6812      	ldr	r2, [r2, #0]
   845ba:	6048      	str	r0, [r1, #4]
   845bc:	429a      	cmp	r2, r3
   845be:	60b9      	str	r1, [r7, #8]
   845c0:	d804      	bhi.n	845cc <_free_r+0x104>
   845c2:	4b3a      	ldr	r3, [pc, #232]	; (846ac <_free_r+0x1e4>)
   845c4:	4630      	mov	r0, r6
   845c6:	6819      	ldr	r1, [r3, #0]
   845c8:	f7ff ff2e 	bl	84428 <_malloc_trim_r>
   845cc:	4630      	mov	r0, r6
   845ce:	e8bd 40f8 	ldmia.w	sp!, {r3, r4, r5, r6, r7, lr}
   845d2:	f000 bc5b 	b.w	84e8c <__malloc_unlock>
   845d6:	2201      	movs	r2, #1
   845d8:	08db      	lsrs	r3, r3, #3
   845da:	687c      	ldr	r4, [r7, #4]
   845dc:	1098      	asrs	r0, r3, #2
   845de:	4413      	add	r3, r2
   845e0:	4082      	lsls	r2, r0
   845e2:	4322      	orrs	r2, r4
   845e4:	eb07 00c3 	add.w	r0, r7, r3, lsl #3
   845e8:	f857 4033 	ldr.w	r4, [r7, r3, lsl #3]
   845ec:	3808      	subs	r0, #8
   845ee:	e9c1 4002 	strd	r4, r0, [r1, #8]
   845f2:	607a      	str	r2, [r7, #4]
   845f4:	4630      	mov	r0, r6
   845f6:	f847 1033 	str.w	r1, [r7, r3, lsl #3]
   845fa:	60e1      	str	r1, [r4, #12]
   845fc:	e8bd 40f8 	ldmia.w	sp!, {r3, r4, r5, r6, r7, lr}
   84600:	f000 bc44 	b.w	84e8c <__malloc_unlock>
   84604:	2800      	cmp	r0, #0
   84606:	d145      	bne.n	84694 <_free_r+0x1cc>
   84608:	e9d2 0202 	ldrd	r0, r2, [r2, #8]
   8460c:	4423      	add	r3, r4
   8460e:	f043 0401 	orr.w	r4, r3, #1
   84612:	60c2      	str	r2, [r0, #12]
   84614:	6090      	str	r0, [r2, #8]
   84616:	604c      	str	r4, [r1, #4]
   84618:	50cb      	str	r3, [r1, r3]
   8461a:	e7d7      	b.n	845cc <_free_r+0x104>
   8461c:	2a14      	cmp	r2, #20
   8461e:	d908      	bls.n	84632 <_free_r+0x16a>
   84620:	2a54      	cmp	r2, #84	; 0x54
   84622:	d81e      	bhi.n	84662 <_free_r+0x19a>
   84624:	0b1a      	lsrs	r2, r3, #12
   84626:	f102 056f 	add.w	r5, r2, #111	; 0x6f
   8462a:	00ed      	lsls	r5, r5, #3
   8462c:	f102 006e 	add.w	r0, r2, #110	; 0x6e
   84630:	e789      	b.n	84546 <_free_r+0x7e>
   84632:	f102 055c 	add.w	r5, r2, #92	; 0x5c
   84636:	00ed      	lsls	r5, r5, #3
   84638:	f102 005b 	add.w	r0, r2, #91	; 0x5b
   8463c:	e783      	b.n	84546 <_free_r+0x7e>
   8463e:	4614      	mov	r4, r2
   84640:	e78e      	b.n	84560 <_free_r+0x98>
   84642:	2301      	movs	r3, #1
   84644:	1082      	asrs	r2, r0, #2
   84646:	6878      	ldr	r0, [r7, #4]
   84648:	fa03 f202 	lsl.w	r2, r3, r2
   8464c:	4302      	orrs	r2, r0
   8464e:	607a      	str	r2, [r7, #4]
   84650:	4623      	mov	r3, r4
   84652:	e786      	b.n	84562 <_free_r+0x9a>
   84654:	e9c7 1104 	strd	r1, r1, [r7, #16]
   84658:	e9c1 0002 	strd	r0, r0, [r1, #8]
   8465c:	604c      	str	r4, [r1, #4]
   8465e:	50cb      	str	r3, [r1, r3]
   84660:	e7b4      	b.n	845cc <_free_r+0x104>
   84662:	f5b2 7faa 	cmp.w	r2, #340	; 0x154
   84666:	d806      	bhi.n	84676 <_free_r+0x1ae>
   84668:	0bda      	lsrs	r2, r3, #15
   8466a:	f102 0578 	add.w	r5, r2, #120	; 0x78
   8466e:	00ed      	lsls	r5, r5, #3
   84670:	f102 0077 	add.w	r0, r2, #119	; 0x77
   84674:	e767      	b.n	84546 <_free_r+0x7e>
   84676:	f240 5054 	movw	r0, #1364	; 0x554
   8467a:	4282      	cmp	r2, r0
   8467c:	d806      	bhi.n	8468c <_free_r+0x1c4>
   8467e:	0c9a      	lsrs	r2, r3, #18
   84680:	f102 057d 	add.w	r5, r2, #125	; 0x7d
   84684:	00ed      	lsls	r5, r5, #3
   84686:	f102 007c 	add.w	r0, r2, #124	; 0x7c
   8468a:	e75c      	b.n	84546 <_free_r+0x7e>
   8468c:	f44f 757e 	mov.w	r5, #1016	; 0x3f8
   84690:	207e      	movs	r0, #126	; 0x7e
   84692:	e758      	b.n	84546 <_free_r+0x7e>
   84694:	f043 0001 	orr.w	r0, r3, #1
   84698:	6048      	str	r0, [r1, #4]
   8469a:	6013      	str	r3, [r2, #0]
   8469c:	e796      	b.n	845cc <_free_r+0x104>
   8469e:	bf00      	nop
   846a0:	20070764 	.word	0x20070764
   846a4:	2007076c 	.word	0x2007076c
   846a8:	20070b70 	.word	0x20070b70
   846ac:	20070ba0 	.word	0x20070ba0

000846b0 <__localeconv_l>:
   846b0:	30f0      	adds	r0, #240	; 0xf0
   846b2:	4770      	bx	lr

000846b4 <_localeconv_r>:
   846b4:	4800      	ldr	r0, [pc, #0]	; (846b8 <_localeconv_r+0x4>)
   846b6:	4770      	bx	lr
   846b8:	200706e8 	.word	0x200706e8

000846bc <localeconv>:
   846bc:	4800      	ldr	r0, [pc, #0]	; (846c0 <localeconv+0x4>)
   846be:	4770      	bx	lr
   846c0:	200706e8 	.word	0x200706e8

000846c4 <_malloc_r>:
   846c4:	e92d 4ff0 	stmdb	sp!, {r4, r5, r6, r7, r8, r9, sl, fp, lr}
   846c8:	f101 050b 	add.w	r5, r1, #11
   846cc:	2d16      	cmp	r5, #22
   846ce:	b083      	sub	sp, #12
   846d0:	4606      	mov	r6, r0
   846d2:	d823      	bhi.n	8471c <_malloc_r+0x58>
   846d4:	2910      	cmp	r1, #16
   846d6:	f200 80b6 	bhi.w	84846 <_malloc_r+0x182>
   846da:	f000 fbd5 	bl	84e88 <__malloc_lock>
   846de:	2510      	movs	r5, #16
   846e0:	2318      	movs	r3, #24
   846e2:	2002      	movs	r0, #2
   846e4:	4fd1      	ldr	r7, [pc, #836]	; (84a2c <_malloc_r+0x368>)
   846e6:	443b      	add	r3, r7
   846e8:	685c      	ldr	r4, [r3, #4]
   846ea:	f1a3 0208 	sub.w	r2, r3, #8
   846ee:	4294      	cmp	r4, r2
   846f0:	f000 815f 	beq.w	849b2 <_malloc_r+0x2ee>
   846f4:	6863      	ldr	r3, [r4, #4]
   846f6:	68e1      	ldr	r1, [r4, #12]
   846f8:	f023 0303 	bic.w	r3, r3, #3
   846fc:	4423      	add	r3, r4
   846fe:	685a      	ldr	r2, [r3, #4]
   84700:	68a5      	ldr	r5, [r4, #8]
   84702:	f042 0201 	orr.w	r2, r2, #1
   84706:	60e9      	str	r1, [r5, #12]
   84708:	4630      	mov	r0, r6
   8470a:	608d      	str	r5, [r1, #8]
   8470c:	605a      	str	r2, [r3, #4]
   8470e:	f000 fbbd 	bl	84e8c <__malloc_unlock>
   84712:	3408      	adds	r4, #8
   84714:	4620      	mov	r0, r4
   84716:	b003      	add	sp, #12
   84718:	e8bd 8ff0 	ldmia.w	sp!, {r4, r5, r6, r7, r8, r9, sl, fp, pc}
   8471c:	f035 0507 	bics.w	r5, r5, #7
   84720:	f100 8091 	bmi.w	84846 <_malloc_r+0x182>
   84724:	42a9      	cmp	r1, r5
   84726:	f200 808e 	bhi.w	84846 <_malloc_r+0x182>
   8472a:	f000 fbad 	bl	84e88 <__malloc_lock>
   8472e:	f5b5 7ffc 	cmp.w	r5, #504	; 0x1f8
   84732:	f0c0 816d 	bcc.w	84a10 <_malloc_r+0x34c>
   84736:	0a6b      	lsrs	r3, r5, #9
   84738:	f000 808c 	beq.w	84854 <_malloc_r+0x190>
   8473c:	2b04      	cmp	r3, #4
   8473e:	f200 813f 	bhi.w	849c0 <_malloc_r+0x2fc>
   84742:	09ab      	lsrs	r3, r5, #6
   84744:	f103 0039 	add.w	r0, r3, #57	; 0x39
   84748:	f103 0c38 	add.w	ip, r3, #56	; 0x38
   8474c:	00c1      	lsls	r1, r0, #3
   8474e:	4fb7      	ldr	r7, [pc, #732]	; (84a2c <_malloc_r+0x368>)
   84750:	4439      	add	r1, r7
   84752:	684c      	ldr	r4, [r1, #4]
   84754:	3908      	subs	r1, #8
   84756:	42a1      	cmp	r1, r4
   84758:	d106      	bne.n	84768 <_malloc_r+0xa4>
   8475a:	e00c      	b.n	84776 <_malloc_r+0xb2>
   8475c:	2a00      	cmp	r2, #0
   8475e:	f280 8124 	bge.w	849aa <_malloc_r+0x2e6>
   84762:	68e4      	ldr	r4, [r4, #12]
   84764:	42a1      	cmp	r1, r4
   84766:	d006      	beq.n	84776 <_malloc_r+0xb2>
   84768:	6863      	ldr	r3, [r4, #4]
   8476a:	f023 0303 	bic.w	r3, r3, #3
   8476e:	1b5a      	subs	r2, r3, r5
   84770:	2a0f      	cmp	r2, #15
   84772:	ddf3      	ble.n	8475c <_malloc_r+0x98>
   84774:	4660      	mov	r0, ip
   84776:	693c      	ldr	r4, [r7, #16]
   84778:	f8df c2b4 	ldr.w	ip, [pc, #692]	; 84a30 <_malloc_r+0x36c>
   8477c:	4564      	cmp	r4, ip
   8477e:	d06f      	beq.n	84860 <_malloc_r+0x19c>
   84780:	6863      	ldr	r3, [r4, #4]
   84782:	f023 0303 	bic.w	r3, r3, #3
   84786:	1b5a      	subs	r2, r3, r5
   84788:	2a0f      	cmp	r2, #15
   8478a:	f300 812f 	bgt.w	849ec <_malloc_r+0x328>
   8478e:	2a00      	cmp	r2, #0
   84790:	e9c7 cc04 	strd	ip, ip, [r7, #16]
   84794:	f280 8120 	bge.w	849d8 <_malloc_r+0x314>
   84798:	f5b3 7f00 	cmp.w	r3, #512	; 0x200
   8479c:	f080 815b 	bcs.w	84a56 <_malloc_r+0x392>
   847a0:	2201      	movs	r2, #1
   847a2:	08db      	lsrs	r3, r3, #3
   847a4:	1099      	asrs	r1, r3, #2
   847a6:	4413      	add	r3, r2
   847a8:	408a      	lsls	r2, r1
   847aa:	6879      	ldr	r1, [r7, #4]
   847ac:	f857 e033 	ldr.w	lr, [r7, r3, lsl #3]
   847b0:	eb07 08c3 	add.w	r8, r7, r3, lsl #3
   847b4:	430a      	orrs	r2, r1
   847b6:	f1a8 0108 	sub.w	r1, r8, #8
   847ba:	e9c4 e102 	strd	lr, r1, [r4, #8]
   847be:	607a      	str	r2, [r7, #4]
   847c0:	f847 4033 	str.w	r4, [r7, r3, lsl #3]
   847c4:	f8ce 400c 	str.w	r4, [lr, #12]
   847c8:	2401      	movs	r4, #1
   847ca:	1083      	asrs	r3, r0, #2
   847cc:	409c      	lsls	r4, r3
   847ce:	4294      	cmp	r4, r2
   847d0:	d84c      	bhi.n	8486c <_malloc_r+0x1a8>
   847d2:	4214      	tst	r4, r2
   847d4:	d106      	bne.n	847e4 <_malloc_r+0x120>
   847d6:	f020 0003 	bic.w	r0, r0, #3
   847da:	0064      	lsls	r4, r4, #1
   847dc:	4214      	tst	r4, r2
   847de:	f100 0004 	add.w	r0, r0, #4
   847e2:	d0fa      	beq.n	847da <_malloc_r+0x116>
   847e4:	eb07 09c0 	add.w	r9, r7, r0, lsl #3
   847e8:	46ce      	mov	lr, r9
   847ea:	4680      	mov	r8, r0
   847ec:	f8de 300c 	ldr.w	r3, [lr, #12]
   847f0:	459e      	cmp	lr, r3
   847f2:	d107      	bne.n	84804 <_malloc_r+0x140>
   847f4:	e110      	b.n	84a18 <_malloc_r+0x354>
   847f6:	2a00      	cmp	r2, #0
   847f8:	f280 811e 	bge.w	84a38 <_malloc_r+0x374>
   847fc:	68db      	ldr	r3, [r3, #12]
   847fe:	459e      	cmp	lr, r3
   84800:	f000 810a 	beq.w	84a18 <_malloc_r+0x354>
   84804:	6859      	ldr	r1, [r3, #4]
   84806:	f021 0103 	bic.w	r1, r1, #3
   8480a:	1b4a      	subs	r2, r1, r5
   8480c:	2a0f      	cmp	r2, #15
   8480e:	ddf2      	ble.n	847f6 <_malloc_r+0x132>
   84810:	f045 0801 	orr.w	r8, r5, #1
   84814:	4630      	mov	r0, r6
   84816:	e9d3 e402 	ldrd	lr, r4, [r3, #8]
   8481a:	441d      	add	r5, r3
   8481c:	f042 0601 	orr.w	r6, r2, #1
   84820:	f8c3 8004 	str.w	r8, [r3, #4]
   84824:	f8ce 400c 	str.w	r4, [lr, #12]
   84828:	f8c4 e008 	str.w	lr, [r4, #8]
   8482c:	e9c7 5504 	strd	r5, r5, [r7, #16]
   84830:	e9c5 cc02 	strd	ip, ip, [r5, #8]
   84834:	606e      	str	r6, [r5, #4]
   84836:	505a      	str	r2, [r3, r1]
   84838:	9300      	str	r3, [sp, #0]
   8483a:	f000 fb27 	bl	84e8c <__malloc_unlock>
   8483e:	9b00      	ldr	r3, [sp, #0]
   84840:	f103 0408 	add.w	r4, r3, #8
   84844:	e766      	b.n	84714 <_malloc_r+0x50>
   84846:	2400      	movs	r4, #0
   84848:	230c      	movs	r3, #12
   8484a:	4620      	mov	r0, r4
   8484c:	6033      	str	r3, [r6, #0]
   8484e:	b003      	add	sp, #12
   84850:	e8bd 8ff0 	ldmia.w	sp!, {r4, r5, r6, r7, r8, r9, sl, fp, pc}
   84854:	f44f 7100 	mov.w	r1, #512	; 0x200
   84858:	2040      	movs	r0, #64	; 0x40
   8485a:	f04f 0c3f 	mov.w	ip, #63	; 0x3f
   8485e:	e776      	b.n	8474e <_malloc_r+0x8a>
   84860:	2401      	movs	r4, #1
   84862:	687a      	ldr	r2, [r7, #4]
   84864:	1083      	asrs	r3, r0, #2
   84866:	409c      	lsls	r4, r3
   84868:	4294      	cmp	r4, r2
   8486a:	d9b2      	bls.n	847d2 <_malloc_r+0x10e>
   8486c:	68bc      	ldr	r4, [r7, #8]
   8486e:	6863      	ldr	r3, [r4, #4]
   84870:	f023 0903 	bic.w	r9, r3, #3
   84874:	45a9      	cmp	r9, r5
   84876:	d304      	bcc.n	84882 <_malloc_r+0x1be>
   84878:	eba9 0305 	sub.w	r3, r9, r5
   8487c:	2b0f      	cmp	r3, #15
   8487e:	f300 8084 	bgt.w	8498a <_malloc_r+0x2c6>
   84882:	f8df a1b0 	ldr.w	sl, [pc, #432]	; 84a34 <_malloc_r+0x370>
   84886:	f8d7 2408 	ldr.w	r2, [r7, #1032]	; 0x408
   8488a:	f8da 3000 	ldr.w	r3, [sl]
   8488e:	3201      	adds	r2, #1
   84890:	eb05 0803 	add.w	r8, r5, r3
   84894:	f000 813b 	beq.w	84b0e <_malloc_r+0x44a>
   84898:	f508 5880 	add.w	r8, r8, #4096	; 0x1000
   8489c:	f108 080f 	add.w	r8, r8, #15
   848a0:	f428 687f 	bic.w	r8, r8, #4080	; 0xff0
   848a4:	f028 080f 	bic.w	r8, r8, #15
   848a8:	4641      	mov	r1, r8
   848aa:	4630      	mov	r0, r6
   848ac:	f001 f91e 	bl	85aec <_sbrk_r>
   848b0:	f1b0 3fff 	cmp.w	r0, #4294967295	; 0xffffffff
   848b4:	4683      	mov	fp, r0
   848b6:	f000 80f7 	beq.w	84aa8 <_malloc_r+0x3e4>
   848ba:	eb04 0009 	add.w	r0, r4, r9
   848be:	4558      	cmp	r0, fp
   848c0:	f200 80f0 	bhi.w	84aa4 <_malloc_r+0x3e0>
   848c4:	f8da 2004 	ldr.w	r2, [sl, #4]
   848c8:	eb08 0102 	add.w	r1, r8, r2
   848cc:	f8ca 1004 	str.w	r1, [sl, #4]
   848d0:	f000 814e 	beq.w	84b70 <_malloc_r+0x4ac>
   848d4:	f8d7 3408 	ldr.w	r3, [r7, #1032]	; 0x408
   848d8:	3301      	adds	r3, #1
   848da:	bf1b      	ittet	ne
   848dc:	ebab 0200 	subne.w	r2, fp, r0
   848e0:	1852      	addne	r2, r2, r1
   848e2:	f8c7 b408 	streq.w	fp, [r7, #1032]	; 0x408
   848e6:	f8ca 2004 	strne.w	r2, [sl, #4]
   848ea:	f01b 0307 	ands.w	r3, fp, #7
   848ee:	f000 8124 	beq.w	84b3a <_malloc_r+0x476>
   848f2:	f1c3 0208 	rsb	r2, r3, #8
   848f6:	4493      	add	fp, r2
   848f8:	f5c3 5280 	rsb	r2, r3, #4096	; 0x1000
   848fc:	44d8      	add	r8, fp
   848fe:	3208      	adds	r2, #8
   84900:	eba2 0208 	sub.w	r2, r2, r8
   84904:	f3c2 020b 	ubfx	r2, r2, #0, #12
   84908:	4611      	mov	r1, r2
   8490a:	4630      	mov	r0, r6
   8490c:	9301      	str	r3, [sp, #4]
   8490e:	9200      	str	r2, [sp, #0]
   84910:	f001 f8ec 	bl	85aec <_sbrk_r>
   84914:	1c42      	adds	r2, r0, #1
   84916:	e9dd 2300 	ldrd	r2, r3, [sp]
   8491a:	f000 815a 	beq.w	84bd2 <_malloc_r+0x50e>
   8491e:	f8da 1004 	ldr.w	r1, [sl, #4]
   84922:	eba0 030b 	sub.w	r3, r0, fp
   84926:	4413      	add	r3, r2
   84928:	f043 0301 	orr.w	r3, r3, #1
   8492c:	4411      	add	r1, r2
   8492e:	42bc      	cmp	r4, r7
   84930:	f8c7 b008 	str.w	fp, [r7, #8]
   84934:	f8ca 1004 	str.w	r1, [sl, #4]
   84938:	f8cb 3004 	str.w	r3, [fp, #4]
   8493c:	d014      	beq.n	84968 <_malloc_r+0x2a4>
   8493e:	f1b9 0f0f 	cmp.w	r9, #15
   84942:	f240 812c 	bls.w	84b9e <_malloc_r+0x4da>
   84946:	f04f 0c05 	mov.w	ip, #5
   8494a:	6863      	ldr	r3, [r4, #4]
   8494c:	f1a9 020c 	sub.w	r2, r9, #12
   84950:	f022 0207 	bic.w	r2, r2, #7
   84954:	f003 0301 	and.w	r3, r3, #1
   84958:	4313      	orrs	r3, r2
   8495a:	18a0      	adds	r0, r4, r2
   8495c:	2a0f      	cmp	r2, #15
   8495e:	6063      	str	r3, [r4, #4]
   84960:	e9c0 cc01 	strd	ip, ip, [r0, #4]
   84964:	f200 813a 	bhi.w	84bdc <_malloc_r+0x518>
   84968:	f8da 302c 	ldr.w	r3, [sl, #44]	; 0x2c
   8496c:	68bc      	ldr	r4, [r7, #8]
   8496e:	4299      	cmp	r1, r3
   84970:	f8da 3030 	ldr.w	r3, [sl, #48]	; 0x30
   84974:	6862      	ldr	r2, [r4, #4]
   84976:	bf88      	it	hi
   84978:	f8ca 102c 	strhi.w	r1, [sl, #44]	; 0x2c
   8497c:	4299      	cmp	r1, r3
   8497e:	f022 0203 	bic.w	r2, r2, #3
   84982:	bf88      	it	hi
   84984:	f8ca 1030 	strhi.w	r1, [sl, #48]	; 0x30
   84988:	e092      	b.n	84ab0 <_malloc_r+0x3ec>
   8498a:	f045 0201 	orr.w	r2, r5, #1
   8498e:	f043 0301 	orr.w	r3, r3, #1
   84992:	4425      	add	r5, r4
   84994:	6062      	str	r2, [r4, #4]
   84996:	4630      	mov	r0, r6
   84998:	60bd      	str	r5, [r7, #8]
   8499a:	3408      	adds	r4, #8
   8499c:	606b      	str	r3, [r5, #4]
   8499e:	f000 fa75 	bl	84e8c <__malloc_unlock>
   849a2:	4620      	mov	r0, r4
   849a4:	b003      	add	sp, #12
   849a6:	e8bd 8ff0 	ldmia.w	sp!, {r4, r5, r6, r7, r8, r9, sl, fp, pc}
   849aa:	4423      	add	r3, r4
   849ac:	685a      	ldr	r2, [r3, #4]
   849ae:	68e1      	ldr	r1, [r4, #12]
   849b0:	e6a6      	b.n	84700 <_malloc_r+0x3c>
   849b2:	68dc      	ldr	r4, [r3, #12]
   849b4:	42a3      	cmp	r3, r4
   849b6:	bf08      	it	eq
   849b8:	3002      	addeq	r0, #2
   849ba:	f43f aedc 	beq.w	84776 <_malloc_r+0xb2>
   849be:	e699      	b.n	846f4 <_malloc_r+0x30>
   849c0:	2b14      	cmp	r3, #20
   849c2:	d969      	bls.n	84a98 <_malloc_r+0x3d4>
   849c4:	2b54      	cmp	r3, #84	; 0x54
   849c6:	f200 80a5 	bhi.w	84b14 <_malloc_r+0x450>
   849ca:	0b2b      	lsrs	r3, r5, #12
   849cc:	f103 006f 	add.w	r0, r3, #111	; 0x6f
   849d0:	f103 0c6e 	add.w	ip, r3, #110	; 0x6e
   849d4:	00c1      	lsls	r1, r0, #3
   849d6:	e6ba      	b.n	8474e <_malloc_r+0x8a>
   849d8:	4423      	add	r3, r4
   849da:	685a      	ldr	r2, [r3, #4]
   849dc:	4630      	mov	r0, r6
   849de:	f042 0201 	orr.w	r2, r2, #1
   849e2:	605a      	str	r2, [r3, #4]
   849e4:	3408      	adds	r4, #8
   849e6:	f000 fa51 	bl	84e8c <__malloc_unlock>
   849ea:	e693      	b.n	84714 <_malloc_r+0x50>
   849ec:	f045 0e01 	orr.w	lr, r5, #1
   849f0:	f042 0101 	orr.w	r1, r2, #1
   849f4:	4425      	add	r5, r4
   849f6:	f8c4 e004 	str.w	lr, [r4, #4]
   849fa:	4630      	mov	r0, r6
   849fc:	e9c7 5504 	strd	r5, r5, [r7, #16]
   84a00:	e9c5 cc02 	strd	ip, ip, [r5, #8]
   84a04:	6069      	str	r1, [r5, #4]
   84a06:	50e2      	str	r2, [r4, r3]
   84a08:	f000 fa40 	bl	84e8c <__malloc_unlock>
   84a0c:	3408      	adds	r4, #8
   84a0e:	e681      	b.n	84714 <_malloc_r+0x50>
   84a10:	08e8      	lsrs	r0, r5, #3
   84a12:	f105 0308 	add.w	r3, r5, #8
   84a16:	e665      	b.n	846e4 <_malloc_r+0x20>
   84a18:	f108 0801 	add.w	r8, r8, #1
   84a1c:	f018 0f03 	tst.w	r8, #3
   84a20:	f10e 0e08 	add.w	lr, lr, #8
   84a24:	f47f aee2 	bne.w	847ec <_malloc_r+0x128>
   84a28:	e059      	b.n	84ade <_malloc_r+0x41a>
   84a2a:	bf00      	nop
   84a2c:	20070764 	.word	0x20070764
   84a30:	2007076c 	.word	0x2007076c
   84a34:	20070ba0 	.word	0x20070ba0
   84a38:	461c      	mov	r4, r3
   84a3a:	4419      	add	r1, r3
   84a3c:	684a      	ldr	r2, [r1, #4]
   84a3e:	68db      	ldr	r3, [r3, #12]
   84a40:	f854 5f08 	ldr.w	r5, [r4, #8]!
   84a44:	f042 0201 	orr.w	r2, r2, #1
   84a48:	604a      	str	r2, [r1, #4]
   84a4a:	4630      	mov	r0, r6
   84a4c:	60eb      	str	r3, [r5, #12]
   84a4e:	609d      	str	r5, [r3, #8]
   84a50:	f000 fa1c 	bl	84e8c <__malloc_unlock>
   84a54:	e65e      	b.n	84714 <_malloc_r+0x50>
   84a56:	0a5a      	lsrs	r2, r3, #9
   84a58:	2a04      	cmp	r2, #4
   84a5a:	d935      	bls.n	84ac8 <_malloc_r+0x404>
   84a5c:	2a14      	cmp	r2, #20
   84a5e:	d87f      	bhi.n	84b60 <_malloc_r+0x49c>
   84a60:	f102 015c 	add.w	r1, r2, #92	; 0x5c
   84a64:	00c9      	lsls	r1, r1, #3
   84a66:	325b      	adds	r2, #91	; 0x5b
   84a68:	eb07 0e01 	add.w	lr, r7, r1
   84a6c:	5879      	ldr	r1, [r7, r1]
   84a6e:	f1ae 0e08 	sub.w	lr, lr, #8
   84a72:	458e      	cmp	lr, r1
   84a74:	d058      	beq.n	84b28 <_malloc_r+0x464>
   84a76:	684a      	ldr	r2, [r1, #4]
   84a78:	f022 0203 	bic.w	r2, r2, #3
   84a7c:	429a      	cmp	r2, r3
   84a7e:	d902      	bls.n	84a86 <_malloc_r+0x3c2>
   84a80:	6889      	ldr	r1, [r1, #8]
   84a82:	458e      	cmp	lr, r1
   84a84:	d1f7      	bne.n	84a76 <_malloc_r+0x3b2>
   84a86:	f8d1 e00c 	ldr.w	lr, [r1, #12]
   84a8a:	687a      	ldr	r2, [r7, #4]
   84a8c:	e9c4 1e02 	strd	r1, lr, [r4, #8]
   84a90:	f8ce 4008 	str.w	r4, [lr, #8]
   84a94:	60cc      	str	r4, [r1, #12]
   84a96:	e697      	b.n	847c8 <_malloc_r+0x104>
   84a98:	f103 005c 	add.w	r0, r3, #92	; 0x5c
   84a9c:	f103 0c5b 	add.w	ip, r3, #91	; 0x5b
   84aa0:	00c1      	lsls	r1, r0, #3
   84aa2:	e654      	b.n	8474e <_malloc_r+0x8a>
   84aa4:	42bc      	cmp	r4, r7
   84aa6:	d07e      	beq.n	84ba6 <_malloc_r+0x4e2>
   84aa8:	68bc      	ldr	r4, [r7, #8]
   84aaa:	6862      	ldr	r2, [r4, #4]
   84aac:	f022 0203 	bic.w	r2, r2, #3
   84ab0:	4295      	cmp	r5, r2
   84ab2:	eba2 0305 	sub.w	r3, r2, r5
   84ab6:	d802      	bhi.n	84abe <_malloc_r+0x3fa>
   84ab8:	2b0f      	cmp	r3, #15
   84aba:	f73f af66 	bgt.w	8498a <_malloc_r+0x2c6>
   84abe:	4630      	mov	r0, r6
   84ac0:	f000 f9e4 	bl	84e8c <__malloc_unlock>
   84ac4:	2400      	movs	r4, #0
   84ac6:	e625      	b.n	84714 <_malloc_r+0x50>
   84ac8:	099a      	lsrs	r2, r3, #6
   84aca:	f102 0139 	add.w	r1, r2, #57	; 0x39
   84ace:	00c9      	lsls	r1, r1, #3
   84ad0:	3238      	adds	r2, #56	; 0x38
   84ad2:	e7c9      	b.n	84a68 <_malloc_r+0x3a4>
   84ad4:	f8d9 9000 	ldr.w	r9, [r9]
   84ad8:	4599      	cmp	r9, r3
   84ada:	f040 8095 	bne.w	84c08 <_malloc_r+0x544>
   84ade:	f010 0f03 	tst.w	r0, #3
   84ae2:	f1a9 0308 	sub.w	r3, r9, #8
   84ae6:	f100 30ff 	add.w	r0, r0, #4294967295	; 0xffffffff
   84aea:	d1f3      	bne.n	84ad4 <_malloc_r+0x410>
   84aec:	687b      	ldr	r3, [r7, #4]
   84aee:	ea23 0304 	bic.w	r3, r3, r4
   84af2:	607b      	str	r3, [r7, #4]
   84af4:	0064      	lsls	r4, r4, #1
   84af6:	429c      	cmp	r4, r3
   84af8:	f63f aeb8 	bhi.w	8486c <_malloc_r+0x1a8>
   84afc:	b91c      	cbnz	r4, 84b06 <_malloc_r+0x442>
   84afe:	e6b5      	b.n	8486c <_malloc_r+0x1a8>
   84b00:	0064      	lsls	r4, r4, #1
   84b02:	f108 0804 	add.w	r8, r8, #4
   84b06:	421c      	tst	r4, r3
   84b08:	d0fa      	beq.n	84b00 <_malloc_r+0x43c>
   84b0a:	4640      	mov	r0, r8
   84b0c:	e66a      	b.n	847e4 <_malloc_r+0x120>
   84b0e:	f108 0810 	add.w	r8, r8, #16
   84b12:	e6c9      	b.n	848a8 <_malloc_r+0x1e4>
   84b14:	f5b3 7faa 	cmp.w	r3, #340	; 0x154
   84b18:	d836      	bhi.n	84b88 <_malloc_r+0x4c4>
   84b1a:	0beb      	lsrs	r3, r5, #15
   84b1c:	f103 0078 	add.w	r0, r3, #120	; 0x78
   84b20:	f103 0c77 	add.w	ip, r3, #119	; 0x77
   84b24:	00c1      	lsls	r1, r0, #3
   84b26:	e612      	b.n	8474e <_malloc_r+0x8a>
   84b28:	f04f 0801 	mov.w	r8, #1
   84b2c:	687b      	ldr	r3, [r7, #4]
   84b2e:	1092      	asrs	r2, r2, #2
   84b30:	fa08 f202 	lsl.w	r2, r8, r2
   84b34:	431a      	orrs	r2, r3
   84b36:	607a      	str	r2, [r7, #4]
   84b38:	e7a8      	b.n	84a8c <_malloc_r+0x3c8>
   84b3a:	44d8      	add	r8, fp
   84b3c:	f1c8 0200 	rsb	r2, r8, #0
   84b40:	f3c2 020b 	ubfx	r2, r2, #0, #12
   84b44:	4611      	mov	r1, r2
   84b46:	4630      	mov	r0, r6
   84b48:	9301      	str	r3, [sp, #4]
   84b4a:	9200      	str	r2, [sp, #0]
   84b4c:	f000 ffce 	bl	85aec <_sbrk_r>
   84b50:	1c43      	adds	r3, r0, #1
   84b52:	e9dd 2300 	ldrd	r2, r3, [sp]
   84b56:	f47f aee2 	bne.w	8491e <_malloc_r+0x25a>
   84b5a:	4640      	mov	r0, r8
   84b5c:	461a      	mov	r2, r3
   84b5e:	e6de      	b.n	8491e <_malloc_r+0x25a>
   84b60:	2a54      	cmp	r2, #84	; 0x54
   84b62:	d827      	bhi.n	84bb4 <_malloc_r+0x4f0>
   84b64:	0b1a      	lsrs	r2, r3, #12
   84b66:	f102 016f 	add.w	r1, r2, #111	; 0x6f
   84b6a:	00c9      	lsls	r1, r1, #3
   84b6c:	326e      	adds	r2, #110	; 0x6e
   84b6e:	e77b      	b.n	84a68 <_malloc_r+0x3a4>
   84b70:	f3c0 030b 	ubfx	r3, r0, #0, #12
   84b74:	2b00      	cmp	r3, #0
   84b76:	f47f aead 	bne.w	848d4 <_malloc_r+0x210>
   84b7a:	eb09 0308 	add.w	r3, r9, r8
   84b7e:	68ba      	ldr	r2, [r7, #8]
   84b80:	f043 0301 	orr.w	r3, r3, #1
   84b84:	6053      	str	r3, [r2, #4]
   84b86:	e6ef      	b.n	84968 <_malloc_r+0x2a4>
   84b88:	f240 5254 	movw	r2, #1364	; 0x554
   84b8c:	4293      	cmp	r3, r2
   84b8e:	d81a      	bhi.n	84bc6 <_malloc_r+0x502>
   84b90:	0cab      	lsrs	r3, r5, #18
   84b92:	f103 007d 	add.w	r0, r3, #125	; 0x7d
   84b96:	f103 0c7c 	add.w	ip, r3, #124	; 0x7c
   84b9a:	00c1      	lsls	r1, r0, #3
   84b9c:	e5d7      	b.n	8474e <_malloc_r+0x8a>
   84b9e:	2301      	movs	r3, #1
   84ba0:	f8cb 3004 	str.w	r3, [fp, #4]
   84ba4:	e78b      	b.n	84abe <_malloc_r+0x3fa>
   84ba6:	f8da 2004 	ldr.w	r2, [sl, #4]
   84baa:	eb08 0102 	add.w	r1, r8, r2
   84bae:	f8ca 1004 	str.w	r1, [sl, #4]
   84bb2:	e68f      	b.n	848d4 <_malloc_r+0x210>
   84bb4:	f5b2 7faa 	cmp.w	r2, #340	; 0x154
   84bb8:	d818      	bhi.n	84bec <_malloc_r+0x528>
   84bba:	0bda      	lsrs	r2, r3, #15
   84bbc:	f102 0178 	add.w	r1, r2, #120	; 0x78
   84bc0:	00c9      	lsls	r1, r1, #3
   84bc2:	3277      	adds	r2, #119	; 0x77
   84bc4:	e750      	b.n	84a68 <_malloc_r+0x3a4>
   84bc6:	f44f 717e 	mov.w	r1, #1016	; 0x3f8
   84bca:	207f      	movs	r0, #127	; 0x7f
   84bcc:	f04f 0c7e 	mov.w	ip, #126	; 0x7e
   84bd0:	e5bd      	b.n	8474e <_malloc_r+0x8a>
   84bd2:	3b08      	subs	r3, #8
   84bd4:	2200      	movs	r2, #0
   84bd6:	eb08 0003 	add.w	r0, r8, r3
   84bda:	e6a0      	b.n	8491e <_malloc_r+0x25a>
   84bdc:	f104 0108 	add.w	r1, r4, #8
   84be0:	4630      	mov	r0, r6
   84be2:	f7ff fc71 	bl	844c8 <_free_r>
   84be6:	f8da 1004 	ldr.w	r1, [sl, #4]
   84bea:	e6bd      	b.n	84968 <_malloc_r+0x2a4>
   84bec:	f240 5154 	movw	r1, #1364	; 0x554
   84bf0:	428a      	cmp	r2, r1
   84bf2:	d805      	bhi.n	84c00 <_malloc_r+0x53c>
   84bf4:	0c9a      	lsrs	r2, r3, #18
   84bf6:	f102 017d 	add.w	r1, r2, #125	; 0x7d
   84bfa:	00c9      	lsls	r1, r1, #3
   84bfc:	327c      	adds	r2, #124	; 0x7c
   84bfe:	e733      	b.n	84a68 <_malloc_r+0x3a4>
   84c00:	f44f 717e 	mov.w	r1, #1016	; 0x3f8
   84c04:	227e      	movs	r2, #126	; 0x7e
   84c06:	e72f      	b.n	84a68 <_malloc_r+0x3a4>
   84c08:	687b      	ldr	r3, [r7, #4]
   84c0a:	e773      	b.n	84af4 <_malloc_r+0x430>

00084c0c <_mbtowc_r>:
   84c0c:	b410      	push	{r4}
   84c0e:	4c03      	ldr	r4, [pc, #12]	; (84c1c <_mbtowc_r+0x10>)
   84c10:	f8d4 40e4 	ldr.w	r4, [r4, #228]	; 0xe4
   84c14:	46a4      	mov	ip, r4
   84c16:	bc10      	pop	{r4}
   84c18:	4760      	bx	ip
   84c1a:	bf00      	nop
   84c1c:	200705f8 	.word	0x200705f8

00084c20 <__ascii_mbtowc>:
   84c20:	b082      	sub	sp, #8
   84c22:	b149      	cbz	r1, 84c38 <__ascii_mbtowc+0x18>
   84c24:	b15a      	cbz	r2, 84c3e <__ascii_mbtowc+0x1e>
   84c26:	b16b      	cbz	r3, 84c44 <__ascii_mbtowc+0x24>
   84c28:	7813      	ldrb	r3, [r2, #0]
   84c2a:	600b      	str	r3, [r1, #0]
   84c2c:	7812      	ldrb	r2, [r2, #0]
   84c2e:	1c10      	adds	r0, r2, #0
   84c30:	bf18      	it	ne
   84c32:	2001      	movne	r0, #1
   84c34:	b002      	add	sp, #8
   84c36:	4770      	bx	lr
   84c38:	a901      	add	r1, sp, #4
   84c3a:	2a00      	cmp	r2, #0
   84c3c:	d1f3      	bne.n	84c26 <__ascii_mbtowc+0x6>
   84c3e:	4610      	mov	r0, r2
   84c40:	b002      	add	sp, #8
   84c42:	4770      	bx	lr
   84c44:	f06f 0001 	mvn.w	r0, #1
   84c48:	e7f4      	b.n	84c34 <__ascii_mbtowc+0x14>
   84c4a:	bf00      	nop

00084c4c <memchr>:
   84c4c:	0783      	lsls	r3, r0, #30
   84c4e:	b470      	push	{r4, r5, r6}
   84c50:	b2cd      	uxtb	r5, r1
   84c52:	d03d      	beq.n	84cd0 <memchr+0x84>
   84c54:	1e54      	subs	r4, r2, #1
   84c56:	b30a      	cbz	r2, 84c9c <memchr+0x50>
   84c58:	7803      	ldrb	r3, [r0, #0]
   84c5a:	42ab      	cmp	r3, r5
   84c5c:	d01f      	beq.n	84c9e <memchr+0x52>
   84c5e:	1c43      	adds	r3, r0, #1
   84c60:	e005      	b.n	84c6e <memchr+0x22>
   84c62:	f114 34ff 	adds.w	r4, r4, #4294967295	; 0xffffffff
   84c66:	d319      	bcc.n	84c9c <memchr+0x50>
   84c68:	7802      	ldrb	r2, [r0, #0]
   84c6a:	42aa      	cmp	r2, r5
   84c6c:	d017      	beq.n	84c9e <memchr+0x52>
   84c6e:	f013 0f03 	tst.w	r3, #3
   84c72:	4618      	mov	r0, r3
   84c74:	f103 0301 	add.w	r3, r3, #1
   84c78:	d1f3      	bne.n	84c62 <memchr+0x16>
   84c7a:	2c03      	cmp	r4, #3
   84c7c:	d811      	bhi.n	84ca2 <memchr+0x56>
   84c7e:	b34c      	cbz	r4, 84cd4 <memchr+0x88>
   84c80:	7803      	ldrb	r3, [r0, #0]
   84c82:	42ab      	cmp	r3, r5
   84c84:	d00b      	beq.n	84c9e <memchr+0x52>
   84c86:	4404      	add	r4, r0
   84c88:	1c43      	adds	r3, r0, #1
   84c8a:	e002      	b.n	84c92 <memchr+0x46>
   84c8c:	7802      	ldrb	r2, [r0, #0]
   84c8e:	42aa      	cmp	r2, r5
   84c90:	d005      	beq.n	84c9e <memchr+0x52>
   84c92:	429c      	cmp	r4, r3
   84c94:	4618      	mov	r0, r3
   84c96:	f103 0301 	add.w	r3, r3, #1
   84c9a:	d1f7      	bne.n	84c8c <memchr+0x40>
   84c9c:	2000      	movs	r0, #0
   84c9e:	bc70      	pop	{r4, r5, r6}
   84ca0:	4770      	bx	lr
   84ca2:	4606      	mov	r6, r0
   84ca4:	020a      	lsls	r2, r1, #8
   84ca6:	b292      	uxth	r2, r2
   84ca8:	432a      	orrs	r2, r5
   84caa:	ea42 4202 	orr.w	r2, r2, r2, lsl #16
   84cae:	6833      	ldr	r3, [r6, #0]
   84cb0:	4630      	mov	r0, r6
   84cb2:	4053      	eors	r3, r2
   84cb4:	f1a3 3101 	sub.w	r1, r3, #16843009	; 0x1010101
   84cb8:	ea21 0303 	bic.w	r3, r1, r3
   84cbc:	f013 3f80 	tst.w	r3, #2155905152	; 0x80808080
   84cc0:	f106 0604 	add.w	r6, r6, #4
   84cc4:	d1dc      	bne.n	84c80 <memchr+0x34>
   84cc6:	3c04      	subs	r4, #4
   84cc8:	2c03      	cmp	r4, #3
   84cca:	4630      	mov	r0, r6
   84ccc:	d8ef      	bhi.n	84cae <memchr+0x62>
   84cce:	e7d6      	b.n	84c7e <memchr+0x32>
   84cd0:	4614      	mov	r4, r2
   84cd2:	e7d2      	b.n	84c7a <memchr+0x2e>
   84cd4:	4620      	mov	r0, r4
   84cd6:	e7e2      	b.n	84c9e <memchr+0x52>

00084cd8 <memcpy>:
   84cd8:	4684      	mov	ip, r0
   84cda:	ea41 0300 	orr.w	r3, r1, r0
   84cde:	f013 0303 	ands.w	r3, r3, #3
   84ce2:	d149      	bne.n	84d78 <memcpy+0xa0>
   84ce4:	3a40      	subs	r2, #64	; 0x40
   84ce6:	d323      	bcc.n	84d30 <memcpy+0x58>
   84ce8:	680b      	ldr	r3, [r1, #0]
   84cea:	6003      	str	r3, [r0, #0]
   84cec:	684b      	ldr	r3, [r1, #4]
   84cee:	6043      	str	r3, [r0, #4]
   84cf0:	688b      	ldr	r3, [r1, #8]
   84cf2:	6083      	str	r3, [r0, #8]
   84cf4:	68cb      	ldr	r3, [r1, #12]
   84cf6:	60c3      	str	r3, [r0, #12]
   84cf8:	690b      	ldr	r3, [r1, #16]
   84cfa:	6103      	str	r3, [r0, #16]
   84cfc:	694b      	ldr	r3, [r1, #20]
   84cfe:	6143      	str	r3, [r0, #20]
   84d00:	698b      	ldr	r3, [r1, #24]
   84d02:	6183      	str	r3, [r0, #24]
   84d04:	69cb      	ldr	r3, [r1, #28]
   84d06:	61c3      	str	r3, [r0, #28]
   84d08:	6a0b      	ldr	r3, [r1, #32]
   84d0a:	6203      	str	r3, [r0, #32]
   84d0c:	6a4b      	ldr	r3, [r1, #36]	; 0x24
   84d0e:	6243      	str	r3, [r0, #36]	; 0x24
   84d10:	6a8b      	ldr	r3, [r1, #40]	; 0x28
   84d12:	6283      	str	r3, [r0, #40]	; 0x28
   84d14:	6acb      	ldr	r3, [r1, #44]	; 0x2c
   84d16:	62c3      	str	r3, [r0, #44]	; 0x2c
   84d18:	6b0b      	ldr	r3, [r1, #48]	; 0x30
   84d1a:	6303      	str	r3, [r0, #48]	; 0x30
   84d1c:	6b4b      	ldr	r3, [r1, #52]	; 0x34
   84d1e:	6343      	str	r3, [r0, #52]	; 0x34
   84d20:	6b8b      	ldr	r3, [r1, #56]	; 0x38
   84d22:	6383      	str	r3, [r0, #56]	; 0x38
   84d24:	6bcb      	ldr	r3, [r1, #60]	; 0x3c
   84d26:	63c3      	str	r3, [r0, #60]	; 0x3c
   84d28:	3040      	adds	r0, #64	; 0x40
   84d2a:	3140      	adds	r1, #64	; 0x40
   84d2c:	3a40      	subs	r2, #64	; 0x40
   84d2e:	d2db      	bcs.n	84ce8 <memcpy+0x10>
   84d30:	3230      	adds	r2, #48	; 0x30
   84d32:	d30b      	bcc.n	84d4c <memcpy+0x74>
   84d34:	680b      	ldr	r3, [r1, #0]
   84d36:	6003      	str	r3, [r0, #0]
   84d38:	684b      	ldr	r3, [r1, #4]
   84d3a:	6043      	str	r3, [r0, #4]
   84d3c:	688b      	ldr	r3, [r1, #8]
   84d3e:	6083      	str	r3, [r0, #8]
   84d40:	68cb      	ldr	r3, [r1, #12]
   84d42:	60c3      	str	r3, [r0, #12]
   84d44:	3010      	adds	r0, #16
   84d46:	3110      	adds	r1, #16
   84d48:	3a10      	subs	r2, #16
   84d4a:	d2f3      	bcs.n	84d34 <memcpy+0x5c>
   84d4c:	320c      	adds	r2, #12
   84d4e:	d305      	bcc.n	84d5c <memcpy+0x84>
   84d50:	f851 3b04 	ldr.w	r3, [r1], #4
   84d54:	f840 3b04 	str.w	r3, [r0], #4
   84d58:	3a04      	subs	r2, #4
   84d5a:	d2f9      	bcs.n	84d50 <memcpy+0x78>
   84d5c:	3204      	adds	r2, #4
   84d5e:	d008      	beq.n	84d72 <memcpy+0x9a>
   84d60:	07d2      	lsls	r2, r2, #31
   84d62:	bf1c      	itt	ne
   84d64:	f811 3b01 	ldrbne.w	r3, [r1], #1
   84d68:	f800 3b01 	strbne.w	r3, [r0], #1
   84d6c:	d301      	bcc.n	84d72 <memcpy+0x9a>
   84d6e:	880b      	ldrh	r3, [r1, #0]
   84d70:	8003      	strh	r3, [r0, #0]
   84d72:	4660      	mov	r0, ip
   84d74:	4770      	bx	lr
   84d76:	bf00      	nop
   84d78:	2a08      	cmp	r2, #8
   84d7a:	d313      	bcc.n	84da4 <memcpy+0xcc>
   84d7c:	078b      	lsls	r3, r1, #30
   84d7e:	d0b1      	beq.n	84ce4 <memcpy+0xc>
   84d80:	f010 0303 	ands.w	r3, r0, #3
   84d84:	d0ae      	beq.n	84ce4 <memcpy+0xc>
   84d86:	f1c3 0304 	rsb	r3, r3, #4
   84d8a:	1ad2      	subs	r2, r2, r3
   84d8c:	07db      	lsls	r3, r3, #31
   84d8e:	bf1c      	itt	ne
   84d90:	f811 3b01 	ldrbne.w	r3, [r1], #1
   84d94:	f800 3b01 	strbne.w	r3, [r0], #1
   84d98:	d3a4      	bcc.n	84ce4 <memcpy+0xc>
   84d9a:	f831 3b02 	ldrh.w	r3, [r1], #2
   84d9e:	f820 3b02 	strh.w	r3, [r0], #2
   84da2:	e79f      	b.n	84ce4 <memcpy+0xc>
   84da4:	3a04      	subs	r2, #4
   84da6:	d3d9      	bcc.n	84d5c <memcpy+0x84>
   84da8:	3a01      	subs	r2, #1
   84daa:	f811 3b01 	ldrb.w	r3, [r1], #1
   84dae:	f800 3b01 	strb.w	r3, [r0], #1
   84db2:	d2f9      	bcs.n	84da8 <memcpy+0xd0>
   84db4:	780b      	ldrb	r3, [r1, #0]
   84db6:	7003      	strb	r3, [r0, #0]
   84db8:	784b      	ldrb	r3, [r1, #1]
   84dba:	7043      	strb	r3, [r0, #1]
   84dbc:	788b      	ldrb	r3, [r1, #2]
   84dbe:	7083      	strb	r3, [r0, #2]
   84dc0:	4660      	mov	r0, ip
   84dc2:	4770      	bx	lr

00084dc4 <memmove>:
   84dc4:	4288      	cmp	r0, r1
   84dc6:	b4f0      	push	{r4, r5, r6, r7}
   84dc8:	d90d      	bls.n	84de6 <memmove+0x22>
   84dca:	188b      	adds	r3, r1, r2
   84dcc:	4283      	cmp	r3, r0
   84dce:	d90a      	bls.n	84de6 <memmove+0x22>
   84dd0:	1884      	adds	r4, r0, r2
   84dd2:	b132      	cbz	r2, 84de2 <memmove+0x1e>
   84dd4:	4622      	mov	r2, r4
   84dd6:	f813 4d01 	ldrb.w	r4, [r3, #-1]!
   84dda:	4299      	cmp	r1, r3
   84ddc:	f802 4d01 	strb.w	r4, [r2, #-1]!
   84de0:	d1f9      	bne.n	84dd6 <memmove+0x12>
   84de2:	bcf0      	pop	{r4, r5, r6, r7}
   84de4:	4770      	bx	lr
   84de6:	2a0f      	cmp	r2, #15
   84de8:	d948      	bls.n	84e7c <memmove+0xb8>
   84dea:	ea40 0301 	orr.w	r3, r0, r1
   84dee:	079b      	lsls	r3, r3, #30
   84df0:	d146      	bne.n	84e80 <memmove+0xbc>
   84df2:	f1a2 0310 	sub.w	r3, r2, #16
   84df6:	091b      	lsrs	r3, r3, #4
   84df8:	f101 0720 	add.w	r7, r1, #32
   84dfc:	eb07 1703 	add.w	r7, r7, r3, lsl #4
   84e00:	f101 0410 	add.w	r4, r1, #16
   84e04:	f100 0510 	add.w	r5, r0, #16
   84e08:	f854 6c10 	ldr.w	r6, [r4, #-16]
   84e0c:	3410      	adds	r4, #16
   84e0e:	f845 6c10 	str.w	r6, [r5, #-16]
   84e12:	f854 6c1c 	ldr.w	r6, [r4, #-28]
   84e16:	3510      	adds	r5, #16
   84e18:	f845 6c1c 	str.w	r6, [r5, #-28]
   84e1c:	f854 6c18 	ldr.w	r6, [r4, #-24]
   84e20:	f845 6c18 	str.w	r6, [r5, #-24]
   84e24:	f854 6c14 	ldr.w	r6, [r4, #-20]
   84e28:	42bc      	cmp	r4, r7
   84e2a:	f845 6c14 	str.w	r6, [r5, #-20]
   84e2e:	d1eb      	bne.n	84e08 <memmove+0x44>
   84e30:	3301      	adds	r3, #1
   84e32:	f002 050f 	and.w	r5, r2, #15
   84e36:	011b      	lsls	r3, r3, #4
   84e38:	2d03      	cmp	r5, #3
   84e3a:	4419      	add	r1, r3
   84e3c:	4403      	add	r3, r0
   84e3e:	d921      	bls.n	84e84 <memmove+0xc0>
   84e40:	460f      	mov	r7, r1
   84e42:	462c      	mov	r4, r5
   84e44:	1f1e      	subs	r6, r3, #4
   84e46:	f857 cb04 	ldr.w	ip, [r7], #4
   84e4a:	3c04      	subs	r4, #4
   84e4c:	2c03      	cmp	r4, #3
   84e4e:	f846 cf04 	str.w	ip, [r6, #4]!
   84e52:	d8f8      	bhi.n	84e46 <memmove+0x82>
   84e54:	1f2c      	subs	r4, r5, #4
   84e56:	f024 0403 	bic.w	r4, r4, #3
   84e5a:	3404      	adds	r4, #4
   84e5c:	4423      	add	r3, r4
   84e5e:	4421      	add	r1, r4
   84e60:	f002 0203 	and.w	r2, r2, #3
   84e64:	2a00      	cmp	r2, #0
   84e66:	d0bc      	beq.n	84de2 <memmove+0x1e>
   84e68:	3b01      	subs	r3, #1
   84e6a:	440a      	add	r2, r1
   84e6c:	f811 4b01 	ldrb.w	r4, [r1], #1
   84e70:	4291      	cmp	r1, r2
   84e72:	f803 4f01 	strb.w	r4, [r3, #1]!
   84e76:	d1f9      	bne.n	84e6c <memmove+0xa8>
   84e78:	bcf0      	pop	{r4, r5, r6, r7}
   84e7a:	4770      	bx	lr
   84e7c:	4603      	mov	r3, r0
   84e7e:	e7f1      	b.n	84e64 <memmove+0xa0>
   84e80:	4603      	mov	r3, r0
   84e82:	e7f1      	b.n	84e68 <memmove+0xa4>
   84e84:	462a      	mov	r2, r5
   84e86:	e7ed      	b.n	84e64 <memmove+0xa0>

00084e88 <__malloc_lock>:
   84e88:	4770      	bx	lr
   84e8a:	bf00      	nop

00084e8c <__malloc_unlock>:
   84e8c:	4770      	bx	lr
   84e8e:	bf00      	nop

00084e90 <_Balloc>:
   84e90:	6cc3      	ldr	r3, [r0, #76]	; 0x4c
   84e92:	b570      	push	{r4, r5, r6, lr}
   84e94:	4605      	mov	r5, r0
   84e96:	460c      	mov	r4, r1
   84e98:	b14b      	cbz	r3, 84eae <_Balloc+0x1e>
   84e9a:	f853 0024 	ldr.w	r0, [r3, r4, lsl #2]
   84e9e:	b180      	cbz	r0, 84ec2 <_Balloc+0x32>
   84ea0:	6802      	ldr	r2, [r0, #0]
   84ea2:	f843 2024 	str.w	r2, [r3, r4, lsl #2]
   84ea6:	2300      	movs	r3, #0
   84ea8:	e9c0 3303 	strd	r3, r3, [r0, #12]
   84eac:	bd70      	pop	{r4, r5, r6, pc}
   84eae:	2221      	movs	r2, #33	; 0x21
   84eb0:	2104      	movs	r1, #4
   84eb2:	f001 fbf3 	bl	8669c <_calloc_r>
   84eb6:	4603      	mov	r3, r0
   84eb8:	64e8      	str	r0, [r5, #76]	; 0x4c
   84eba:	2800      	cmp	r0, #0
   84ebc:	d1ed      	bne.n	84e9a <_Balloc+0xa>
   84ebe:	2000      	movs	r0, #0
   84ec0:	bd70      	pop	{r4, r5, r6, pc}
   84ec2:	2101      	movs	r1, #1
   84ec4:	fa01 f604 	lsl.w	r6, r1, r4
   84ec8:	1d72      	adds	r2, r6, #5
   84eca:	4628      	mov	r0, r5
   84ecc:	0092      	lsls	r2, r2, #2
   84ece:	f001 fbe5 	bl	8669c <_calloc_r>
   84ed2:	2800      	cmp	r0, #0
   84ed4:	d0f3      	beq.n	84ebe <_Balloc+0x2e>
   84ed6:	e9c0 4601 	strd	r4, r6, [r0, #4]
   84eda:	e7e4      	b.n	84ea6 <_Balloc+0x16>

00084edc <_Bfree>:
   84edc:	b131      	cbz	r1, 84eec <_Bfree+0x10>
   84ede:	6cc3      	ldr	r3, [r0, #76]	; 0x4c
   84ee0:	684a      	ldr	r2, [r1, #4]
   84ee2:	f853 0022 	ldr.w	r0, [r3, r2, lsl #2]
   84ee6:	6008      	str	r0, [r1, #0]
   84ee8:	f843 1022 	str.w	r1, [r3, r2, lsl #2]
   84eec:	4770      	bx	lr
   84eee:	bf00      	nop

00084ef0 <__multadd>:
   84ef0:	b5f0      	push	{r4, r5, r6, r7, lr}
   84ef2:	f04f 0c00 	mov.w	ip, #0
   84ef6:	460c      	mov	r4, r1
   84ef8:	4605      	mov	r5, r0
   84efa:	690e      	ldr	r6, [r1, #16]
   84efc:	b083      	sub	sp, #12
   84efe:	f101 0714 	add.w	r7, r1, #20
   84f02:	6838      	ldr	r0, [r7, #0]
   84f04:	f10c 0c01 	add.w	ip, ip, #1
   84f08:	b281      	uxth	r1, r0
   84f0a:	fb02 3301 	mla	r3, r2, r1, r3
   84f0e:	0c01      	lsrs	r1, r0, #16
   84f10:	0c18      	lsrs	r0, r3, #16
   84f12:	fb02 0101 	mla	r1, r2, r1, r0
   84f16:	b29b      	uxth	r3, r3
   84f18:	eb03 4301 	add.w	r3, r3, r1, lsl #16
   84f1c:	4566      	cmp	r6, ip
   84f1e:	f847 3b04 	str.w	r3, [r7], #4
   84f22:	ea4f 4311 	mov.w	r3, r1, lsr #16
   84f26:	dcec      	bgt.n	84f02 <__multadd+0x12>
   84f28:	b13b      	cbz	r3, 84f3a <__multadd+0x4a>
   84f2a:	68a2      	ldr	r2, [r4, #8]
   84f2c:	42b2      	cmp	r2, r6
   84f2e:	dd07      	ble.n	84f40 <__multadd+0x50>
   84f30:	eb04 0286 	add.w	r2, r4, r6, lsl #2
   84f34:	3601      	adds	r6, #1
   84f36:	6153      	str	r3, [r2, #20]
   84f38:	6126      	str	r6, [r4, #16]
   84f3a:	4620      	mov	r0, r4
   84f3c:	b003      	add	sp, #12
   84f3e:	bdf0      	pop	{r4, r5, r6, r7, pc}
   84f40:	6861      	ldr	r1, [r4, #4]
   84f42:	4628      	mov	r0, r5
   84f44:	3101      	adds	r1, #1
   84f46:	9301      	str	r3, [sp, #4]
   84f48:	f7ff ffa2 	bl	84e90 <_Balloc>
   84f4c:	4607      	mov	r7, r0
   84f4e:	6922      	ldr	r2, [r4, #16]
   84f50:	f104 010c 	add.w	r1, r4, #12
   84f54:	3202      	adds	r2, #2
   84f56:	0092      	lsls	r2, r2, #2
   84f58:	300c      	adds	r0, #12
   84f5a:	f7ff febd 	bl	84cd8 <memcpy>
   84f5e:	6cea      	ldr	r2, [r5, #76]	; 0x4c
   84f60:	6861      	ldr	r1, [r4, #4]
   84f62:	9b01      	ldr	r3, [sp, #4]
   84f64:	f852 0021 	ldr.w	r0, [r2, r1, lsl #2]
   84f68:	6020      	str	r0, [r4, #0]
   84f6a:	f842 4021 	str.w	r4, [r2, r1, lsl #2]
   84f6e:	463c      	mov	r4, r7
   84f70:	e7de      	b.n	84f30 <__multadd+0x40>
   84f72:	bf00      	nop

00084f74 <__s2b>:
   84f74:	e92d 43f8 	stmdb	sp!, {r3, r4, r5, r6, r7, r8, r9, lr}
   84f78:	4c23      	ldr	r4, [pc, #140]	; (85008 <__s2b+0x94>)
   84f7a:	461e      	mov	r6, r3
   84f7c:	3308      	adds	r3, #8
   84f7e:	fb84 4c03 	smull	r4, ip, r4, r3
   84f82:	17db      	asrs	r3, r3, #31
   84f84:	ebc3 0c6c 	rsb	ip, r3, ip, asr #1
   84f88:	f1bc 0f01 	cmp.w	ip, #1
   84f8c:	4607      	mov	r7, r0
   84f8e:	460c      	mov	r4, r1
   84f90:	4690      	mov	r8, r2
   84f92:	9d08      	ldr	r5, [sp, #32]
   84f94:	dd35      	ble.n	85002 <__s2b+0x8e>
   84f96:	2301      	movs	r3, #1
   84f98:	2100      	movs	r1, #0
   84f9a:	005b      	lsls	r3, r3, #1
   84f9c:	459c      	cmp	ip, r3
   84f9e:	f101 0101 	add.w	r1, r1, #1
   84fa2:	dcfa      	bgt.n	84f9a <__s2b+0x26>
   84fa4:	4638      	mov	r0, r7
   84fa6:	f7ff ff73 	bl	84e90 <_Balloc>
   84faa:	2301      	movs	r3, #1
   84fac:	f1b8 0f09 	cmp.w	r8, #9
   84fb0:	e9c0 3504 	strd	r3, r5, [r0, #16]
   84fb4:	dd21      	ble.n	84ffa <__s2b+0x86>
   84fb6:	f104 0909 	add.w	r9, r4, #9
   84fba:	464d      	mov	r5, r9
   84fbc:	4444      	add	r4, r8
   84fbe:	f815 3b01 	ldrb.w	r3, [r5], #1
   84fc2:	4601      	mov	r1, r0
   84fc4:	3b30      	subs	r3, #48	; 0x30
   84fc6:	220a      	movs	r2, #10
   84fc8:	4638      	mov	r0, r7
   84fca:	f7ff ff91 	bl	84ef0 <__multadd>
   84fce:	42ac      	cmp	r4, r5
   84fd0:	d1f5      	bne.n	84fbe <__s2b+0x4a>
   84fd2:	eb09 0408 	add.w	r4, r9, r8
   84fd6:	3c08      	subs	r4, #8
   84fd8:	4546      	cmp	r6, r8
   84fda:	dd0c      	ble.n	84ff6 <__s2b+0x82>
   84fdc:	eba6 0608 	sub.w	r6, r6, r8
   84fe0:	4426      	add	r6, r4
   84fe2:	f814 3b01 	ldrb.w	r3, [r4], #1
   84fe6:	4601      	mov	r1, r0
   84fe8:	3b30      	subs	r3, #48	; 0x30
   84fea:	220a      	movs	r2, #10
   84fec:	4638      	mov	r0, r7
   84fee:	f7ff ff7f 	bl	84ef0 <__multadd>
   84ff2:	42a6      	cmp	r6, r4
   84ff4:	d1f5      	bne.n	84fe2 <__s2b+0x6e>
   84ff6:	e8bd 83f8 	ldmia.w	sp!, {r3, r4, r5, r6, r7, r8, r9, pc}
   84ffa:	f04f 0809 	mov.w	r8, #9
   84ffe:	340a      	adds	r4, #10
   85000:	e7ea      	b.n	84fd8 <__s2b+0x64>
   85002:	2100      	movs	r1, #0
   85004:	e7ce      	b.n	84fa4 <__s2b+0x30>
   85006:	bf00      	nop
   85008:	38e38e39 	.word	0x38e38e39

0008500c <__hi0bits>:
   8500c:	0c02      	lsrs	r2, r0, #16
   8500e:	0412      	lsls	r2, r2, #16
   85010:	4603      	mov	r3, r0
   85012:	b9c2      	cbnz	r2, 85046 <__hi0bits+0x3a>
   85014:	0403      	lsls	r3, r0, #16
   85016:	2010      	movs	r0, #16
   85018:	f013 4f7f 	tst.w	r3, #4278190080	; 0xff000000
   8501c:	bf04      	itt	eq
   8501e:	021b      	lsleq	r3, r3, #8
   85020:	3008      	addeq	r0, #8
   85022:	f013 4f70 	tst.w	r3, #4026531840	; 0xf0000000
   85026:	bf04      	itt	eq
   85028:	011b      	lsleq	r3, r3, #4
   8502a:	3004      	addeq	r0, #4
   8502c:	f013 4f40 	tst.w	r3, #3221225472	; 0xc0000000
   85030:	bf04      	itt	eq
   85032:	009b      	lsleq	r3, r3, #2
   85034:	3002      	addeq	r0, #2
   85036:	2b00      	cmp	r3, #0
   85038:	db04      	blt.n	85044 <__hi0bits+0x38>
   8503a:	005b      	lsls	r3, r3, #1
   8503c:	d501      	bpl.n	85042 <__hi0bits+0x36>
   8503e:	3001      	adds	r0, #1
   85040:	4770      	bx	lr
   85042:	2020      	movs	r0, #32
   85044:	4770      	bx	lr
   85046:	2000      	movs	r0, #0
   85048:	e7e6      	b.n	85018 <__hi0bits+0xc>
   8504a:	bf00      	nop

0008504c <__lo0bits>:
   8504c:	6803      	ldr	r3, [r0, #0]
   8504e:	4601      	mov	r1, r0
   85050:	f013 0207 	ands.w	r2, r3, #7
   85054:	d007      	beq.n	85066 <__lo0bits+0x1a>
   85056:	07da      	lsls	r2, r3, #31
   85058:	d41f      	bmi.n	8509a <__lo0bits+0x4e>
   8505a:	0798      	lsls	r0, r3, #30
   8505c:	d51f      	bpl.n	8509e <__lo0bits+0x52>
   8505e:	085b      	lsrs	r3, r3, #1
   85060:	600b      	str	r3, [r1, #0]
   85062:	2001      	movs	r0, #1
   85064:	4770      	bx	lr
   85066:	b298      	uxth	r0, r3
   85068:	b1a0      	cbz	r0, 85094 <__lo0bits+0x48>
   8506a:	4610      	mov	r0, r2
   8506c:	f013 0fff 	tst.w	r3, #255	; 0xff
   85070:	bf04      	itt	eq
   85072:	0a1b      	lsreq	r3, r3, #8
   85074:	3008      	addeq	r0, #8
   85076:	071a      	lsls	r2, r3, #28
   85078:	bf04      	itt	eq
   8507a:	091b      	lsreq	r3, r3, #4
   8507c:	3004      	addeq	r0, #4
   8507e:	079a      	lsls	r2, r3, #30
   85080:	bf04      	itt	eq
   85082:	089b      	lsreq	r3, r3, #2
   85084:	3002      	addeq	r0, #2
   85086:	07da      	lsls	r2, r3, #31
   85088:	d402      	bmi.n	85090 <__lo0bits+0x44>
   8508a:	085b      	lsrs	r3, r3, #1
   8508c:	d00b      	beq.n	850a6 <__lo0bits+0x5a>
   8508e:	3001      	adds	r0, #1
   85090:	600b      	str	r3, [r1, #0]
   85092:	4770      	bx	lr
   85094:	0c1b      	lsrs	r3, r3, #16
   85096:	2010      	movs	r0, #16
   85098:	e7e8      	b.n	8506c <__lo0bits+0x20>
   8509a:	2000      	movs	r0, #0
   8509c:	4770      	bx	lr
   8509e:	089b      	lsrs	r3, r3, #2
   850a0:	600b      	str	r3, [r1, #0]
   850a2:	2002      	movs	r0, #2
   850a4:	4770      	bx	lr
   850a6:	2020      	movs	r0, #32
   850a8:	4770      	bx	lr
   850aa:	bf00      	nop

000850ac <__i2b>:
   850ac:	b510      	push	{r4, lr}
   850ae:	460c      	mov	r4, r1
   850b0:	2101      	movs	r1, #1
   850b2:	f7ff feed 	bl	84e90 <_Balloc>
   850b6:	2201      	movs	r2, #1
   850b8:	e9c0 2404 	strd	r2, r4, [r0, #16]
   850bc:	bd10      	pop	{r4, pc}
   850be:	bf00      	nop

000850c0 <__multiply>:
   850c0:	e92d 4ff0 	stmdb	sp!, {r4, r5, r6, r7, r8, r9, sl, fp, lr}
   850c4:	690d      	ldr	r5, [r1, #16]
   850c6:	6914      	ldr	r4, [r2, #16]
   850c8:	b085      	sub	sp, #20
   850ca:	42a5      	cmp	r5, r4
   850cc:	460e      	mov	r6, r1
   850ce:	4691      	mov	r9, r2
   850d0:	da04      	bge.n	850dc <__multiply+0x1c>
   850d2:	462a      	mov	r2, r5
   850d4:	464e      	mov	r6, r9
   850d6:	4625      	mov	r5, r4
   850d8:	4689      	mov	r9, r1
   850da:	4614      	mov	r4, r2
   850dc:	68b3      	ldr	r3, [r6, #8]
   850de:	eb05 0804 	add.w	r8, r5, r4
   850e2:	6871      	ldr	r1, [r6, #4]
   850e4:	4543      	cmp	r3, r8
   850e6:	bfb8      	it	lt
   850e8:	3101      	addlt	r1, #1
   850ea:	f7ff fed1 	bl	84e90 <_Balloc>
   850ee:	f100 0b14 	add.w	fp, r0, #20
   850f2:	eb0b 0a88 	add.w	sl, fp, r8, lsl #2
   850f6:	45d3      	cmp	fp, sl
   850f8:	9001      	str	r0, [sp, #4]
   850fa:	d205      	bcs.n	85108 <__multiply+0x48>
   850fc:	465b      	mov	r3, fp
   850fe:	2200      	movs	r2, #0
   85100:	f843 2b04 	str.w	r2, [r3], #4
   85104:	459a      	cmp	sl, r3
   85106:	d8fb      	bhi.n	85100 <__multiply+0x40>
   85108:	f109 0314 	add.w	r3, r9, #20
   8510c:	eb03 0484 	add.w	r4, r3, r4, lsl #2
   85110:	f106 0214 	add.w	r2, r6, #20
   85114:	42a3      	cmp	r3, r4
   85116:	eb02 0e85 	add.w	lr, r2, r5, lsl #2
   8511a:	d262      	bcs.n	851e2 <__multiply+0x122>
   8511c:	eba4 0409 	sub.w	r4, r4, r9
   85120:	3c15      	subs	r4, #21
   85122:	f024 0403 	bic.w	r4, r4, #3
   85126:	4423      	add	r3, r4
   85128:	e9cd a802 	strd	sl, r8, [sp, #8]
   8512c:	f109 0910 	add.w	r9, r9, #16
   85130:	4690      	mov	r8, r2
   85132:	469a      	mov	sl, r3
   85134:	e005      	b.n	85142 <__multiply+0x82>
   85136:	0c09      	lsrs	r1, r1, #16
   85138:	d12c      	bne.n	85194 <__multiply+0xd4>
   8513a:	45ca      	cmp	sl, r9
   8513c:	f10b 0b04 	add.w	fp, fp, #4
   85140:	d04d      	beq.n	851de <__multiply+0x11e>
   85142:	f859 1f04 	ldr.w	r1, [r9, #4]!
   85146:	fa1f fc81 	uxth.w	ip, r1
   8514a:	f1bc 0f00 	cmp.w	ip, #0
   8514e:	d0f2      	beq.n	85136 <__multiply+0x76>
   85150:	4647      	mov	r7, r8
   85152:	465e      	mov	r6, fp
   85154:	2100      	movs	r1, #0
   85156:	e000      	b.n	8515a <__multiply+0x9a>
   85158:	4606      	mov	r6, r0
   8515a:	4630      	mov	r0, r6
   8515c:	f857 2b04 	ldr.w	r2, [r7], #4
   85160:	6834      	ldr	r4, [r6, #0]
   85162:	b293      	uxth	r3, r2
   85164:	b2a5      	uxth	r5, r4
   85166:	0c12      	lsrs	r2, r2, #16
   85168:	fb0c 5303 	mla	r3, ip, r3, r5
   8516c:	0c24      	lsrs	r4, r4, #16
   8516e:	fb0c 4202 	mla	r2, ip, r2, r4
   85172:	440b      	add	r3, r1
   85174:	eb02 4113 	add.w	r1, r2, r3, lsr #16
   85178:	b29b      	uxth	r3, r3
   8517a:	ea43 4301 	orr.w	r3, r3, r1, lsl #16
   8517e:	45be      	cmp	lr, r7
   85180:	ea4f 4111 	mov.w	r1, r1, lsr #16
   85184:	f840 3b04 	str.w	r3, [r0], #4
   85188:	d8e6      	bhi.n	85158 <__multiply+0x98>
   8518a:	6071      	str	r1, [r6, #4]
   8518c:	f8d9 1000 	ldr.w	r1, [r9]
   85190:	0c09      	lsrs	r1, r1, #16
   85192:	d0d2      	beq.n	8513a <__multiply+0x7a>
   85194:	f8db 3000 	ldr.w	r3, [fp]
   85198:	4640      	mov	r0, r8
   8519a:	461e      	mov	r6, r3
   8519c:	465d      	mov	r5, fp
   8519e:	2200      	movs	r2, #0
   851a0:	e000      	b.n	851a4 <__multiply+0xe4>
   851a2:	4625      	mov	r5, r4
   851a4:	462c      	mov	r4, r5
   851a6:	8807      	ldrh	r7, [r0, #0]
   851a8:	0c36      	lsrs	r6, r6, #16
   851aa:	fb01 6607 	mla	r6, r1, r7, r6
   851ae:	b29b      	uxth	r3, r3
   851b0:	4432      	add	r2, r6
   851b2:	ea43 4302 	orr.w	r3, r3, r2, lsl #16
   851b6:	f844 3b04 	str.w	r3, [r4], #4
   851ba:	f850 3b04 	ldr.w	r3, [r0], #4
   851be:	686e      	ldr	r6, [r5, #4]
   851c0:	0c1b      	lsrs	r3, r3, #16
   851c2:	b2b7      	uxth	r7, r6
   851c4:	fb01 7303 	mla	r3, r1, r3, r7
   851c8:	4586      	cmp	lr, r0
   851ca:	eb03 4312 	add.w	r3, r3, r2, lsr #16
   851ce:	ea4f 4213 	mov.w	r2, r3, lsr #16
   851d2:	d8e6      	bhi.n	851a2 <__multiply+0xe2>
   851d4:	45ca      	cmp	sl, r9
   851d6:	606b      	str	r3, [r5, #4]
   851d8:	f10b 0b04 	add.w	fp, fp, #4
   851dc:	d1b1      	bne.n	85142 <__multiply+0x82>
   851de:	e9dd a802 	ldrd	sl, r8, [sp, #8]
   851e2:	f1b8 0f00 	cmp.w	r8, #0
   851e6:	dd0b      	ble.n	85200 <__multiply+0x140>
   851e8:	f85a 3c04 	ldr.w	r3, [sl, #-4]
   851ec:	f1aa 0a04 	sub.w	sl, sl, #4
   851f0:	b11b      	cbz	r3, 851fa <__multiply+0x13a>
   851f2:	e005      	b.n	85200 <__multiply+0x140>
   851f4:	f85a 3d04 	ldr.w	r3, [sl, #-4]!
   851f8:	b913      	cbnz	r3, 85200 <__multiply+0x140>
   851fa:	f1b8 0801 	subs.w	r8, r8, #1
   851fe:	d1f9      	bne.n	851f4 <__multiply+0x134>
   85200:	9801      	ldr	r0, [sp, #4]
   85202:	f8c0 8010 	str.w	r8, [r0, #16]
   85206:	b005      	add	sp, #20
   85208:	e8bd 8ff0 	ldmia.w	sp!, {r4, r5, r6, r7, r8, r9, sl, fp, pc}

0008520c <__pow5mult>:
   8520c:	f012 0303 	ands.w	r3, r2, #3
   85210:	e92d 41f0 	stmdb	sp!, {r4, r5, r6, r7, r8, lr}
   85214:	4614      	mov	r4, r2
   85216:	4607      	mov	r7, r0
   85218:	d12e      	bne.n	85278 <__pow5mult+0x6c>
   8521a:	460d      	mov	r5, r1
   8521c:	10a4      	asrs	r4, r4, #2
   8521e:	d01c      	beq.n	8525a <__pow5mult+0x4e>
   85220:	6cbe      	ldr	r6, [r7, #72]	; 0x48
   85222:	b396      	cbz	r6, 8528a <__pow5mult+0x7e>
   85224:	07e3      	lsls	r3, r4, #31
   85226:	f04f 0800 	mov.w	r8, #0
   8522a:	d406      	bmi.n	8523a <__pow5mult+0x2e>
   8522c:	1064      	asrs	r4, r4, #1
   8522e:	d014      	beq.n	8525a <__pow5mult+0x4e>
   85230:	6830      	ldr	r0, [r6, #0]
   85232:	b1a8      	cbz	r0, 85260 <__pow5mult+0x54>
   85234:	4606      	mov	r6, r0
   85236:	07e3      	lsls	r3, r4, #31
   85238:	d5f8      	bpl.n	8522c <__pow5mult+0x20>
   8523a:	4632      	mov	r2, r6
   8523c:	4629      	mov	r1, r5
   8523e:	4638      	mov	r0, r7
   85240:	f7ff ff3e 	bl	850c0 <__multiply>
   85244:	b1b5      	cbz	r5, 85274 <__pow5mult+0x68>
   85246:	686a      	ldr	r2, [r5, #4]
   85248:	6cfb      	ldr	r3, [r7, #76]	; 0x4c
   8524a:	1064      	asrs	r4, r4, #1
   8524c:	f853 1022 	ldr.w	r1, [r3, r2, lsl #2]
   85250:	6029      	str	r1, [r5, #0]
   85252:	f843 5022 	str.w	r5, [r3, r2, lsl #2]
   85256:	4605      	mov	r5, r0
   85258:	d1ea      	bne.n	85230 <__pow5mult+0x24>
   8525a:	4628      	mov	r0, r5
   8525c:	e8bd 81f0 	ldmia.w	sp!, {r4, r5, r6, r7, r8, pc}
   85260:	4632      	mov	r2, r6
   85262:	4631      	mov	r1, r6
   85264:	4638      	mov	r0, r7
   85266:	f7ff ff2b 	bl	850c0 <__multiply>
   8526a:	6030      	str	r0, [r6, #0]
   8526c:	f8c0 8000 	str.w	r8, [r0]
   85270:	4606      	mov	r6, r0
   85272:	e7e0      	b.n	85236 <__pow5mult+0x2a>
   85274:	4605      	mov	r5, r0
   85276:	e7d9      	b.n	8522c <__pow5mult+0x20>
   85278:	4a0b      	ldr	r2, [pc, #44]	; (852a8 <__pow5mult+0x9c>)
   8527a:	3b01      	subs	r3, #1
   8527c:	f852 2023 	ldr.w	r2, [r2, r3, lsl #2]
   85280:	2300      	movs	r3, #0
   85282:	f7ff fe35 	bl	84ef0 <__multadd>
   85286:	4605      	mov	r5, r0
   85288:	e7c8      	b.n	8521c <__pow5mult+0x10>
   8528a:	2101      	movs	r1, #1
   8528c:	4638      	mov	r0, r7
   8528e:	f7ff fdff 	bl	84e90 <_Balloc>
   85292:	f240 2171 	movw	r1, #625	; 0x271
   85296:	2201      	movs	r2, #1
   85298:	2300      	movs	r3, #0
   8529a:	e9c0 2104 	strd	r2, r1, [r0, #16]
   8529e:	4606      	mov	r6, r0
   852a0:	64b8      	str	r0, [r7, #72]	; 0x48
   852a2:	6003      	str	r3, [r0, #0]
   852a4:	e7be      	b.n	85224 <__pow5mult+0x18>
   852a6:	bf00      	nop
   852a8:	000870d0 	.word	0x000870d0

000852ac <__lshift>:
   852ac:	690b      	ldr	r3, [r1, #16]
   852ae:	e92d 47f0 	stmdb	sp!, {r4, r5, r6, r7, r8, r9, sl, lr}
   852b2:	1154      	asrs	r4, r2, #5
   852b4:	eb04 0803 	add.w	r8, r4, r3
   852b8:	688b      	ldr	r3, [r1, #8]
   852ba:	f108 0501 	add.w	r5, r8, #1
   852be:	429d      	cmp	r5, r3
   852c0:	460e      	mov	r6, r1
   852c2:	4691      	mov	r9, r2
   852c4:	4607      	mov	r7, r0
   852c6:	6849      	ldr	r1, [r1, #4]
   852c8:	dd04      	ble.n	852d4 <__lshift+0x28>
   852ca:	005b      	lsls	r3, r3, #1
   852cc:	429d      	cmp	r5, r3
   852ce:	f101 0101 	add.w	r1, r1, #1
   852d2:	dcfa      	bgt.n	852ca <__lshift+0x1e>
   852d4:	4638      	mov	r0, r7
   852d6:	f7ff fddb 	bl	84e90 <_Balloc>
   852da:	2c00      	cmp	r4, #0
   852dc:	f100 0314 	add.w	r3, r0, #20
   852e0:	dd3c      	ble.n	8535c <__lshift+0xb0>
   852e2:	2200      	movs	r2, #0
   852e4:	eb03 0184 	add.w	r1, r3, r4, lsl #2
   852e8:	f843 2b04 	str.w	r2, [r3], #4
   852ec:	428b      	cmp	r3, r1
   852ee:	d1fb      	bne.n	852e8 <__lshift+0x3c>
   852f0:	6934      	ldr	r4, [r6, #16]
   852f2:	f106 0314 	add.w	r3, r6, #20
   852f6:	f019 091f 	ands.w	r9, r9, #31
   852fa:	eb03 0c84 	add.w	ip, r3, r4, lsl #2
   852fe:	d025      	beq.n	8534c <__lshift+0xa0>
   85300:	f1c9 0220 	rsb	r2, r9, #32
   85304:	f04f 0a00 	mov.w	sl, #0
   85308:	e000      	b.n	8530c <__lshift+0x60>
   8530a:	4671      	mov	r1, lr
   8530c:	468e      	mov	lr, r1
   8530e:	681c      	ldr	r4, [r3, #0]
   85310:	fa04 f409 	lsl.w	r4, r4, r9
   85314:	ea44 040a 	orr.w	r4, r4, sl
   85318:	f84e 4b04 	str.w	r4, [lr], #4
   8531c:	f853 4b04 	ldr.w	r4, [r3], #4
   85320:	4563      	cmp	r3, ip
   85322:	fa24 fa02 	lsr.w	sl, r4, r2
   85326:	d3f0      	bcc.n	8530a <__lshift+0x5e>
   85328:	f8c1 a004 	str.w	sl, [r1, #4]
   8532c:	f1ba 0f00 	cmp.w	sl, #0
   85330:	d001      	beq.n	85336 <__lshift+0x8a>
   85332:	f108 0502 	add.w	r5, r8, #2
   85336:	6cfb      	ldr	r3, [r7, #76]	; 0x4c
   85338:	6872      	ldr	r2, [r6, #4]
   8533a:	3d01      	subs	r5, #1
   8533c:	f853 1022 	ldr.w	r1, [r3, r2, lsl #2]
   85340:	6105      	str	r5, [r0, #16]
   85342:	6031      	str	r1, [r6, #0]
   85344:	f843 6022 	str.w	r6, [r3, r2, lsl #2]
   85348:	e8bd 87f0 	ldmia.w	sp!, {r4, r5, r6, r7, r8, r9, sl, pc}
   8534c:	3904      	subs	r1, #4
   8534e:	f853 2b04 	ldr.w	r2, [r3], #4
   85352:	459c      	cmp	ip, r3
   85354:	f841 2f04 	str.w	r2, [r1, #4]!
   85358:	d8f9      	bhi.n	8534e <__lshift+0xa2>
   8535a:	e7ec      	b.n	85336 <__lshift+0x8a>
   8535c:	4619      	mov	r1, r3
   8535e:	e7c7      	b.n	852f0 <__lshift+0x44>

00085360 <__mcmp>:
   85360:	b430      	push	{r4, r5}
   85362:	690b      	ldr	r3, [r1, #16]
   85364:	4605      	mov	r5, r0
   85366:	6900      	ldr	r0, [r0, #16]
   85368:	1ac0      	subs	r0, r0, r3
   8536a:	d10f      	bne.n	8538c <__mcmp+0x2c>
   8536c:	009b      	lsls	r3, r3, #2
   8536e:	3514      	adds	r5, #20
   85370:	3114      	adds	r1, #20
   85372:	4419      	add	r1, r3
   85374:	442b      	add	r3, r5
   85376:	e001      	b.n	8537c <__mcmp+0x1c>
   85378:	429d      	cmp	r5, r3
   8537a:	d207      	bcs.n	8538c <__mcmp+0x2c>
   8537c:	f853 4d04 	ldr.w	r4, [r3, #-4]!
   85380:	f851 2d04 	ldr.w	r2, [r1, #-4]!
   85384:	4294      	cmp	r4, r2
   85386:	d0f7      	beq.n	85378 <__mcmp+0x18>
   85388:	d302      	bcc.n	85390 <__mcmp+0x30>
   8538a:	2001      	movs	r0, #1
   8538c:	bc30      	pop	{r4, r5}
   8538e:	4770      	bx	lr
   85390:	f04f 30ff 	mov.w	r0, #4294967295	; 0xffffffff
   85394:	e7fa      	b.n	8538c <__mcmp+0x2c>
   85396:	bf00      	nop

00085398 <__mdiff>:
   85398:	e92d 4ff8 	stmdb	sp!, {r3, r4, r5, r6, r7, r8, r9, sl, fp, lr}
   8539c:	690c      	ldr	r4, [r1, #16]
   8539e:	6913      	ldr	r3, [r2, #16]
   853a0:	4689      	mov	r9, r1
   853a2:	1ae4      	subs	r4, r4, r3
   853a4:	2c00      	cmp	r4, #0
   853a6:	4692      	mov	sl, r2
   853a8:	f101 0714 	add.w	r7, r1, #20
   853ac:	f102 0b14 	add.w	fp, r2, #20
   853b0:	d114      	bne.n	853dc <__mdiff+0x44>
   853b2:	009b      	lsls	r3, r3, #2
   853b4:	18fa      	adds	r2, r7, r3
   853b6:	445b      	add	r3, fp
   853b8:	e001      	b.n	853be <__mdiff+0x26>
   853ba:	42ba      	cmp	r2, r7
   853bc:	d962      	bls.n	85484 <__mdiff+0xec>
   853be:	f852 5d04 	ldr.w	r5, [r2, #-4]!
   853c2:	f853 1d04 	ldr.w	r1, [r3, #-4]!
   853c6:	428d      	cmp	r5, r1
   853c8:	d0f7      	beq.n	853ba <__mdiff+0x22>
   853ca:	d209      	bcs.n	853e0 <__mdiff+0x48>
   853cc:	463a      	mov	r2, r7
   853ce:	464b      	mov	r3, r9
   853d0:	465f      	mov	r7, fp
   853d2:	46d1      	mov	r9, sl
   853d4:	4693      	mov	fp, r2
   853d6:	469a      	mov	sl, r3
   853d8:	2401      	movs	r4, #1
   853da:	e001      	b.n	853e0 <__mdiff+0x48>
   853dc:	dbf6      	blt.n	853cc <__mdiff+0x34>
   853de:	2400      	movs	r4, #0
   853e0:	f8d9 1004 	ldr.w	r1, [r9, #4]
   853e4:	f7ff fd54 	bl	84e90 <_Balloc>
   853e8:	465e      	mov	r6, fp
   853ea:	f04f 0800 	mov.w	r8, #0
   853ee:	f8d9 c010 	ldr.w	ip, [r9, #16]
   853f2:	f8da 3010 	ldr.w	r3, [sl, #16]
   853f6:	463d      	mov	r5, r7
   853f8:	60c4      	str	r4, [r0, #12]
   853fa:	eb0b 0e83 	add.w	lr, fp, r3, lsl #2
   853fe:	eb07 078c 	add.w	r7, r7, ip, lsl #2
   85402:	f100 0414 	add.w	r4, r0, #20
   85406:	f855 9b04 	ldr.w	r9, [r5], #4
   8540a:	f856 2b04 	ldr.w	r2, [r6], #4
   8540e:	fa1f f389 	uxth.w	r3, r9
   85412:	4443      	add	r3, r8
   85414:	fa1f f882 	uxth.w	r8, r2
   85418:	0c12      	lsrs	r2, r2, #16
   8541a:	eba3 0308 	sub.w	r3, r3, r8
   8541e:	ebc2 4219 	rsb	r2, r2, r9, lsr #16
   85422:	eb02 4223 	add.w	r2, r2, r3, asr #16
   85426:	b29b      	uxth	r3, r3
   85428:	ea43 4302 	orr.w	r3, r3, r2, lsl #16
   8542c:	45b6      	cmp	lr, r6
   8542e:	f844 3b04 	str.w	r3, [r4], #4
   85432:	ea4f 4822 	mov.w	r8, r2, asr #16
   85436:	d8e6      	bhi.n	85406 <__mdiff+0x6e>
   85438:	42af      	cmp	r7, r5
   8543a:	d917      	bls.n	8546c <__mdiff+0xd4>
   8543c:	46a6      	mov	lr, r4
   8543e:	462e      	mov	r6, r5
   85440:	f856 3b04 	ldr.w	r3, [r6], #4
   85444:	b299      	uxth	r1, r3
   85446:	4441      	add	r1, r8
   85448:	140a      	asrs	r2, r1, #16
   8544a:	eb02 4213 	add.w	r2, r2, r3, lsr #16
   8544e:	b289      	uxth	r1, r1
   85450:	ea41 4302 	orr.w	r3, r1, r2, lsl #16
   85454:	42b7      	cmp	r7, r6
   85456:	f84e 3b04 	str.w	r3, [lr], #4
   8545a:	ea4f 4822 	mov.w	r8, r2, asr #16
   8545e:	d8ef      	bhi.n	85440 <__mdiff+0xa8>
   85460:	43ed      	mvns	r5, r5
   85462:	442f      	add	r7, r5
   85464:	f027 0703 	bic.w	r7, r7, #3
   85468:	3704      	adds	r7, #4
   8546a:	443c      	add	r4, r7
   8546c:	3c04      	subs	r4, #4
   8546e:	b92b      	cbnz	r3, 8547c <__mdiff+0xe4>
   85470:	f854 3d04 	ldr.w	r3, [r4, #-4]!
   85474:	f10c 3cff 	add.w	ip, ip, #4294967295	; 0xffffffff
   85478:	2b00      	cmp	r3, #0
   8547a:	d0f9      	beq.n	85470 <__mdiff+0xd8>
   8547c:	f8c0 c010 	str.w	ip, [r0, #16]
   85480:	e8bd 8ff8 	ldmia.w	sp!, {r3, r4, r5, r6, r7, r8, r9, sl, fp, pc}
   85484:	2100      	movs	r1, #0
   85486:	f7ff fd03 	bl	84e90 <_Balloc>
   8548a:	2201      	movs	r2, #1
   8548c:	2300      	movs	r3, #0
   8548e:	e9c0 2304 	strd	r2, r3, [r0, #16]
   85492:	e8bd 8ff8 	ldmia.w	sp!, {r3, r4, r5, r6, r7, r8, r9, sl, fp, pc}
   85496:	bf00      	nop

00085498 <__ulp>:
   85498:	4b0f      	ldr	r3, [pc, #60]	; (854d8 <__ulp+0x40>)
   8549a:	400b      	ands	r3, r1
   8549c:	f1a3 7350 	sub.w	r3, r3, #54525952	; 0x3400000
   854a0:	2b00      	cmp	r3, #0
   854a2:	dd02      	ble.n	854aa <__ulp+0x12>
   854a4:	2000      	movs	r0, #0
   854a6:	4619      	mov	r1, r3
   854a8:	4770      	bx	lr
   854aa:	425b      	negs	r3, r3
   854ac:	151b      	asrs	r3, r3, #20
   854ae:	2b13      	cmp	r3, #19
   854b0:	dd0b      	ble.n	854ca <__ulp+0x32>
   854b2:	3b14      	subs	r3, #20
   854b4:	2b1e      	cmp	r3, #30
   854b6:	bfd7      	itett	le
   854b8:	2201      	movle	r2, #1
   854ba:	2301      	movgt	r3, #1
   854bc:	f1c3 031f 	rsble	r3, r3, #31
   854c0:	fa02 f303 	lslle.w	r3, r2, r3
   854c4:	2100      	movs	r1, #0
   854c6:	4618      	mov	r0, r3
   854c8:	4770      	bx	lr
   854ca:	f44f 2200 	mov.w	r2, #524288	; 0x80000
   854ce:	2000      	movs	r0, #0
   854d0:	fa42 f103 	asr.w	r1, r2, r3
   854d4:	4770      	bx	lr
   854d6:	bf00      	nop
   854d8:	7ff00000 	.word	0x7ff00000

000854dc <__b2d>:
   854dc:	e92d 41f0 	stmdb	sp!, {r4, r5, r6, r7, r8, lr}
   854e0:	6907      	ldr	r7, [r0, #16]
   854e2:	f100 0614 	add.w	r6, r0, #20
   854e6:	eb06 0787 	add.w	r7, r6, r7, lsl #2
   854ea:	f857 8c04 	ldr.w	r8, [r7, #-4]
   854ee:	4640      	mov	r0, r8
   854f0:	f7ff fd8c 	bl	8500c <__hi0bits>
   854f4:	f1c0 0320 	rsb	r3, r0, #32
   854f8:	280a      	cmp	r0, #10
   854fa:	600b      	str	r3, [r1, #0]
   854fc:	f1a7 0204 	sub.w	r2, r7, #4
   85500:	dc18      	bgt.n	85534 <__b2d+0x58>
   85502:	4296      	cmp	r6, r2
   85504:	bf2c      	ite	cs
   85506:	2200      	movcs	r2, #0
   85508:	f857 2c08 	ldrcc.w	r2, [r7, #-8]
   8550c:	f1c0 030b 	rsb	r3, r0, #11
   85510:	fa28 f103 	lsr.w	r1, r8, r3
   85514:	bf38      	it	cc
   85516:	40da      	lsrcc	r2, r3
   85518:	f100 0315 	add.w	r3, r0, #21
   8551c:	f041 557f 	orr.w	r5, r1, #1069547520	; 0x3fc00000
   85520:	fa08 f303 	lsl.w	r3, r8, r3
   85524:	f445 1540 	orr.w	r5, r5, #3145728	; 0x300000
   85528:	ea43 0402 	orr.w	r4, r3, r2
   8552c:	4620      	mov	r0, r4
   8552e:	4629      	mov	r1, r5
   85530:	e8bd 81f0 	ldmia.w	sp!, {r4, r5, r6, r7, r8, pc}
   85534:	4296      	cmp	r6, r2
   85536:	f1a0 030b 	sub.w	r3, r0, #11
   8553a:	d21d      	bcs.n	85578 <__b2d+0x9c>
   8553c:	f857 0c08 	ldr.w	r0, [r7, #-8]
   85540:	b1e3      	cbz	r3, 8557c <__b2d+0xa0>
   85542:	fa08 f803 	lsl.w	r8, r8, r3
   85546:	f048 587f 	orr.w	r8, r8, #1069547520	; 0x3fc00000
   8554a:	f1c3 0120 	rsb	r1, r3, #32
   8554e:	f1a7 0208 	sub.w	r2, r7, #8
   85552:	fa20 fc01 	lsr.w	ip, r0, r1
   85556:	f448 1840 	orr.w	r8, r8, #3145728	; 0x300000
   8555a:	4296      	cmp	r6, r2
   8555c:	fa00 f003 	lsl.w	r0, r0, r3
   85560:	ea48 050c 	orr.w	r5, r8, ip
   85564:	d203      	bcs.n	8556e <__b2d+0x92>
   85566:	f857 3c0c 	ldr.w	r3, [r7, #-12]
   8556a:	40cb      	lsrs	r3, r1
   8556c:	4318      	orrs	r0, r3
   8556e:	4604      	mov	r4, r0
   85570:	4620      	mov	r0, r4
   85572:	4629      	mov	r1, r5
   85574:	e8bd 81f0 	ldmia.w	sp!, {r4, r5, r6, r7, r8, pc}
   85578:	b933      	cbnz	r3, 85588 <__b2d+0xac>
   8557a:	4618      	mov	r0, r3
   8557c:	f048 557f 	orr.w	r5, r8, #1069547520	; 0x3fc00000
   85580:	f445 1540 	orr.w	r5, r5, #3145728	; 0x300000
   85584:	4604      	mov	r4, r0
   85586:	e7f3      	b.n	85570 <__b2d+0x94>
   85588:	2000      	movs	r0, #0
   8558a:	fa08 f303 	lsl.w	r3, r8, r3
   8558e:	f043 557f 	orr.w	r5, r3, #1069547520	; 0x3fc00000
   85592:	f445 1540 	orr.w	r5, r5, #3145728	; 0x300000
   85596:	4604      	mov	r4, r0
   85598:	e7ea      	b.n	85570 <__b2d+0x94>
   8559a:	bf00      	nop

0008559c <__d2b>:
   8559c:	e92d 41f0 	stmdb	sp!, {r4, r5, r6, r7, r8, lr}
   855a0:	461c      	mov	r4, r3
   855a2:	b082      	sub	sp, #8
   855a4:	2101      	movs	r1, #1
   855a6:	e9dd 6508 	ldrd	r6, r5, [sp, #32]
   855aa:	4690      	mov	r8, r2
   855ac:	f7ff fc70 	bl	84e90 <_Balloc>
   855b0:	4623      	mov	r3, r4
   855b2:	f3c4 540a 	ubfx	r4, r4, #20, #11
   855b6:	4607      	mov	r7, r0
   855b8:	f3c3 0313 	ubfx	r3, r3, #0, #20
   855bc:	b10c      	cbz	r4, 855c2 <__d2b+0x26>
   855be:	f443 1380 	orr.w	r3, r3, #1048576	; 0x100000
   855c2:	f1b8 0200 	subs.w	r2, r8, #0
   855c6:	9301      	str	r3, [sp, #4]
   855c8:	d01e      	beq.n	85608 <__d2b+0x6c>
   855ca:	a802      	add	r0, sp, #8
   855cc:	f840 2d08 	str.w	r2, [r0, #-8]!
   855d0:	f7ff fd3c 	bl	8504c <__lo0bits>
   855d4:	bb70      	cbnz	r0, 85634 <__d2b+0x98>
   855d6:	e9dd 2300 	ldrd	r2, r3, [sp]
   855da:	617a      	str	r2, [r7, #20]
   855dc:	2b00      	cmp	r3, #0
   855de:	bf0c      	ite	eq
   855e0:	2101      	moveq	r1, #1
   855e2:	2102      	movne	r1, #2
   855e4:	61bb      	str	r3, [r7, #24]
   855e6:	6139      	str	r1, [r7, #16]
   855e8:	b9cc      	cbnz	r4, 8561e <__d2b+0x82>
   855ea:	eb07 0381 	add.w	r3, r7, r1, lsl #2
   855ee:	f2a0 4032 	subw	r0, r0, #1074	; 0x432
   855f2:	6030      	str	r0, [r6, #0]
   855f4:	6918      	ldr	r0, [r3, #16]
   855f6:	f7ff fd09 	bl	8500c <__hi0bits>
   855fa:	ebc0 1041 	rsb	r0, r0, r1, lsl #5
   855fe:	6028      	str	r0, [r5, #0]
   85600:	4638      	mov	r0, r7
   85602:	b002      	add	sp, #8
   85604:	e8bd 81f0 	ldmia.w	sp!, {r4, r5, r6, r7, r8, pc}
   85608:	a801      	add	r0, sp, #4
   8560a:	f7ff fd1f 	bl	8504c <__lo0bits>
   8560e:	2201      	movs	r2, #1
   85610:	9b01      	ldr	r3, [sp, #4]
   85612:	4611      	mov	r1, r2
   85614:	3020      	adds	r0, #32
   85616:	e9c7 2304 	strd	r2, r3, [r7, #16]
   8561a:	2c00      	cmp	r4, #0
   8561c:	d0e5      	beq.n	855ea <__d2b+0x4e>
   8561e:	f2a4 4333 	subw	r3, r4, #1075	; 0x433
   85622:	4403      	add	r3, r0
   85624:	f1c0 0035 	rsb	r0, r0, #53	; 0x35
   85628:	6033      	str	r3, [r6, #0]
   8562a:	6028      	str	r0, [r5, #0]
   8562c:	4638      	mov	r0, r7
   8562e:	b002      	add	sp, #8
   85630:	e8bd 81f0 	ldmia.w	sp!, {r4, r5, r6, r7, r8, pc}
   85634:	9b01      	ldr	r3, [sp, #4]
   85636:	f1c0 0220 	rsb	r2, r0, #32
   8563a:	9900      	ldr	r1, [sp, #0]
   8563c:	fa03 f202 	lsl.w	r2, r3, r2
   85640:	430a      	orrs	r2, r1
   85642:	40c3      	lsrs	r3, r0
   85644:	9301      	str	r3, [sp, #4]
   85646:	617a      	str	r2, [r7, #20]
   85648:	e7c8      	b.n	855dc <__d2b+0x40>
   8564a:	bf00      	nop

0008564c <__ratio>:
   8564c:	e92d 43f0 	stmdb	sp!, {r4, r5, r6, r7, r8, r9, lr}
   85650:	b083      	sub	sp, #12
   85652:	460f      	mov	r7, r1
   85654:	4669      	mov	r1, sp
   85656:	4606      	mov	r6, r0
   85658:	f7ff ff40 	bl	854dc <__b2d>
   8565c:	4604      	mov	r4, r0
   8565e:	460d      	mov	r5, r1
   85660:	4638      	mov	r0, r7
   85662:	a901      	add	r1, sp, #4
   85664:	f7ff ff3a 	bl	854dc <__b2d>
   85668:	6936      	ldr	r6, [r6, #16]
   8566a:	693a      	ldr	r2, [r7, #16]
   8566c:	4689      	mov	r9, r1
   8566e:	e9dd 1300 	ldrd	r1, r3, [sp]
   85672:	1ab6      	subs	r6, r6, r2
   85674:	1acb      	subs	r3, r1, r3
   85676:	eb03 1346 	add.w	r3, r3, r6, lsl #5
   8567a:	2b00      	cmp	r3, #0
   8567c:	4680      	mov	r8, r0
   8567e:	dd0b      	ble.n	85698 <__ratio+0x4c>
   85680:	eb05 5703 	add.w	r7, r5, r3, lsl #20
   85684:	463d      	mov	r5, r7
   85686:	4642      	mov	r2, r8
   85688:	464b      	mov	r3, r9
   8568a:	4620      	mov	r0, r4
   8568c:	4629      	mov	r1, r5
   8568e:	f001 fb21 	bl	86cd4 <__aeabi_ddiv>
   85692:	b003      	add	sp, #12
   85694:	e8bd 83f0 	ldmia.w	sp!, {r4, r5, r6, r7, r8, r9, pc}
   85698:	ebc3 3303 	rsb	r3, r3, r3, lsl #12
   8569c:	eb09 5103 	add.w	r1, r9, r3, lsl #20
   856a0:	4689      	mov	r9, r1
   856a2:	e7f0      	b.n	85686 <__ratio+0x3a>

000856a4 <_mprec_log10>:
   856a4:	2817      	cmp	r0, #23
   856a6:	b5d0      	push	{r4, r6, r7, lr}
   856a8:	4604      	mov	r4, r0
   856aa:	dd0a      	ble.n	856c2 <_mprec_log10+0x1e>
   856ac:	2000      	movs	r0, #0
   856ae:	2600      	movs	r6, #0
   856b0:	4907      	ldr	r1, [pc, #28]	; (856d0 <_mprec_log10+0x2c>)
   856b2:	4f08      	ldr	r7, [pc, #32]	; (856d4 <_mprec_log10+0x30>)
   856b4:	4632      	mov	r2, r6
   856b6:	463b      	mov	r3, r7
   856b8:	f001 f9e2 	bl	86a80 <__aeabi_dmul>
   856bc:	3c01      	subs	r4, #1
   856be:	d1f9      	bne.n	856b4 <_mprec_log10+0x10>
   856c0:	bdd0      	pop	{r4, r6, r7, pc}
   856c2:	4b05      	ldr	r3, [pc, #20]	; (856d8 <_mprec_log10+0x34>)
   856c4:	eb03 04c0 	add.w	r4, r3, r0, lsl #3
   856c8:	e9d4 0104 	ldrd	r0, r1, [r4, #16]
   856cc:	bdd0      	pop	{r4, r6, r7, pc}
   856ce:	bf00      	nop
   856d0:	3ff00000 	.word	0x3ff00000
   856d4:	40240000 	.word	0x40240000
   856d8:	000870d0 	.word	0x000870d0

000856dc <__copybits>:
   856dc:	b470      	push	{r4, r5, r6}
   856de:	6914      	ldr	r4, [r2, #16]
   856e0:	1e4d      	subs	r5, r1, #1
   856e2:	f102 0314 	add.w	r3, r2, #20
   856e6:	eb03 0184 	add.w	r1, r3, r4, lsl #2
   856ea:	116d      	asrs	r5, r5, #5
   856ec:	3501      	adds	r5, #1
   856ee:	428b      	cmp	r3, r1
   856f0:	eb00 0485 	add.w	r4, r0, r5, lsl #2
   856f4:	d20c      	bcs.n	85710 <__copybits+0x34>
   856f6:	1f05      	subs	r5, r0, #4
   856f8:	f853 6b04 	ldr.w	r6, [r3], #4
   856fc:	4299      	cmp	r1, r3
   856fe:	f845 6f04 	str.w	r6, [r5, #4]!
   85702:	d8f9      	bhi.n	856f8 <__copybits+0x1c>
   85704:	1a8b      	subs	r3, r1, r2
   85706:	3b15      	subs	r3, #21
   85708:	f023 0303 	bic.w	r3, r3, #3
   8570c:	3304      	adds	r3, #4
   8570e:	4418      	add	r0, r3
   85710:	4284      	cmp	r4, r0
   85712:	d904      	bls.n	8571e <__copybits+0x42>
   85714:	2300      	movs	r3, #0
   85716:	f840 3b04 	str.w	r3, [r0], #4
   8571a:	4284      	cmp	r4, r0
   8571c:	d8fb      	bhi.n	85716 <__copybits+0x3a>
   8571e:	bc70      	pop	{r4, r5, r6}
   85720:	4770      	bx	lr
   85722:	bf00      	nop

00085724 <__any_on>:
   85724:	6903      	ldr	r3, [r0, #16]
   85726:	b410      	push	{r4}
   85728:	114c      	asrs	r4, r1, #5
   8572a:	42a3      	cmp	r3, r4
   8572c:	f100 0214 	add.w	r2, r0, #20
   85730:	da0f      	bge.n	85752 <__any_on+0x2e>
   85732:	eb02 0383 	add.w	r3, r2, r3, lsl #2
   85736:	429a      	cmp	r2, r3
   85738:	d21c      	bcs.n	85774 <__any_on+0x50>
   8573a:	f853 0c04 	ldr.w	r0, [r3, #-4]
   8573e:	3b04      	subs	r3, #4
   85740:	b118      	cbz	r0, 8574a <__any_on+0x26>
   85742:	e014      	b.n	8576e <__any_on+0x4a>
   85744:	f853 1d04 	ldr.w	r1, [r3, #-4]!
   85748:	b989      	cbnz	r1, 8576e <__any_on+0x4a>
   8574a:	429a      	cmp	r2, r3
   8574c:	d3fa      	bcc.n	85744 <__any_on+0x20>
   8574e:	bc10      	pop	{r4}
   85750:	4770      	bx	lr
   85752:	eb02 0384 	add.w	r3, r2, r4, lsl #2
   85756:	ddee      	ble.n	85736 <__any_on+0x12>
   85758:	f011 011f 	ands.w	r1, r1, #31
   8575c:	d0eb      	beq.n	85736 <__any_on+0x12>
   8575e:	f852 4024 	ldr.w	r4, [r2, r4, lsl #2]
   85762:	fa24 f001 	lsr.w	r0, r4, r1
   85766:	fa00 f101 	lsl.w	r1, r0, r1
   8576a:	428c      	cmp	r4, r1
   8576c:	d0e3      	beq.n	85736 <__any_on+0x12>
   8576e:	2001      	movs	r0, #1
   85770:	bc10      	pop	{r4}
   85772:	4770      	bx	lr
   85774:	2000      	movs	r0, #0
   85776:	e7ea      	b.n	8574e <__any_on+0x2a>

00085778 <_realloc_r>:
   85778:	e92d 4ff0 	stmdb	sp!, {r4, r5, r6, r7, r8, r9, sl, fp, lr}
   8577c:	4692      	mov	sl, r2
   8577e:	b083      	sub	sp, #12
   85780:	2900      	cmp	r1, #0
   85782:	f000 80a1 	beq.w	858c8 <_realloc_r+0x150>
   85786:	460d      	mov	r5, r1
   85788:	4680      	mov	r8, r0
   8578a:	f10a 040b 	add.w	r4, sl, #11
   8578e:	f7ff fb7b 	bl	84e88 <__malloc_lock>
   85792:	f855 2c04 	ldr.w	r2, [r5, #-4]
   85796:	2c16      	cmp	r4, #22
   85798:	f022 0603 	bic.w	r6, r2, #3
   8579c:	f1a5 0708 	sub.w	r7, r5, #8
   857a0:	d83e      	bhi.n	85820 <_realloc_r+0xa8>
   857a2:	2410      	movs	r4, #16
   857a4:	4621      	mov	r1, r4
   857a6:	45a2      	cmp	sl, r4
   857a8:	d83f      	bhi.n	8582a <_realloc_r+0xb2>
   857aa:	428e      	cmp	r6, r1
   857ac:	eb07 0906 	add.w	r9, r7, r6
   857b0:	da74      	bge.n	8589c <_realloc_r+0x124>
   857b2:	4bc8      	ldr	r3, [pc, #800]	; (85ad4 <_realloc_r+0x35c>)
   857b4:	6898      	ldr	r0, [r3, #8]
   857b6:	4548      	cmp	r0, r9
   857b8:	f000 80aa 	beq.w	85910 <_realloc_r+0x198>
   857bc:	f8d9 0004 	ldr.w	r0, [r9, #4]
   857c0:	f020 0301 	bic.w	r3, r0, #1
   857c4:	444b      	add	r3, r9
   857c6:	685b      	ldr	r3, [r3, #4]
   857c8:	07db      	lsls	r3, r3, #31
   857ca:	f140 8083 	bpl.w	858d4 <_realloc_r+0x15c>
   857ce:	07d2      	lsls	r2, r2, #31
   857d0:	d534      	bpl.n	8583c <_realloc_r+0xc4>
   857d2:	4651      	mov	r1, sl
   857d4:	4640      	mov	r0, r8
   857d6:	f7fe ff75 	bl	846c4 <_malloc_r>
   857da:	4682      	mov	sl, r0
   857dc:	b1e0      	cbz	r0, 85818 <_realloc_r+0xa0>
   857de:	f855 3c04 	ldr.w	r3, [r5, #-4]
   857e2:	f1a0 0208 	sub.w	r2, r0, #8
   857e6:	f023 0301 	bic.w	r3, r3, #1
   857ea:	443b      	add	r3, r7
   857ec:	4293      	cmp	r3, r2
   857ee:	f000 810e 	beq.w	85a0e <_realloc_r+0x296>
   857f2:	1f32      	subs	r2, r6, #4
   857f4:	2a24      	cmp	r2, #36	; 0x24
   857f6:	f200 8114 	bhi.w	85a22 <_realloc_r+0x2aa>
   857fa:	2a13      	cmp	r2, #19
   857fc:	6829      	ldr	r1, [r5, #0]
   857fe:	f200 80fb 	bhi.w	859f8 <_realloc_r+0x280>
   85802:	4603      	mov	r3, r0
   85804:	462a      	mov	r2, r5
   85806:	6019      	str	r1, [r3, #0]
   85808:	6851      	ldr	r1, [r2, #4]
   8580a:	6059      	str	r1, [r3, #4]
   8580c:	6892      	ldr	r2, [r2, #8]
   8580e:	609a      	str	r2, [r3, #8]
   85810:	4629      	mov	r1, r5
   85812:	4640      	mov	r0, r8
   85814:	f7fe fe58 	bl	844c8 <_free_r>
   85818:	4640      	mov	r0, r8
   8581a:	f7ff fb37 	bl	84e8c <__malloc_unlock>
   8581e:	e04f      	b.n	858c0 <_realloc_r+0x148>
   85820:	f024 0407 	bic.w	r4, r4, #7
   85824:	2c00      	cmp	r4, #0
   85826:	4621      	mov	r1, r4
   85828:	dabd      	bge.n	857a6 <_realloc_r+0x2e>
   8582a:	f04f 0a00 	mov.w	sl, #0
   8582e:	230c      	movs	r3, #12
   85830:	4650      	mov	r0, sl
   85832:	f8c8 3000 	str.w	r3, [r8]
   85836:	b003      	add	sp, #12
   85838:	e8bd 8ff0 	ldmia.w	sp!, {r4, r5, r6, r7, r8, r9, sl, fp, pc}
   8583c:	f855 3c08 	ldr.w	r3, [r5, #-8]
   85840:	eba7 0b03 	sub.w	fp, r7, r3
   85844:	f8db 2004 	ldr.w	r2, [fp, #4]
   85848:	f022 0203 	bic.w	r2, r2, #3
   8584c:	18b3      	adds	r3, r6, r2
   8584e:	428b      	cmp	r3, r1
   85850:	dbbf      	blt.n	857d2 <_realloc_r+0x5a>
   85852:	46da      	mov	sl, fp
   85854:	f8db 100c 	ldr.w	r1, [fp, #12]
   85858:	f85a 0f08 	ldr.w	r0, [sl, #8]!
   8585c:	1f32      	subs	r2, r6, #4
   8585e:	2a24      	cmp	r2, #36	; 0x24
   85860:	60c1      	str	r1, [r0, #12]
   85862:	eb0b 0903 	add.w	r9, fp, r3
   85866:	6088      	str	r0, [r1, #8]
   85868:	f200 80be 	bhi.w	859e8 <_realloc_r+0x270>
   8586c:	2a13      	cmp	r2, #19
   8586e:	6829      	ldr	r1, [r5, #0]
   85870:	f240 80d5 	bls.w	85a1e <_realloc_r+0x2a6>
   85874:	f8cb 1008 	str.w	r1, [fp, #8]
   85878:	6869      	ldr	r1, [r5, #4]
   8587a:	2a1b      	cmp	r2, #27
   8587c:	f8cb 100c 	str.w	r1, [fp, #12]
   85880:	68a9      	ldr	r1, [r5, #8]
   85882:	f200 80e5 	bhi.w	85a50 <_realloc_r+0x2d8>
   85886:	f10b 0210 	add.w	r2, fp, #16
   8588a:	3508      	adds	r5, #8
   8588c:	6011      	str	r1, [r2, #0]
   8588e:	6869      	ldr	r1, [r5, #4]
   85890:	461e      	mov	r6, r3
   85892:	6051      	str	r1, [r2, #4]
   85894:	68ab      	ldr	r3, [r5, #8]
   85896:	465f      	mov	r7, fp
   85898:	4655      	mov	r5, sl
   8589a:	6093      	str	r3, [r2, #8]
   8589c:	687a      	ldr	r2, [r7, #4]
   8589e:	1b33      	subs	r3, r6, r4
   858a0:	2b0f      	cmp	r3, #15
   858a2:	f002 0201 	and.w	r2, r2, #1
   858a6:	d822      	bhi.n	858ee <_realloc_r+0x176>
   858a8:	4332      	orrs	r2, r6
   858aa:	607a      	str	r2, [r7, #4]
   858ac:	f8d9 3004 	ldr.w	r3, [r9, #4]
   858b0:	f043 0301 	orr.w	r3, r3, #1
   858b4:	f8c9 3004 	str.w	r3, [r9, #4]
   858b8:	4640      	mov	r0, r8
   858ba:	f7ff fae7 	bl	84e8c <__malloc_unlock>
   858be:	46aa      	mov	sl, r5
   858c0:	4650      	mov	r0, sl
   858c2:	b003      	add	sp, #12
   858c4:	e8bd 8ff0 	ldmia.w	sp!, {r4, r5, r6, r7, r8, r9, sl, fp, pc}
   858c8:	4611      	mov	r1, r2
   858ca:	b003      	add	sp, #12
   858cc:	e8bd 4ff0 	ldmia.w	sp!, {r4, r5, r6, r7, r8, r9, sl, fp, lr}
   858d0:	f7fe bef8 	b.w	846c4 <_malloc_r>
   858d4:	f020 0003 	bic.w	r0, r0, #3
   858d8:	1833      	adds	r3, r6, r0
   858da:	428b      	cmp	r3, r1
   858dc:	db63      	blt.n	859a6 <_realloc_r+0x22e>
   858de:	e9d9 1202 	ldrd	r1, r2, [r9, #8]
   858e2:	461e      	mov	r6, r3
   858e4:	60ca      	str	r2, [r1, #12]
   858e6:	eb07 0903 	add.w	r9, r7, r3
   858ea:	6091      	str	r1, [r2, #8]
   858ec:	e7d6      	b.n	8589c <_realloc_r+0x124>
   858ee:	1939      	adds	r1, r7, r4
   858f0:	4322      	orrs	r2, r4
   858f2:	f043 0301 	orr.w	r3, r3, #1
   858f6:	607a      	str	r2, [r7, #4]
   858f8:	604b      	str	r3, [r1, #4]
   858fa:	f8d9 3004 	ldr.w	r3, [r9, #4]
   858fe:	3108      	adds	r1, #8
   85900:	f043 0301 	orr.w	r3, r3, #1
   85904:	f8c9 3004 	str.w	r3, [r9, #4]
   85908:	4640      	mov	r0, r8
   8590a:	f7fe fddd 	bl	844c8 <_free_r>
   8590e:	e7d3      	b.n	858b8 <_realloc_r+0x140>
   85910:	f8d0 9004 	ldr.w	r9, [r0, #4]
   85914:	f104 0010 	add.w	r0, r4, #16
   85918:	f029 0903 	bic.w	r9, r9, #3
   8591c:	44b1      	add	r9, r6
   8591e:	4581      	cmp	r9, r0
   85920:	f280 8083 	bge.w	85a2a <_realloc_r+0x2b2>
   85924:	07d2      	lsls	r2, r2, #31
   85926:	f53f af54 	bmi.w	857d2 <_realloc_r+0x5a>
   8592a:	f855 2c08 	ldr.w	r2, [r5, #-8]
   8592e:	eba7 0b02 	sub.w	fp, r7, r2
   85932:	f8db 2004 	ldr.w	r2, [fp, #4]
   85936:	f022 0203 	bic.w	r2, r2, #3
   8593a:	4491      	add	r9, r2
   8593c:	4548      	cmp	r0, r9
   8593e:	dc85      	bgt.n	8584c <_realloc_r+0xd4>
   85940:	46da      	mov	sl, fp
   85942:	f8db 100c 	ldr.w	r1, [fp, #12]
   85946:	f85a 0f08 	ldr.w	r0, [sl, #8]!
   8594a:	1f32      	subs	r2, r6, #4
   8594c:	2a24      	cmp	r2, #36	; 0x24
   8594e:	60c1      	str	r1, [r0, #12]
   85950:	6088      	str	r0, [r1, #8]
   85952:	f200 80ab 	bhi.w	85aac <_realloc_r+0x334>
   85956:	2a13      	cmp	r2, #19
   85958:	6829      	ldr	r1, [r5, #0]
   8595a:	f240 80a5 	bls.w	85aa8 <_realloc_r+0x330>
   8595e:	f8cb 1008 	str.w	r1, [fp, #8]
   85962:	6869      	ldr	r1, [r5, #4]
   85964:	2a1b      	cmp	r2, #27
   85966:	f8cb 100c 	str.w	r1, [fp, #12]
   8596a:	68a9      	ldr	r1, [r5, #8]
   8596c:	f200 80a5 	bhi.w	85aba <_realloc_r+0x342>
   85970:	f10b 0210 	add.w	r2, fp, #16
   85974:	3508      	adds	r5, #8
   85976:	6011      	str	r1, [r2, #0]
   85978:	6869      	ldr	r1, [r5, #4]
   8597a:	6051      	str	r1, [r2, #4]
   8597c:	68a9      	ldr	r1, [r5, #8]
   8597e:	6091      	str	r1, [r2, #8]
   85980:	eba9 0204 	sub.w	r2, r9, r4
   85984:	eb0b 0104 	add.w	r1, fp, r4
   85988:	f042 0201 	orr.w	r2, r2, #1
   8598c:	6099      	str	r1, [r3, #8]
   8598e:	604a      	str	r2, [r1, #4]
   85990:	f8db 3004 	ldr.w	r3, [fp, #4]
   85994:	4640      	mov	r0, r8
   85996:	f003 0301 	and.w	r3, r3, #1
   8599a:	431c      	orrs	r4, r3
   8599c:	f8cb 4004 	str.w	r4, [fp, #4]
   859a0:	f7ff fa74 	bl	84e8c <__malloc_unlock>
   859a4:	e78c      	b.n	858c0 <_realloc_r+0x148>
   859a6:	07d3      	lsls	r3, r2, #31
   859a8:	f53f af13 	bmi.w	857d2 <_realloc_r+0x5a>
   859ac:	f855 3c08 	ldr.w	r3, [r5, #-8]
   859b0:	eba7 0b03 	sub.w	fp, r7, r3
   859b4:	f8db 2004 	ldr.w	r2, [fp, #4]
   859b8:	f022 0203 	bic.w	r2, r2, #3
   859bc:	4410      	add	r0, r2
   859be:	1983      	adds	r3, r0, r6
   859c0:	428b      	cmp	r3, r1
   859c2:	f6ff af43 	blt.w	8584c <_realloc_r+0xd4>
   859c6:	e9d9 0102 	ldrd	r0, r1, [r9, #8]
   859ca:	46da      	mov	sl, fp
   859cc:	60c1      	str	r1, [r0, #12]
   859ce:	6088      	str	r0, [r1, #8]
   859d0:	f85a 0f08 	ldr.w	r0, [sl, #8]!
   859d4:	f8db 100c 	ldr.w	r1, [fp, #12]
   859d8:	1f32      	subs	r2, r6, #4
   859da:	2a24      	cmp	r2, #36	; 0x24
   859dc:	60c1      	str	r1, [r0, #12]
   859de:	eb0b 0903 	add.w	r9, fp, r3
   859e2:	6088      	str	r0, [r1, #8]
   859e4:	f67f af42 	bls.w	8586c <_realloc_r+0xf4>
   859e8:	4629      	mov	r1, r5
   859ea:	4650      	mov	r0, sl
   859ec:	461e      	mov	r6, r3
   859ee:	465f      	mov	r7, fp
   859f0:	f7ff f9e8 	bl	84dc4 <memmove>
   859f4:	4655      	mov	r5, sl
   859f6:	e751      	b.n	8589c <_realloc_r+0x124>
   859f8:	6001      	str	r1, [r0, #0]
   859fa:	686b      	ldr	r3, [r5, #4]
   859fc:	2a1b      	cmp	r2, #27
   859fe:	6043      	str	r3, [r0, #4]
   85a00:	d832      	bhi.n	85a68 <_realloc_r+0x2f0>
   85a02:	f105 0208 	add.w	r2, r5, #8
   85a06:	f100 0308 	add.w	r3, r0, #8
   85a0a:	68a9      	ldr	r1, [r5, #8]
   85a0c:	e6fb      	b.n	85806 <_realloc_r+0x8e>
   85a0e:	f850 3c04 	ldr.w	r3, [r0, #-4]
   85a12:	f023 0303 	bic.w	r3, r3, #3
   85a16:	441e      	add	r6, r3
   85a18:	eb07 0906 	add.w	r9, r7, r6
   85a1c:	e73e      	b.n	8589c <_realloc_r+0x124>
   85a1e:	4652      	mov	r2, sl
   85a20:	e734      	b.n	8588c <_realloc_r+0x114>
   85a22:	4629      	mov	r1, r5
   85a24:	f7ff f9ce 	bl	84dc4 <memmove>
   85a28:	e6f2      	b.n	85810 <_realloc_r+0x98>
   85a2a:	eba9 0904 	sub.w	r9, r9, r4
   85a2e:	4427      	add	r7, r4
   85a30:	f049 0201 	orr.w	r2, r9, #1
   85a34:	609f      	str	r7, [r3, #8]
   85a36:	607a      	str	r2, [r7, #4]
   85a38:	f855 3c04 	ldr.w	r3, [r5, #-4]
   85a3c:	4640      	mov	r0, r8
   85a3e:	f003 0301 	and.w	r3, r3, #1
   85a42:	431c      	orrs	r4, r3
   85a44:	f845 4c04 	str.w	r4, [r5, #-4]
   85a48:	f7ff fa20 	bl	84e8c <__malloc_unlock>
   85a4c:	46aa      	mov	sl, r5
   85a4e:	e737      	b.n	858c0 <_realloc_r+0x148>
   85a50:	f8cb 1010 	str.w	r1, [fp, #16]
   85a54:	68e9      	ldr	r1, [r5, #12]
   85a56:	2a24      	cmp	r2, #36	; 0x24
   85a58:	f8cb 1014 	str.w	r1, [fp, #20]
   85a5c:	6929      	ldr	r1, [r5, #16]
   85a5e:	d00f      	beq.n	85a80 <_realloc_r+0x308>
   85a60:	f10b 0218 	add.w	r2, fp, #24
   85a64:	3510      	adds	r5, #16
   85a66:	e711      	b.n	8588c <_realloc_r+0x114>
   85a68:	68ab      	ldr	r3, [r5, #8]
   85a6a:	2a24      	cmp	r2, #36	; 0x24
   85a6c:	6083      	str	r3, [r0, #8]
   85a6e:	68eb      	ldr	r3, [r5, #12]
   85a70:	60c3      	str	r3, [r0, #12]
   85a72:	d00f      	beq.n	85a94 <_realloc_r+0x31c>
   85a74:	f105 0210 	add.w	r2, r5, #16
   85a78:	f100 0310 	add.w	r3, r0, #16
   85a7c:	6929      	ldr	r1, [r5, #16]
   85a7e:	e6c2      	b.n	85806 <_realloc_r+0x8e>
   85a80:	f8cb 1018 	str.w	r1, [fp, #24]
   85a84:	6969      	ldr	r1, [r5, #20]
   85a86:	f10b 0220 	add.w	r2, fp, #32
   85a8a:	f8cb 101c 	str.w	r1, [fp, #28]
   85a8e:	69a9      	ldr	r1, [r5, #24]
   85a90:	3518      	adds	r5, #24
   85a92:	e6fb      	b.n	8588c <_realloc_r+0x114>
   85a94:	692b      	ldr	r3, [r5, #16]
   85a96:	f105 0218 	add.w	r2, r5, #24
   85a9a:	6103      	str	r3, [r0, #16]
   85a9c:	6969      	ldr	r1, [r5, #20]
   85a9e:	f100 0318 	add.w	r3, r0, #24
   85aa2:	6141      	str	r1, [r0, #20]
   85aa4:	69a9      	ldr	r1, [r5, #24]
   85aa6:	e6ae      	b.n	85806 <_realloc_r+0x8e>
   85aa8:	4652      	mov	r2, sl
   85aaa:	e764      	b.n	85976 <_realloc_r+0x1fe>
   85aac:	4629      	mov	r1, r5
   85aae:	4650      	mov	r0, sl
   85ab0:	9301      	str	r3, [sp, #4]
   85ab2:	f7ff f987 	bl	84dc4 <memmove>
   85ab6:	9b01      	ldr	r3, [sp, #4]
   85ab8:	e762      	b.n	85980 <_realloc_r+0x208>
   85aba:	f8cb 1010 	str.w	r1, [fp, #16]
   85abe:	68e9      	ldr	r1, [r5, #12]
   85ac0:	2a24      	cmp	r2, #36	; 0x24
   85ac2:	f8cb 1014 	str.w	r1, [fp, #20]
   85ac6:	6929      	ldr	r1, [r5, #16]
   85ac8:	d006      	beq.n	85ad8 <_realloc_r+0x360>
   85aca:	f10b 0218 	add.w	r2, fp, #24
   85ace:	3510      	adds	r5, #16
   85ad0:	e751      	b.n	85976 <_realloc_r+0x1fe>
   85ad2:	bf00      	nop
   85ad4:	20070764 	.word	0x20070764
   85ad8:	f8cb 1018 	str.w	r1, [fp, #24]
   85adc:	6969      	ldr	r1, [r5, #20]
   85ade:	f10b 0220 	add.w	r2, fp, #32
   85ae2:	f8cb 101c 	str.w	r1, [fp, #28]
   85ae6:	69a9      	ldr	r1, [r5, #24]
   85ae8:	3518      	adds	r5, #24
   85aea:	e744      	b.n	85976 <_realloc_r+0x1fe>

00085aec <_sbrk_r>:
   85aec:	b538      	push	{r3, r4, r5, lr}
   85aee:	2300      	movs	r3, #0
   85af0:	4c06      	ldr	r4, [pc, #24]	; (85b0c <_sbrk_r+0x20>)
   85af2:	4605      	mov	r5, r0
   85af4:	4608      	mov	r0, r1
   85af6:	6023      	str	r3, [r4, #0]
   85af8:	f7fb fd74 	bl	815e4 <_sbrk>
   85afc:	1c43      	adds	r3, r0, #1
   85afe:	d000      	beq.n	85b02 <_sbrk_r+0x16>
   85b00:	bd38      	pop	{r3, r4, r5, pc}
   85b02:	6823      	ldr	r3, [r4, #0]
   85b04:	2b00      	cmp	r3, #0
   85b06:	d0fb      	beq.n	85b00 <_sbrk_r+0x14>
   85b08:	602b      	str	r3, [r5, #0]
   85b0a:	bd38      	pop	{r3, r4, r5, pc}
   85b0c:	20070bd4 	.word	0x20070bd4

00085b10 <__ssprint_r>:
   85b10:	e92d 4ff0 	stmdb	sp!, {r4, r5, r6, r7, r8, r9, sl, fp, lr}
   85b14:	6893      	ldr	r3, [r2, #8]
   85b16:	b083      	sub	sp, #12
   85b18:	4690      	mov	r8, r2
   85b1a:	2b00      	cmp	r3, #0
   85b1c:	d06c      	beq.n	85bf8 <__ssprint_r+0xe8>
   85b1e:	6817      	ldr	r7, [r2, #0]
   85b20:	4682      	mov	sl, r0
   85b22:	460c      	mov	r4, r1
   85b24:	6808      	ldr	r0, [r1, #0]
   85b26:	3708      	adds	r7, #8
   85b28:	688d      	ldr	r5, [r1, #8]
   85b2a:	e042      	b.n	85bb2 <__ssprint_r+0xa2>
   85b2c:	89a3      	ldrh	r3, [r4, #12]
   85b2e:	f413 6f90 	tst.w	r3, #1152	; 0x480
   85b32:	d02d      	beq.n	85b90 <__ssprint_r+0x80>
   85b34:	e9d4 1504 	ldrd	r1, r5, [r4, #16]
   85b38:	eb05 0545 	add.w	r5, r5, r5, lsl #1
   85b3c:	eba0 0b01 	sub.w	fp, r0, r1
   85b40:	eb05 75d5 	add.w	r5, r5, r5, lsr #31
   85b44:	1c70      	adds	r0, r6, #1
   85b46:	106d      	asrs	r5, r5, #1
   85b48:	4458      	add	r0, fp
   85b4a:	42a8      	cmp	r0, r5
   85b4c:	462a      	mov	r2, r5
   85b4e:	bf84      	itt	hi
   85b50:	4605      	movhi	r5, r0
   85b52:	462a      	movhi	r2, r5
   85b54:	055b      	lsls	r3, r3, #21
   85b56:	d536      	bpl.n	85bc6 <__ssprint_r+0xb6>
   85b58:	4611      	mov	r1, r2
   85b5a:	4650      	mov	r0, sl
   85b5c:	f7fe fdb2 	bl	846c4 <_malloc_r>
   85b60:	2800      	cmp	r0, #0
   85b62:	d03a      	beq.n	85bda <__ssprint_r+0xca>
   85b64:	465a      	mov	r2, fp
   85b66:	6921      	ldr	r1, [r4, #16]
   85b68:	9001      	str	r0, [sp, #4]
   85b6a:	f7ff f8b5 	bl	84cd8 <memcpy>
   85b6e:	89a2      	ldrh	r2, [r4, #12]
   85b70:	9b01      	ldr	r3, [sp, #4]
   85b72:	f422 6290 	bic.w	r2, r2, #1152	; 0x480
   85b76:	f042 0280 	orr.w	r2, r2, #128	; 0x80
   85b7a:	81a2      	strh	r2, [r4, #12]
   85b7c:	eba5 020b 	sub.w	r2, r5, fp
   85b80:	eb03 000b 	add.w	r0, r3, fp
   85b84:	6165      	str	r5, [r4, #20]
   85b86:	46b3      	mov	fp, r6
   85b88:	4635      	mov	r5, r6
   85b8a:	6123      	str	r3, [r4, #16]
   85b8c:	6020      	str	r0, [r4, #0]
   85b8e:	60a2      	str	r2, [r4, #8]
   85b90:	465a      	mov	r2, fp
   85b92:	4649      	mov	r1, r9
   85b94:	f7ff f916 	bl	84dc4 <memmove>
   85b98:	f8d8 3008 	ldr.w	r3, [r8, #8]
   85b9c:	68a2      	ldr	r2, [r4, #8]
   85b9e:	6820      	ldr	r0, [r4, #0]
   85ba0:	1b55      	subs	r5, r2, r5
   85ba2:	4458      	add	r0, fp
   85ba4:	1b9e      	subs	r6, r3, r6
   85ba6:	60a5      	str	r5, [r4, #8]
   85ba8:	6020      	str	r0, [r4, #0]
   85baa:	f8c8 6008 	str.w	r6, [r8, #8]
   85bae:	b31e      	cbz	r6, 85bf8 <__ssprint_r+0xe8>
   85bb0:	3708      	adds	r7, #8
   85bb2:	e957 9602 	ldrd	r9, r6, [r7, #-8]
   85bb6:	46ab      	mov	fp, r5
   85bb8:	2e00      	cmp	r6, #0
   85bba:	d0f9      	beq.n	85bb0 <__ssprint_r+0xa0>
   85bbc:	42ae      	cmp	r6, r5
   85bbe:	d2b5      	bcs.n	85b2c <__ssprint_r+0x1c>
   85bc0:	4635      	mov	r5, r6
   85bc2:	46b3      	mov	fp, r6
   85bc4:	e7e4      	b.n	85b90 <__ssprint_r+0x80>
   85bc6:	4650      	mov	r0, sl
   85bc8:	f7ff fdd6 	bl	85778 <_realloc_r>
   85bcc:	4603      	mov	r3, r0
   85bce:	2800      	cmp	r0, #0
   85bd0:	d1d4      	bne.n	85b7c <__ssprint_r+0x6c>
   85bd2:	6921      	ldr	r1, [r4, #16]
   85bd4:	4650      	mov	r0, sl
   85bd6:	f7fe fc77 	bl	844c8 <_free_r>
   85bda:	230c      	movs	r3, #12
   85bdc:	2200      	movs	r2, #0
   85bde:	f04f 30ff 	mov.w	r0, #4294967295	; 0xffffffff
   85be2:	f8ca 3000 	str.w	r3, [sl]
   85be6:	89a3      	ldrh	r3, [r4, #12]
   85be8:	f043 0340 	orr.w	r3, r3, #64	; 0x40
   85bec:	81a3      	strh	r3, [r4, #12]
   85bee:	e9c8 2201 	strd	r2, r2, [r8, #4]
   85bf2:	b003      	add	sp, #12
   85bf4:	e8bd 8ff0 	ldmia.w	sp!, {r4, r5, r6, r7, r8, r9, sl, fp, pc}
   85bf8:	2000      	movs	r0, #0
   85bfa:	f8c8 0004 	str.w	r0, [r8, #4]
   85bfe:	b003      	add	sp, #12
   85c00:	e8bd 8ff0 	ldmia.w	sp!, {r4, r5, r6, r7, r8, r9, sl, fp, pc}

00085c04 <_svfiprintf_r>:
   85c04:	e92d 4ff0 	stmdb	sp!, {r4, r5, r6, r7, r8, r9, sl, fp, lr}
   85c08:	b0ab      	sub	sp, #172	; 0xac
   85c0a:	460c      	mov	r4, r1
   85c0c:	9102      	str	r1, [sp, #8]
   85c0e:	8989      	ldrh	r1, [r1, #12]
   85c10:	4693      	mov	fp, r2
   85c12:	0609      	lsls	r1, r1, #24
   85c14:	e9cd 0305 	strd	r0, r3, [sp, #20]
   85c18:	d503      	bpl.n	85c22 <_svfiprintf_r+0x1e>
   85c1a:	6923      	ldr	r3, [r4, #16]
   85c1c:	2b00      	cmp	r3, #0
   85c1e:	f000 8493 	beq.w	86548 <_svfiprintf_r+0x944>
   85c22:	2300      	movs	r3, #0
   85c24:	e9cd 330e 	strd	r3, r3, [sp, #56]	; 0x38
   85c28:	f10d 0a68 	add.w	sl, sp, #104	; 0x68
   85c2c:	9308      	str	r3, [sp, #32]
   85c2e:	9301      	str	r3, [sp, #4]
   85c30:	f8cd a034 	str.w	sl, [sp, #52]	; 0x34
   85c34:	f89b 3000 	ldrb.w	r3, [fp]
   85c38:	2b00      	cmp	r3, #0
   85c3a:	f000 80f0 	beq.w	85e1e <_svfiprintf_r+0x21a>
   85c3e:	2b25      	cmp	r3, #37	; 0x25
   85c40:	465c      	mov	r4, fp
   85c42:	d102      	bne.n	85c4a <_svfiprintf_r+0x46>
   85c44:	e01c      	b.n	85c80 <_svfiprintf_r+0x7c>
   85c46:	2b25      	cmp	r3, #37	; 0x25
   85c48:	d003      	beq.n	85c52 <_svfiprintf_r+0x4e>
   85c4a:	f814 3f01 	ldrb.w	r3, [r4, #1]!
   85c4e:	2b00      	cmp	r3, #0
   85c50:	d1f9      	bne.n	85c46 <_svfiprintf_r+0x42>
   85c52:	eba4 050b 	sub.w	r5, r4, fp
   85c56:	b17d      	cbz	r5, 85c78 <_svfiprintf_r+0x74>
   85c58:	e9dd 320e 	ldrd	r3, r2, [sp, #56]	; 0x38
   85c5c:	3301      	adds	r3, #1
   85c5e:	442a      	add	r2, r5
   85c60:	2b07      	cmp	r3, #7
   85c62:	e9ca b500 	strd	fp, r5, [sl]
   85c66:	e9cd 320e 	strd	r3, r2, [sp, #56]	; 0x38
   85c6a:	f300 80cf 	bgt.w	85e0c <_svfiprintf_r+0x208>
   85c6e:	f10a 0a08 	add.w	sl, sl, #8
   85c72:	9b01      	ldr	r3, [sp, #4]
   85c74:	442b      	add	r3, r5
   85c76:	9301      	str	r3, [sp, #4]
   85c78:	7823      	ldrb	r3, [r4, #0]
   85c7a:	2b00      	cmp	r3, #0
   85c7c:	f000 80cf 	beq.w	85e1e <_svfiprintf_r+0x21a>
   85c80:	2100      	movs	r1, #0
   85c82:	f04f 0300 	mov.w	r3, #0
   85c86:	4608      	mov	r0, r1
   85c88:	4688      	mov	r8, r1
   85c8a:	f04f 39ff 	mov.w	r9, #4294967295	; 0xffffffff
   85c8e:	f88d 302f 	strb.w	r3, [sp, #47]	; 0x2f
   85c92:	7863      	ldrb	r3, [r4, #1]
   85c94:	9104      	str	r1, [sp, #16]
   85c96:	f104 0b01 	add.w	fp, r4, #1
   85c9a:	f10b 0b01 	add.w	fp, fp, #1
   85c9e:	f1a3 0220 	sub.w	r2, r3, #32
   85ca2:	2a58      	cmp	r2, #88	; 0x58
   85ca4:	f200 8343 	bhi.w	8632e <_svfiprintf_r+0x72a>
   85ca8:	e8df f012 	tbh	[pc, r2, lsl #1]
   85cac:	03410117 	.word	0x03410117
   85cb0:	01120341 	.word	0x01120341
   85cb4:	03410341 	.word	0x03410341
   85cb8:	03410341 	.word	0x03410341
   85cbc:	03410341 	.word	0x03410341
   85cc0:	01000105 	.word	0x01000105
   85cc4:	00fb0341 	.word	0x00fb0341
   85cc8:	034100e1 	.word	0x034100e1
   85ccc:	00cd00dc 	.word	0x00cd00dc
   85cd0:	00cd00cd 	.word	0x00cd00cd
   85cd4:	00cd00cd 	.word	0x00cd00cd
   85cd8:	00cd00cd 	.word	0x00cd00cd
   85cdc:	00cd00cd 	.word	0x00cd00cd
   85ce0:	03410341 	.word	0x03410341
   85ce4:	03410341 	.word	0x03410341
   85ce8:	03410341 	.word	0x03410341
   85cec:	03410341 	.word	0x03410341
   85cf0:	03410341 	.word	0x03410341
   85cf4:	034102e3 	.word	0x034102e3
   85cf8:	03410341 	.word	0x03410341
   85cfc:	03410341 	.word	0x03410341
   85d00:	03410341 	.word	0x03410341
   85d04:	03410341 	.word	0x03410341
   85d08:	009f0341 	.word	0x009f0341
   85d0c:	03410341 	.word	0x03410341
   85d10:	03410341 	.word	0x03410341
   85d14:	00590341 	.word	0x00590341
   85d18:	03410341 	.word	0x03410341
   85d1c:	034102cb 	.word	0x034102cb
   85d20:	03410341 	.word	0x03410341
   85d24:	03410341 	.word	0x03410341
   85d28:	03410341 	.word	0x03410341
   85d2c:	03410341 	.word	0x03410341
   85d30:	01ad0341 	.word	0x01ad0341
   85d34:	03410179 	.word	0x03410179
   85d38:	03410341 	.word	0x03410341
   85d3c:	01790174 	.word	0x01790174
   85d40:	03410341 	.word	0x03410341
   85d44:	03410167 	.word	0x03410167
   85d48:	00a10313 	.word	0x00a10313
   85d4c:	016202fb 	.word	0x016202fb
   85d50:	01420341 	.word	0x01420341
   85d54:	005b0341 	.word	0x005b0341
   85d58:	03410341 	.word	0x03410341
   85d5c:	011f      	.short	0x011f
   85d5e:	f048 0810 	orr.w	r8, r8, #16
   85d62:	f018 0f20 	tst.w	r8, #32
   85d66:	f000 82d5 	beq.w	86314 <_svfiprintf_r+0x710>
   85d6a:	9c06      	ldr	r4, [sp, #24]
   85d6c:	f1b9 3fff 	cmp.w	r9, #4294967295	; 0xffffffff
   85d70:	f104 0407 	add.w	r4, r4, #7
   85d74:	f024 0307 	bic.w	r3, r4, #7
   85d78:	f103 0208 	add.w	r2, r3, #8
   85d7c:	9206      	str	r2, [sp, #24]
   85d7e:	f04f 0200 	mov.w	r2, #0
   85d82:	e9d3 6700 	ldrd	r6, r7, [r3]
   85d86:	f88d 202f 	strb.w	r2, [sp, #47]	; 0x2f
   85d8a:	f04f 0301 	mov.w	r3, #1
   85d8e:	f040 829e 	bne.w	862ce <_svfiprintf_r+0x6ca>
   85d92:	2400      	movs	r4, #0
   85d94:	f8cd 8000 	str.w	r8, [sp]
   85d98:	2b01      	cmp	r3, #1
   85d9a:	f000 836e 	beq.w	8647a <_svfiprintf_r+0x876>
   85d9e:	2b02      	cmp	r3, #2
   85da0:	f000 82d5 	beq.w	8634e <_svfiprintf_r+0x74a>
   85da4:	a91a      	add	r1, sp, #104	; 0x68
   85da6:	e000      	b.n	85daa <_svfiprintf_r+0x1a6>
   85da8:	4629      	mov	r1, r5
   85daa:	08f2      	lsrs	r2, r6, #3
   85dac:	ea42 7247 	orr.w	r2, r2, r7, lsl #29
   85db0:	08f8      	lsrs	r0, r7, #3
   85db2:	f006 0307 	and.w	r3, r6, #7
   85db6:	4607      	mov	r7, r0
   85db8:	4616      	mov	r6, r2
   85dba:	3330      	adds	r3, #48	; 0x30
   85dbc:	ea56 0207 	orrs.w	r2, r6, r7
   85dc0:	f801 3c01 	strb.w	r3, [r1, #-1]
   85dc4:	f101 35ff 	add.w	r5, r1, #4294967295	; 0xffffffff
   85dc8:	d1ee      	bne.n	85da8 <_svfiprintf_r+0x1a4>
   85dca:	9a00      	ldr	r2, [sp, #0]
   85dcc:	07d2      	lsls	r2, r2, #31
   85dce:	f140 82ce 	bpl.w	8636e <_svfiprintf_r+0x76a>
   85dd2:	2b30      	cmp	r3, #48	; 0x30
   85dd4:	f000 82cb 	beq.w	8636e <_svfiprintf_r+0x76a>
   85dd8:	2330      	movs	r3, #48	; 0x30
   85dda:	3902      	subs	r1, #2
   85ddc:	f805 3c01 	strb.w	r3, [r5, #-1]
   85de0:	ab1a      	add	r3, sp, #104	; 0x68
   85de2:	1a5b      	subs	r3, r3, r1
   85de4:	9303      	str	r3, [sp, #12]
   85de6:	460d      	mov	r5, r1
   85de8:	e2c4      	b.n	86374 <_svfiprintf_r+0x770>
   85dea:	f048 0810 	orr.w	r8, r8, #16
   85dee:	f018 0320 	ands.w	r3, r8, #32
   85df2:	f000 8285 	beq.w	86300 <_svfiprintf_r+0x6fc>
   85df6:	9c06      	ldr	r4, [sp, #24]
   85df8:	3407      	adds	r4, #7
   85dfa:	f024 0307 	bic.w	r3, r4, #7
   85dfe:	f103 0208 	add.w	r2, r3, #8
   85e02:	e9d3 6700 	ldrd	r6, r7, [r3]
   85e06:	9206      	str	r2, [sp, #24]
   85e08:	2300      	movs	r3, #0
   85e0a:	e258      	b.n	862be <_svfiprintf_r+0x6ba>
   85e0c:	aa0d      	add	r2, sp, #52	; 0x34
   85e0e:	9902      	ldr	r1, [sp, #8]
   85e10:	9805      	ldr	r0, [sp, #20]
   85e12:	f7ff fe7d 	bl	85b10 <__ssprint_r>
   85e16:	b948      	cbnz	r0, 85e2c <_svfiprintf_r+0x228>
   85e18:	f10d 0a68 	add.w	sl, sp, #104	; 0x68
   85e1c:	e729      	b.n	85c72 <_svfiprintf_r+0x6e>
   85e1e:	9b0f      	ldr	r3, [sp, #60]	; 0x3c
   85e20:	b123      	cbz	r3, 85e2c <_svfiprintf_r+0x228>
   85e22:	9805      	ldr	r0, [sp, #20]
   85e24:	aa0d      	add	r2, sp, #52	; 0x34
   85e26:	9902      	ldr	r1, [sp, #8]
   85e28:	f7ff fe72 	bl	85b10 <__ssprint_r>
   85e2c:	9b02      	ldr	r3, [sp, #8]
   85e2e:	899b      	ldrh	r3, [r3, #12]
   85e30:	f013 0f40 	tst.w	r3, #64	; 0x40
   85e34:	9b01      	ldr	r3, [sp, #4]
   85e36:	bf18      	it	ne
   85e38:	f04f 33ff 	movne.w	r3, #4294967295	; 0xffffffff
   85e3c:	9301      	str	r3, [sp, #4]
   85e3e:	9801      	ldr	r0, [sp, #4]
   85e40:	b02b      	add	sp, #172	; 0xac
   85e42:	e8bd 8ff0 	ldmia.w	sp!, {r4, r5, r6, r7, r8, r9, sl, fp, pc}
   85e46:	2400      	movs	r4, #0
   85e48:	f1a3 0230 	sub.w	r2, r3, #48	; 0x30
   85e4c:	f81b 3b01 	ldrb.w	r3, [fp], #1
   85e50:	eb04 0484 	add.w	r4, r4, r4, lsl #2
   85e54:	eb02 0444 	add.w	r4, r2, r4, lsl #1
   85e58:	f1a3 0230 	sub.w	r2, r3, #48	; 0x30
   85e5c:	2a09      	cmp	r2, #9
   85e5e:	d9f5      	bls.n	85e4c <_svfiprintf_r+0x248>
   85e60:	9404      	str	r4, [sp, #16]
   85e62:	e71c      	b.n	85c9e <_svfiprintf_r+0x9a>
   85e64:	f048 0880 	orr.w	r8, r8, #128	; 0x80
   85e68:	f89b 3000 	ldrb.w	r3, [fp]
   85e6c:	e715      	b.n	85c9a <_svfiprintf_r+0x96>
   85e6e:	f89b 3000 	ldrb.w	r3, [fp]
   85e72:	f10b 0401 	add.w	r4, fp, #1
   85e76:	2b2a      	cmp	r3, #42	; 0x2a
   85e78:	f000 83cf 	beq.w	8661a <_svfiprintf_r+0xa16>
   85e7c:	f1a3 0230 	sub.w	r2, r3, #48	; 0x30
   85e80:	2a09      	cmp	r2, #9
   85e82:	f200 83b8 	bhi.w	865f6 <_svfiprintf_r+0x9f2>
   85e86:	f04f 0900 	mov.w	r9, #0
   85e8a:	f814 3b01 	ldrb.w	r3, [r4], #1
   85e8e:	eb09 0989 	add.w	r9, r9, r9, lsl #2
   85e92:	eb02 0949 	add.w	r9, r2, r9, lsl #1
   85e96:	f1a3 0230 	sub.w	r2, r3, #48	; 0x30
   85e9a:	2a09      	cmp	r2, #9
   85e9c:	d9f5      	bls.n	85e8a <_svfiprintf_r+0x286>
   85e9e:	46a3      	mov	fp, r4
   85ea0:	e6fd      	b.n	85c9e <_svfiprintf_r+0x9a>
   85ea2:	f89b 3000 	ldrb.w	r3, [fp]
   85ea6:	f048 0804 	orr.w	r8, r8, #4
   85eaa:	e6f6      	b.n	85c9a <_svfiprintf_r+0x96>
   85eac:	f89b 3000 	ldrb.w	r3, [fp]
   85eb0:	2101      	movs	r1, #1
   85eb2:	202b      	movs	r0, #43	; 0x2b
   85eb4:	e6f1      	b.n	85c9a <_svfiprintf_r+0x96>
   85eb6:	9b06      	ldr	r3, [sp, #24]
   85eb8:	681c      	ldr	r4, [r3, #0]
   85eba:	1d1a      	adds	r2, r3, #4
   85ebc:	2c00      	cmp	r4, #0
   85ebe:	9404      	str	r4, [sp, #16]
   85ec0:	f89b 3000 	ldrb.w	r3, [fp]
   85ec4:	9206      	str	r2, [sp, #24]
   85ec6:	f6bf aee8 	bge.w	85c9a <_svfiprintf_r+0x96>
   85eca:	4262      	negs	r2, r4
   85ecc:	9204      	str	r2, [sp, #16]
   85ece:	e7ea      	b.n	85ea6 <_svfiprintf_r+0x2a2>
   85ed0:	f048 0801 	orr.w	r8, r8, #1
   85ed4:	f89b 3000 	ldrb.w	r3, [fp]
   85ed8:	e6df      	b.n	85c9a <_svfiprintf_r+0x96>
   85eda:	f89b 3000 	ldrb.w	r3, [fp]
   85ede:	2800      	cmp	r0, #0
   85ee0:	f47f aedb 	bne.w	85c9a <_svfiprintf_r+0x96>
   85ee4:	2101      	movs	r1, #1
   85ee6:	2020      	movs	r0, #32
   85ee8:	e6d7      	b.n	85c9a <_svfiprintf_r+0x96>
   85eea:	2900      	cmp	r1, #0
   85eec:	f040 83b7 	bne.w	8665e <_svfiprintf_r+0xa5a>
   85ef0:	4ab7      	ldr	r2, [pc, #732]	; (861d0 <_svfiprintf_r+0x5cc>)
   85ef2:	f018 0f20 	tst.w	r8, #32
   85ef6:	9208      	str	r2, [sp, #32]
   85ef8:	f000 81ac 	beq.w	86254 <_svfiprintf_r+0x650>
   85efc:	9c06      	ldr	r4, [sp, #24]
   85efe:	3407      	adds	r4, #7
   85f00:	f024 0207 	bic.w	r2, r4, #7
   85f04:	f102 0108 	add.w	r1, r2, #8
   85f08:	9106      	str	r1, [sp, #24]
   85f0a:	e9d2 6700 	ldrd	r6, r7, [r2]
   85f0e:	f018 0f01 	tst.w	r8, #1
   85f12:	f000 820a 	beq.w	8632a <_svfiprintf_r+0x726>
   85f16:	ea56 0207 	orrs.w	r2, r6, r7
   85f1a:	f000 8206 	beq.w	8632a <_svfiprintf_r+0x726>
   85f1e:	2230      	movs	r2, #48	; 0x30
   85f20:	f88d 3031 	strb.w	r3, [sp, #49]	; 0x31
   85f24:	f048 0802 	orr.w	r8, r8, #2
   85f28:	f88d 2030 	strb.w	r2, [sp, #48]	; 0x30
   85f2c:	2302      	movs	r3, #2
   85f2e:	e1c6      	b.n	862be <_svfiprintf_r+0x6ba>
   85f30:	f04f 0200 	mov.w	r2, #0
   85f34:	9b06      	ldr	r3, [sp, #24]
   85f36:	f88d 202f 	strb.w	r2, [sp, #47]	; 0x2f
   85f3a:	681d      	ldr	r5, [r3, #0]
   85f3c:	1d1c      	adds	r4, r3, #4
   85f3e:	2d00      	cmp	r5, #0
   85f40:	f000 834d 	beq.w	865de <_svfiprintf_r+0x9da>
   85f44:	f1b9 3fff 	cmp.w	r9, #4294967295	; 0xffffffff
   85f48:	f000 830b 	beq.w	86562 <_svfiprintf_r+0x95e>
   85f4c:	464a      	mov	r2, r9
   85f4e:	2100      	movs	r1, #0
   85f50:	4628      	mov	r0, r5
   85f52:	f7fe fe7b 	bl	84c4c <memchr>
   85f56:	2800      	cmp	r0, #0
   85f58:	f000 8352 	beq.w	86600 <_svfiprintf_r+0x9fc>
   85f5c:	1b43      	subs	r3, r0, r5
   85f5e:	9406      	str	r4, [sp, #24]
   85f60:	9303      	str	r3, [sp, #12]
   85f62:	f8cd 8000 	str.w	r8, [sp]
   85f66:	f89d 402f 	ldrb.w	r4, [sp, #47]	; 0x2f
   85f6a:	f04f 0900 	mov.w	r9, #0
   85f6e:	e201      	b.n	86374 <_svfiprintf_r+0x770>
   85f70:	f048 0820 	orr.w	r8, r8, #32
   85f74:	f89b 3000 	ldrb.w	r3, [fp]
   85f78:	e68f      	b.n	85c9a <_svfiprintf_r+0x96>
   85f7a:	f89b 3000 	ldrb.w	r3, [fp]
   85f7e:	2b6c      	cmp	r3, #108	; 0x6c
   85f80:	bf03      	ittte	eq
   85f82:	f89b 3001 	ldrbeq.w	r3, [fp, #1]
   85f86:	f048 0820 	orreq.w	r8, r8, #32
   85f8a:	f10b 0b01 	addeq.w	fp, fp, #1
   85f8e:	f048 0810 	orrne.w	r8, r8, #16
   85f92:	e682      	b.n	85c9a <_svfiprintf_r+0x96>
   85f94:	f048 0840 	orr.w	r8, r8, #64	; 0x40
   85f98:	f89b 3000 	ldrb.w	r3, [fp]
   85f9c:	e67d      	b.n	85c9a <_svfiprintf_r+0x96>
   85f9e:	2900      	cmp	r1, #0
   85fa0:	f040 8357 	bne.w	86652 <_svfiprintf_r+0xa4e>
   85fa4:	f018 0f20 	tst.w	r8, #32
   85fa8:	f000 816c 	beq.w	86284 <_svfiprintf_r+0x680>
   85fac:	9c06      	ldr	r4, [sp, #24]
   85fae:	3407      	adds	r4, #7
   85fb0:	f024 0307 	bic.w	r3, r4, #7
   85fb4:	f103 0208 	add.w	r2, r3, #8
   85fb8:	9206      	str	r2, [sp, #24]
   85fba:	e9d3 6700 	ldrd	r6, r7, [r3]
   85fbe:	2e00      	cmp	r6, #0
   85fc0:	f177 0300 	sbcs.w	r3, r7, #0
   85fc4:	f2c0 827f 	blt.w	864c6 <_svfiprintf_r+0x8c2>
   85fc8:	f89d 402f 	ldrb.w	r4, [sp, #47]	; 0x2f
   85fcc:	f1b9 3fff 	cmp.w	r9, #4294967295	; 0xffffffff
   85fd0:	f000 8251 	beq.w	86476 <_svfiprintf_r+0x872>
   85fd4:	2301      	movs	r3, #1
   85fd6:	f028 0280 	bic.w	r2, r8, #128	; 0x80
   85fda:	9200      	str	r2, [sp, #0]
   85fdc:	ea56 0207 	orrs.w	r2, r6, r7
   85fe0:	f47f aeda 	bne.w	85d98 <_svfiprintf_r+0x194>
   85fe4:	f1b9 0f00 	cmp.w	r9, #0
   85fe8:	f040 82cc 	bne.w	86584 <_svfiprintf_r+0x980>
   85fec:	2b00      	cmp	r3, #0
   85fee:	f040 8260 	bne.w	864b2 <_svfiprintf_r+0x8ae>
   85ff2:	f018 0301 	ands.w	r3, r8, #1
   85ff6:	9303      	str	r3, [sp, #12]
   85ff8:	f000 8287 	beq.w	8650a <_svfiprintf_r+0x906>
   85ffc:	2330      	movs	r3, #48	; 0x30
   85ffe:	ad2a      	add	r5, sp, #168	; 0xa8
   86000:	f805 3d41 	strb.w	r3, [r5, #-65]!
   86004:	e1b6      	b.n	86374 <_svfiprintf_r+0x770>
   86006:	2601      	movs	r6, #1
   86008:	f04f 0100 	mov.w	r1, #0
   8600c:	9a06      	ldr	r2, [sp, #24]
   8600e:	f88d 102f 	strb.w	r1, [sp, #47]	; 0x2f
   86012:	6813      	ldr	r3, [r2, #0]
   86014:	9603      	str	r6, [sp, #12]
   86016:	f88d 3040 	strb.w	r3, [sp, #64]	; 0x40
   8601a:	1d13      	adds	r3, r2, #4
   8601c:	9306      	str	r3, [sp, #24]
   8601e:	ad10      	add	r5, sp, #64	; 0x40
   86020:	f04f 0900 	mov.w	r9, #0
   86024:	f8cd 8000 	str.w	r8, [sp]
   86028:	9b00      	ldr	r3, [sp, #0]
   8602a:	9800      	ldr	r0, [sp, #0]
   8602c:	f013 0302 	ands.w	r3, r3, #2
   86030:	bf18      	it	ne
   86032:	3602      	addne	r6, #2
   86034:	f010 0084 	ands.w	r0, r0, #132	; 0x84
   86038:	e9dd 120e 	ldrd	r1, r2, [sp, #56]	; 0x38
   8603c:	9007      	str	r0, [sp, #28]
   8603e:	d13c      	bne.n	860ba <_svfiprintf_r+0x4b6>
   86040:	9804      	ldr	r0, [sp, #16]
   86042:	1b84      	subs	r4, r0, r6
   86044:	2c00      	cmp	r4, #0
   86046:	dd38      	ble.n	860ba <_svfiprintf_r+0x4b6>
   86048:	2c10      	cmp	r4, #16
   8604a:	f340 82d0 	ble.w	865ee <_svfiprintf_r+0x9ea>
   8604e:	4f61      	ldr	r7, [pc, #388]	; (861d4 <_svfiprintf_r+0x5d0>)
   86050:	4650      	mov	r0, sl
   86052:	46b2      	mov	sl, r6
   86054:	461e      	mov	r6, r3
   86056:	463b      	mov	r3, r7
   86058:	f04f 0810 	mov.w	r8, #16
   8605c:	462f      	mov	r7, r5
   8605e:	461d      	mov	r5, r3
   86060:	e004      	b.n	8606c <_svfiprintf_r+0x468>
   86062:	3c10      	subs	r4, #16
   86064:	2c10      	cmp	r4, #16
   86066:	f100 0008 	add.w	r0, r0, #8
   8606a:	dd15      	ble.n	86098 <_svfiprintf_r+0x494>
   8606c:	3101      	adds	r1, #1
   8606e:	3210      	adds	r2, #16
   86070:	2907      	cmp	r1, #7
   86072:	e9cd 120e 	strd	r1, r2, [sp, #56]	; 0x38
   86076:	e9c0 5800 	strd	r5, r8, [r0]
   8607a:	ddf2      	ble.n	86062 <_svfiprintf_r+0x45e>
   8607c:	aa0d      	add	r2, sp, #52	; 0x34
   8607e:	9902      	ldr	r1, [sp, #8]
   86080:	9805      	ldr	r0, [sp, #20]
   86082:	f7ff fd45 	bl	85b10 <__ssprint_r>
   86086:	2800      	cmp	r0, #0
   86088:	f47f aed0 	bne.w	85e2c <_svfiprintf_r+0x228>
   8608c:	e9dd 120e 	ldrd	r1, r2, [sp, #56]	; 0x38
   86090:	3c10      	subs	r4, #16
   86092:	2c10      	cmp	r4, #16
   86094:	a81a      	add	r0, sp, #104	; 0x68
   86096:	dce9      	bgt.n	8606c <_svfiprintf_r+0x468>
   86098:	4633      	mov	r3, r6
   8609a:	4656      	mov	r6, sl
   8609c:	4682      	mov	sl, r0
   8609e:	4628      	mov	r0, r5
   860a0:	463d      	mov	r5, r7
   860a2:	4607      	mov	r7, r0
   860a4:	3101      	adds	r1, #1
   860a6:	4422      	add	r2, r4
   860a8:	2907      	cmp	r1, #7
   860aa:	e9cd 120e 	strd	r1, r2, [sp, #56]	; 0x38
   860ae:	e9ca 7400 	strd	r7, r4, [sl]
   860b2:	f300 8211 	bgt.w	864d8 <_svfiprintf_r+0x8d4>
   860b6:	f10a 0a08 	add.w	sl, sl, #8
   860ba:	f89d 402f 	ldrb.w	r4, [sp, #47]	; 0x2f
   860be:	f101 0c01 	add.w	ip, r1, #1
   860c2:	f10a 0008 	add.w	r0, sl, #8
   860c6:	b194      	cbz	r4, 860ee <_svfiprintf_r+0x4ea>
   860c8:	2701      	movs	r7, #1
   860ca:	f10d 042f 	add.w	r4, sp, #47	; 0x2f
   860ce:	443a      	add	r2, r7
   860d0:	f1bc 0f07 	cmp.w	ip, #7
   860d4:	e9cd c20e 	strd	ip, r2, [sp, #56]	; 0x38
   860d8:	e9ca 4700 	strd	r4, r7, [sl]
   860dc:	f300 81a9 	bgt.w	86432 <_svfiprintf_r+0x82e>
   860e0:	1c8f      	adds	r7, r1, #2
   860e2:	f10a 0410 	add.w	r4, sl, #16
   860e6:	4661      	mov	r1, ip
   860e8:	4682      	mov	sl, r0
   860ea:	46bc      	mov	ip, r7
   860ec:	4620      	mov	r0, r4
   860ee:	b17b      	cbz	r3, 86110 <_svfiprintf_r+0x50c>
   860f0:	2102      	movs	r1, #2
   860f2:	ab0c      	add	r3, sp, #48	; 0x30
   860f4:	440a      	add	r2, r1
   860f6:	f1bc 0f07 	cmp.w	ip, #7
   860fa:	e9cd c20e 	strd	ip, r2, [sp, #56]	; 0x38
   860fe:	e9ca 3100 	strd	r3, r1, [sl]
   86102:	f300 81a8 	bgt.w	86456 <_svfiprintf_r+0x852>
   86106:	4661      	mov	r1, ip
   86108:	4682      	mov	sl, r0
   8610a:	f10c 0c01 	add.w	ip, ip, #1
   8610e:	3008      	adds	r0, #8
   86110:	9b07      	ldr	r3, [sp, #28]
   86112:	2b80      	cmp	r3, #128	; 0x80
   86114:	f000 8138 	beq.w	86388 <_svfiprintf_r+0x784>
   86118:	9b03      	ldr	r3, [sp, #12]
   8611a:	eba9 0703 	sub.w	r7, r9, r3
   8611e:	2f00      	cmp	r7, #0
   86120:	dd39      	ble.n	86196 <_svfiprintf_r+0x592>
   86122:	2f10      	cmp	r7, #16
   86124:	f340 8258 	ble.w	865d8 <_svfiprintf_r+0x9d4>
   86128:	4653      	mov	r3, sl
   8612a:	f04f 0810 	mov.w	r8, #16
   8612e:	4c2a      	ldr	r4, [pc, #168]	; (861d8 <_svfiprintf_r+0x5d4>)
   86130:	f8dd 9014 	ldr.w	r9, [sp, #20]
   86134:	f8dd a008 	ldr.w	sl, [sp, #8]
   86138:	e004      	b.n	86144 <_svfiprintf_r+0x540>
   8613a:	3f10      	subs	r7, #16
   8613c:	2f10      	cmp	r7, #16
   8613e:	f103 0308 	add.w	r3, r3, #8
   86142:	dd15      	ble.n	86170 <_svfiprintf_r+0x56c>
   86144:	3101      	adds	r1, #1
   86146:	3210      	adds	r2, #16
   86148:	2907      	cmp	r1, #7
   8614a:	e9cd 120e 	strd	r1, r2, [sp, #56]	; 0x38
   8614e:	e9c3 4800 	strd	r4, r8, [r3]
   86152:	ddf2      	ble.n	8613a <_svfiprintf_r+0x536>
   86154:	aa0d      	add	r2, sp, #52	; 0x34
   86156:	4651      	mov	r1, sl
   86158:	4648      	mov	r0, r9
   8615a:	f7ff fcd9 	bl	85b10 <__ssprint_r>
   8615e:	2800      	cmp	r0, #0
   86160:	f47f ae64 	bne.w	85e2c <_svfiprintf_r+0x228>
   86164:	e9dd 120e 	ldrd	r1, r2, [sp, #56]	; 0x38
   86168:	3f10      	subs	r7, #16
   8616a:	2f10      	cmp	r7, #16
   8616c:	ab1a      	add	r3, sp, #104	; 0x68
   8616e:	dce9      	bgt.n	86144 <_svfiprintf_r+0x540>
   86170:	469a      	mov	sl, r3
   86172:	f101 0c01 	add.w	ip, r1, #1
   86176:	3308      	adds	r3, #8
   86178:	443a      	add	r2, r7
   8617a:	f1bc 0f07 	cmp.w	ip, #7
   8617e:	920f      	str	r2, [sp, #60]	; 0x3c
   86180:	e9ca 4700 	strd	r4, r7, [sl]
   86184:	f8cd c038 	str.w	ip, [sp, #56]	; 0x38
   86188:	f300 8183 	bgt.w	86492 <_svfiprintf_r+0x88e>
   8618c:	469a      	mov	sl, r3
   8618e:	f10c 0c01 	add.w	ip, ip, #1
   86192:	f103 0008 	add.w	r0, r3, #8
   86196:	9b03      	ldr	r3, [sp, #12]
   86198:	f1bc 0f07 	cmp.w	ip, #7
   8619c:	441a      	add	r2, r3
   8619e:	920f      	str	r2, [sp, #60]	; 0x3c
   861a0:	e9ca 5300 	strd	r5, r3, [sl]
   861a4:	f8cd c038 	str.w	ip, [sp, #56]	; 0x38
   861a8:	f300 812f 	bgt.w	8640a <_svfiprintf_r+0x806>
   861ac:	9b00      	ldr	r3, [sp, #0]
   861ae:	075b      	lsls	r3, r3, #29
   861b0:	d538      	bpl.n	86224 <_svfiprintf_r+0x620>
   861b2:	9b04      	ldr	r3, [sp, #16]
   861b4:	1b9c      	subs	r4, r3, r6
   861b6:	2c00      	cmp	r4, #0
   861b8:	dd34      	ble.n	86224 <_svfiprintf_r+0x620>
   861ba:	2c10      	cmp	r4, #16
   861bc:	9b0e      	ldr	r3, [sp, #56]	; 0x38
   861be:	f340 8218 	ble.w	865f2 <_svfiprintf_r+0x9ee>
   861c2:	2510      	movs	r5, #16
   861c4:	4f03      	ldr	r7, [pc, #12]	; (861d4 <_svfiprintf_r+0x5d0>)
   861c6:	f8dd 8014 	ldr.w	r8, [sp, #20]
   861ca:	f8dd 9008 	ldr.w	r9, [sp, #8]
   861ce:	e00a      	b.n	861e6 <_svfiprintf_r+0x5e2>
   861d0:	0008708c 	.word	0x0008708c
   861d4:	000871f8 	.word	0x000871f8
   861d8:	00087208 	.word	0x00087208
   861dc:	3c10      	subs	r4, #16
   861de:	2c10      	cmp	r4, #16
   861e0:	f100 0008 	add.w	r0, r0, #8
   861e4:	dd15      	ble.n	86212 <_svfiprintf_r+0x60e>
   861e6:	3301      	adds	r3, #1
   861e8:	3210      	adds	r2, #16
   861ea:	2b07      	cmp	r3, #7
   861ec:	e9cd 320e 	strd	r3, r2, [sp, #56]	; 0x38
   861f0:	e9c0 7500 	strd	r7, r5, [r0]
   861f4:	ddf2      	ble.n	861dc <_svfiprintf_r+0x5d8>
   861f6:	aa0d      	add	r2, sp, #52	; 0x34
   861f8:	4649      	mov	r1, r9
   861fa:	4640      	mov	r0, r8
   861fc:	f7ff fc88 	bl	85b10 <__ssprint_r>
   86200:	2800      	cmp	r0, #0
   86202:	f47f ae13 	bne.w	85e2c <_svfiprintf_r+0x228>
   86206:	e9dd 320e 	ldrd	r3, r2, [sp, #56]	; 0x38
   8620a:	3c10      	subs	r4, #16
   8620c:	2c10      	cmp	r4, #16
   8620e:	a81a      	add	r0, sp, #104	; 0x68
   86210:	dce9      	bgt.n	861e6 <_svfiprintf_r+0x5e2>
   86212:	3301      	adds	r3, #1
   86214:	4422      	add	r2, r4
   86216:	2b07      	cmp	r3, #7
   86218:	e9cd 320e 	strd	r3, r2, [sp, #56]	; 0x38
   8621c:	e9c0 7400 	strd	r7, r4, [r0]
   86220:	f300 8169 	bgt.w	864f6 <_svfiprintf_r+0x8f2>
   86224:	9b01      	ldr	r3, [sp, #4]
   86226:	9904      	ldr	r1, [sp, #16]
   86228:	42b1      	cmp	r1, r6
   8622a:	bfac      	ite	ge
   8622c:	185b      	addge	r3, r3, r1
   8622e:	199b      	addlt	r3, r3, r6
   86230:	9301      	str	r3, [sp, #4]
   86232:	2a00      	cmp	r2, #0
   86234:	f040 80f4 	bne.w	86420 <_svfiprintf_r+0x81c>
   86238:	2300      	movs	r3, #0
   8623a:	f10d 0a68 	add.w	sl, sp, #104	; 0x68
   8623e:	930e      	str	r3, [sp, #56]	; 0x38
   86240:	e4f8      	b.n	85c34 <_svfiprintf_r+0x30>
   86242:	2900      	cmp	r1, #0
   86244:	f040 8208 	bne.w	86658 <_svfiprintf_r+0xa54>
   86248:	4abc      	ldr	r2, [pc, #752]	; (8653c <_svfiprintf_r+0x938>)
   8624a:	f018 0f20 	tst.w	r8, #32
   8624e:	9208      	str	r2, [sp, #32]
   86250:	f47f ae54 	bne.w	85efc <_svfiprintf_r+0x2f8>
   86254:	9a06      	ldr	r2, [sp, #24]
   86256:	f018 0f10 	tst.w	r8, #16
   8625a:	f852 6b04 	ldr.w	r6, [r2], #4
   8625e:	9206      	str	r2, [sp, #24]
   86260:	f040 8138 	bne.w	864d4 <_svfiprintf_r+0x8d0>
   86264:	f018 0f40 	tst.w	r8, #64	; 0x40
   86268:	f000 8134 	beq.w	864d4 <_svfiprintf_r+0x8d0>
   8626c:	b2b6      	uxth	r6, r6
   8626e:	2700      	movs	r7, #0
   86270:	e64d      	b.n	85f0e <_svfiprintf_r+0x30a>
   86272:	2900      	cmp	r1, #0
   86274:	f040 81e4 	bne.w	86640 <_svfiprintf_r+0xa3c>
   86278:	f048 0810 	orr.w	r8, r8, #16
   8627c:	f018 0f20 	tst.w	r8, #32
   86280:	f47f ae94 	bne.w	85fac <_svfiprintf_r+0x3a8>
   86284:	9b06      	ldr	r3, [sp, #24]
   86286:	f018 0f10 	tst.w	r8, #16
   8628a:	f853 6b04 	ldr.w	r6, [r3], #4
   8628e:	9306      	str	r3, [sp, #24]
   86290:	f040 8113 	bne.w	864ba <_svfiprintf_r+0x8b6>
   86294:	f018 0f40 	tst.w	r8, #64	; 0x40
   86298:	f000 810f 	beq.w	864ba <_svfiprintf_r+0x8b6>
   8629c:	b236      	sxth	r6, r6
   8629e:	17f7      	asrs	r7, r6, #31
   862a0:	e68d      	b.n	85fbe <_svfiprintf_r+0x3ba>
   862a2:	f647 0330 	movw	r3, #30768	; 0x7830
   862a6:	9a06      	ldr	r2, [sp, #24]
   862a8:	f8ad 3030 	strh.w	r3, [sp, #48]	; 0x30
   862ac:	1d13      	adds	r3, r2, #4
   862ae:	9306      	str	r3, [sp, #24]
   862b0:	4ba3      	ldr	r3, [pc, #652]	; (86540 <_svfiprintf_r+0x93c>)
   862b2:	2700      	movs	r7, #0
   862b4:	9308      	str	r3, [sp, #32]
   862b6:	2302      	movs	r3, #2
   862b8:	6816      	ldr	r6, [r2, #0]
   862ba:	f048 0802 	orr.w	r8, r8, #2
   862be:	f04f 0200 	mov.w	r2, #0
   862c2:	f1b9 3fff 	cmp.w	r9, #4294967295	; 0xffffffff
   862c6:	f88d 202f 	strb.w	r2, [sp, #47]	; 0x2f
   862ca:	f43f ad62 	beq.w	85d92 <_svfiprintf_r+0x18e>
   862ce:	2400      	movs	r4, #0
   862d0:	e681      	b.n	85fd6 <_svfiprintf_r+0x3d2>
   862d2:	2900      	cmp	r1, #0
   862d4:	f040 81b7 	bne.w	86646 <_svfiprintf_r+0xa42>
   862d8:	9a06      	ldr	r2, [sp, #24]
   862da:	f018 0f20 	tst.w	r8, #32
   862de:	f102 0304 	add.w	r3, r2, #4
   862e2:	6812      	ldr	r2, [r2, #0]
   862e4:	f040 8113 	bne.w	8650e <_svfiprintf_r+0x90a>
   862e8:	f018 0f10 	tst.w	r8, #16
   862ec:	f040 8145 	bne.w	8657a <_svfiprintf_r+0x976>
   862f0:	f018 0f40 	tst.w	r8, #64	; 0x40
   862f4:	f000 8141 	beq.w	8657a <_svfiprintf_r+0x976>
   862f8:	9901      	ldr	r1, [sp, #4]
   862fa:	9306      	str	r3, [sp, #24]
   862fc:	8011      	strh	r1, [r2, #0]
   862fe:	e499      	b.n	85c34 <_svfiprintf_r+0x30>
   86300:	9a06      	ldr	r2, [sp, #24]
   86302:	f852 6b04 	ldr.w	r6, [r2], #4
   86306:	9206      	str	r2, [sp, #24]
   86308:	f018 0210 	ands.w	r2, r8, #16
   8630c:	f000 810f 	beq.w	8652e <_svfiprintf_r+0x92a>
   86310:	2700      	movs	r7, #0
   86312:	e7d4      	b.n	862be <_svfiprintf_r+0x6ba>
   86314:	9b06      	ldr	r3, [sp, #24]
   86316:	f018 0f10 	tst.w	r8, #16
   8631a:	f853 6b04 	ldr.w	r6, [r3], #4
   8631e:	9306      	str	r3, [sp, #24]
   86320:	f000 80fe 	beq.w	86520 <_svfiprintf_r+0x91c>
   86324:	2700      	movs	r7, #0
   86326:	2301      	movs	r3, #1
   86328:	e7c9      	b.n	862be <_svfiprintf_r+0x6ba>
   8632a:	2302      	movs	r3, #2
   8632c:	e7c7      	b.n	862be <_svfiprintf_r+0x6ba>
   8632e:	2900      	cmp	r1, #0
   86330:	f040 818c 	bne.w	8664c <_svfiprintf_r+0xa48>
   86334:	2b00      	cmp	r3, #0
   86336:	f43f ad72 	beq.w	85e1e <_svfiprintf_r+0x21a>
   8633a:	2601      	movs	r6, #1
   8633c:	f88d 3040 	strb.w	r3, [sp, #64]	; 0x40
   86340:	f04f 0300 	mov.w	r3, #0
   86344:	9603      	str	r6, [sp, #12]
   86346:	f88d 302f 	strb.w	r3, [sp, #47]	; 0x2f
   8634a:	ad10      	add	r5, sp, #64	; 0x40
   8634c:	e668      	b.n	86020 <_svfiprintf_r+0x41c>
   8634e:	9808      	ldr	r0, [sp, #32]
   86350:	ad1a      	add	r5, sp, #104	; 0x68
   86352:	0933      	lsrs	r3, r6, #4
   86354:	ea43 7307 	orr.w	r3, r3, r7, lsl #28
   86358:	0939      	lsrs	r1, r7, #4
   8635a:	f006 020f 	and.w	r2, r6, #15
   8635e:	460f      	mov	r7, r1
   86360:	461e      	mov	r6, r3
   86362:	5c83      	ldrb	r3, [r0, r2]
   86364:	f805 3d01 	strb.w	r3, [r5, #-1]!
   86368:	ea56 0307 	orrs.w	r3, r6, r7
   8636c:	d1f1      	bne.n	86352 <_svfiprintf_r+0x74e>
   8636e:	ab1a      	add	r3, sp, #104	; 0x68
   86370:	1b5b      	subs	r3, r3, r5
   86372:	9303      	str	r3, [sp, #12]
   86374:	9b03      	ldr	r3, [sp, #12]
   86376:	454b      	cmp	r3, r9
   86378:	bfb8      	it	lt
   8637a:	464b      	movlt	r3, r9
   8637c:	461e      	mov	r6, r3
   8637e:	2c00      	cmp	r4, #0
   86380:	f43f ae52 	beq.w	86028 <_svfiprintf_r+0x424>
   86384:	3601      	adds	r6, #1
   86386:	e64f      	b.n	86028 <_svfiprintf_r+0x424>
   86388:	9b04      	ldr	r3, [sp, #16]
   8638a:	1b9f      	subs	r7, r3, r6
   8638c:	2f00      	cmp	r7, #0
   8638e:	f77f aec3 	ble.w	86118 <_svfiprintf_r+0x514>
   86392:	2f10      	cmp	r7, #16
   86394:	f340 813d 	ble.w	86612 <_svfiprintf_r+0xa0e>
   86398:	4c6a      	ldr	r4, [pc, #424]	; (86544 <_svfiprintf_r+0x940>)
   8639a:	4650      	mov	r0, sl
   8639c:	f04f 0810 	mov.w	r8, #16
   863a0:	46b2      	mov	sl, r6
   863a2:	462e      	mov	r6, r5
   863a4:	4625      	mov	r5, r4
   863a6:	9c05      	ldr	r4, [sp, #20]
   863a8:	e004      	b.n	863b4 <_svfiprintf_r+0x7b0>
   863aa:	3f10      	subs	r7, #16
   863ac:	2f10      	cmp	r7, #16
   863ae:	f100 0008 	add.w	r0, r0, #8
   863b2:	dd15      	ble.n	863e0 <_svfiprintf_r+0x7dc>
   863b4:	3101      	adds	r1, #1
   863b6:	3210      	adds	r2, #16
   863b8:	2907      	cmp	r1, #7
   863ba:	e9cd 120e 	strd	r1, r2, [sp, #56]	; 0x38
   863be:	e9c0 5800 	strd	r5, r8, [r0]
   863c2:	ddf2      	ble.n	863aa <_svfiprintf_r+0x7a6>
   863c4:	aa0d      	add	r2, sp, #52	; 0x34
   863c6:	9902      	ldr	r1, [sp, #8]
   863c8:	4620      	mov	r0, r4
   863ca:	f7ff fba1 	bl	85b10 <__ssprint_r>
   863ce:	2800      	cmp	r0, #0
   863d0:	f47f ad2c 	bne.w	85e2c <_svfiprintf_r+0x228>
   863d4:	e9dd 120e 	ldrd	r1, r2, [sp, #56]	; 0x38
   863d8:	3f10      	subs	r7, #16
   863da:	2f10      	cmp	r7, #16
   863dc:	a81a      	add	r0, sp, #104	; 0x68
   863de:	dce9      	bgt.n	863b4 <_svfiprintf_r+0x7b0>
   863e0:	462c      	mov	r4, r5
   863e2:	4635      	mov	r5, r6
   863e4:	4656      	mov	r6, sl
   863e6:	4682      	mov	sl, r0
   863e8:	3101      	adds	r1, #1
   863ea:	f100 0308 	add.w	r3, r0, #8
   863ee:	443a      	add	r2, r7
   863f0:	2907      	cmp	r1, #7
   863f2:	920f      	str	r2, [sp, #60]	; 0x3c
   863f4:	e9ca 4700 	strd	r4, r7, [sl]
   863f8:	910e      	str	r1, [sp, #56]	; 0x38
   863fa:	f300 80dd 	bgt.w	865b8 <_svfiprintf_r+0x9b4>
   863fe:	f101 0c01 	add.w	ip, r1, #1
   86402:	f103 0008 	add.w	r0, r3, #8
   86406:	469a      	mov	sl, r3
   86408:	e686      	b.n	86118 <_svfiprintf_r+0x514>
   8640a:	aa0d      	add	r2, sp, #52	; 0x34
   8640c:	9902      	ldr	r1, [sp, #8]
   8640e:	9805      	ldr	r0, [sp, #20]
   86410:	f7ff fb7e 	bl	85b10 <__ssprint_r>
   86414:	2800      	cmp	r0, #0
   86416:	f47f ad09 	bne.w	85e2c <_svfiprintf_r+0x228>
   8641a:	a81a      	add	r0, sp, #104	; 0x68
   8641c:	9a0f      	ldr	r2, [sp, #60]	; 0x3c
   8641e:	e6c5      	b.n	861ac <_svfiprintf_r+0x5a8>
   86420:	aa0d      	add	r2, sp, #52	; 0x34
   86422:	9902      	ldr	r1, [sp, #8]
   86424:	9805      	ldr	r0, [sp, #20]
   86426:	f7ff fb73 	bl	85b10 <__ssprint_r>
   8642a:	2800      	cmp	r0, #0
   8642c:	f43f af04 	beq.w	86238 <_svfiprintf_r+0x634>
   86430:	e4fc      	b.n	85e2c <_svfiprintf_r+0x228>
   86432:	aa0d      	add	r2, sp, #52	; 0x34
   86434:	9902      	ldr	r1, [sp, #8]
   86436:	9805      	ldr	r0, [sp, #20]
   86438:	9309      	str	r3, [sp, #36]	; 0x24
   8643a:	f7ff fb69 	bl	85b10 <__ssprint_r>
   8643e:	2800      	cmp	r0, #0
   86440:	f47f acf4 	bne.w	85e2c <_svfiprintf_r+0x228>
   86444:	e9dd 120e 	ldrd	r1, r2, [sp, #56]	; 0x38
   86448:	f10d 0a68 	add.w	sl, sp, #104	; 0x68
   8644c:	f101 0c01 	add.w	ip, r1, #1
   86450:	a81c      	add	r0, sp, #112	; 0x70
   86452:	9b09      	ldr	r3, [sp, #36]	; 0x24
   86454:	e64b      	b.n	860ee <_svfiprintf_r+0x4ea>
   86456:	aa0d      	add	r2, sp, #52	; 0x34
   86458:	9902      	ldr	r1, [sp, #8]
   8645a:	9805      	ldr	r0, [sp, #20]
   8645c:	f7ff fb58 	bl	85b10 <__ssprint_r>
   86460:	2800      	cmp	r0, #0
   86462:	f47f ace3 	bne.w	85e2c <_svfiprintf_r+0x228>
   86466:	e9dd 120e 	ldrd	r1, r2, [sp, #56]	; 0x38
   8646a:	f10d 0a68 	add.w	sl, sp, #104	; 0x68
   8646e:	f101 0c01 	add.w	ip, r1, #1
   86472:	a81c      	add	r0, sp, #112	; 0x70
   86474:	e64c      	b.n	86110 <_svfiprintf_r+0x50c>
   86476:	f8cd 8000 	str.w	r8, [sp]
   8647a:	2f00      	cmp	r7, #0
   8647c:	bf08      	it	eq
   8647e:	2e0a      	cmpeq	r6, #10
   86480:	f080 8084 	bcs.w	8658c <_svfiprintf_r+0x988>
   86484:	2301      	movs	r3, #1
   86486:	ad2a      	add	r5, sp, #168	; 0xa8
   86488:	3630      	adds	r6, #48	; 0x30
   8648a:	f805 6d41 	strb.w	r6, [r5, #-65]!
   8648e:	9303      	str	r3, [sp, #12]
   86490:	e770      	b.n	86374 <_svfiprintf_r+0x770>
   86492:	aa0d      	add	r2, sp, #52	; 0x34
   86494:	9902      	ldr	r1, [sp, #8]
   86496:	9805      	ldr	r0, [sp, #20]
   86498:	f7ff fb3a 	bl	85b10 <__ssprint_r>
   8649c:	2800      	cmp	r0, #0
   8649e:	f47f acc5 	bne.w	85e2c <_svfiprintf_r+0x228>
   864a2:	e9dd 320e 	ldrd	r3, r2, [sp, #56]	; 0x38
   864a6:	f10d 0a68 	add.w	sl, sp, #104	; 0x68
   864aa:	f103 0c01 	add.w	ip, r3, #1
   864ae:	a81c      	add	r0, sp, #112	; 0x70
   864b0:	e671      	b.n	86196 <_svfiprintf_r+0x592>
   864b2:	f8cd 900c 	str.w	r9, [sp, #12]
   864b6:	ad1a      	add	r5, sp, #104	; 0x68
   864b8:	e75c      	b.n	86374 <_svfiprintf_r+0x770>
   864ba:	17f7      	asrs	r7, r6, #31
   864bc:	2e00      	cmp	r6, #0
   864be:	f177 0300 	sbcs.w	r3, r7, #0
   864c2:	f6bf ad81 	bge.w	85fc8 <_svfiprintf_r+0x3c4>
   864c6:	242d      	movs	r4, #45	; 0x2d
   864c8:	4276      	negs	r6, r6
   864ca:	eb67 0747 	sbc.w	r7, r7, r7, lsl #1
   864ce:	f88d 402f 	strb.w	r4, [sp, #47]	; 0x2f
   864d2:	e57b      	b.n	85fcc <_svfiprintf_r+0x3c8>
   864d4:	2700      	movs	r7, #0
   864d6:	e51a      	b.n	85f0e <_svfiprintf_r+0x30a>
   864d8:	aa0d      	add	r2, sp, #52	; 0x34
   864da:	9902      	ldr	r1, [sp, #8]
   864dc:	9805      	ldr	r0, [sp, #20]
   864de:	9309      	str	r3, [sp, #36]	; 0x24
   864e0:	f7ff fb16 	bl	85b10 <__ssprint_r>
   864e4:	2800      	cmp	r0, #0
   864e6:	f47f aca1 	bne.w	85e2c <_svfiprintf_r+0x228>
   864ea:	e9dd 120e 	ldrd	r1, r2, [sp, #56]	; 0x38
   864ee:	f10d 0a68 	add.w	sl, sp, #104	; 0x68
   864f2:	9b09      	ldr	r3, [sp, #36]	; 0x24
   864f4:	e5e1      	b.n	860ba <_svfiprintf_r+0x4b6>
   864f6:	aa0d      	add	r2, sp, #52	; 0x34
   864f8:	9902      	ldr	r1, [sp, #8]
   864fa:	9805      	ldr	r0, [sp, #20]
   864fc:	f7ff fb08 	bl	85b10 <__ssprint_r>
   86500:	2800      	cmp	r0, #0
   86502:	f47f ac93 	bne.w	85e2c <_svfiprintf_r+0x228>
   86506:	9a0f      	ldr	r2, [sp, #60]	; 0x3c
   86508:	e68c      	b.n	86224 <_svfiprintf_r+0x620>
   8650a:	ad1a      	add	r5, sp, #104	; 0x68
   8650c:	e732      	b.n	86374 <_svfiprintf_r+0x770>
   8650e:	9901      	ldr	r1, [sp, #4]
   86510:	9306      	str	r3, [sp, #24]
   86512:	17cd      	asrs	r5, r1, #31
   86514:	4608      	mov	r0, r1
   86516:	4629      	mov	r1, r5
   86518:	e9c2 0100 	strd	r0, r1, [r2]
   8651c:	f7ff bb8a 	b.w	85c34 <_svfiprintf_r+0x30>
   86520:	f018 0f40 	tst.w	r8, #64	; 0x40
   86524:	bf18      	it	ne
   86526:	b2b6      	uxthne	r6, r6
   86528:	2700      	movs	r7, #0
   8652a:	2301      	movs	r3, #1
   8652c:	e6c7      	b.n	862be <_svfiprintf_r+0x6ba>
   8652e:	f018 0340 	ands.w	r3, r8, #64	; 0x40
   86532:	bf1c      	itt	ne
   86534:	4613      	movne	r3, r2
   86536:	b2b6      	uxthne	r6, r6
   86538:	2700      	movs	r7, #0
   8653a:	e6c0      	b.n	862be <_svfiprintf_r+0x6ba>
   8653c:	00087078 	.word	0x00087078
   86540:	0008708c 	.word	0x0008708c
   86544:	00087208 	.word	0x00087208
   86548:	2140      	movs	r1, #64	; 0x40
   8654a:	f7fe f8bb 	bl	846c4 <_malloc_r>
   8654e:	9b02      	ldr	r3, [sp, #8]
   86550:	6018      	str	r0, [r3, #0]
   86552:	6118      	str	r0, [r3, #16]
   86554:	2800      	cmp	r0, #0
   86556:	d06b      	beq.n	86630 <_svfiprintf_r+0xa2c>
   86558:	2340      	movs	r3, #64	; 0x40
   8655a:	9a02      	ldr	r2, [sp, #8]
   8655c:	6153      	str	r3, [r2, #20]
   8655e:	f7ff bb60 	b.w	85c22 <_svfiprintf_r+0x1e>
   86562:	4628      	mov	r0, r5
   86564:	9406      	str	r4, [sp, #24]
   86566:	f8cd 8000 	str.w	r8, [sp]
   8656a:	f7fb fcd5 	bl	81f18 <strlen>
   8656e:	f04f 0900 	mov.w	r9, #0
   86572:	9003      	str	r0, [sp, #12]
   86574:	f89d 402f 	ldrb.w	r4, [sp, #47]	; 0x2f
   86578:	e6fc      	b.n	86374 <_svfiprintf_r+0x770>
   8657a:	9901      	ldr	r1, [sp, #4]
   8657c:	6011      	str	r1, [r2, #0]
   8657e:	9306      	str	r3, [sp, #24]
   86580:	f7ff bb58 	b.w	85c34 <_svfiprintf_r+0x30>
   86584:	2b01      	cmp	r3, #1
   86586:	f47f ac0a 	bne.w	85d9e <_svfiprintf_r+0x19a>
   8658a:	e77b      	b.n	86484 <_svfiprintf_r+0x880>
   8658c:	ad1a      	add	r5, sp, #104	; 0x68
   8658e:	4630      	mov	r0, r6
   86590:	4639      	mov	r1, r7
   86592:	220a      	movs	r2, #10
   86594:	2300      	movs	r3, #0
   86596:	f7fb fa6f 	bl	81a78 <__aeabi_uldivmod>
   8659a:	3230      	adds	r2, #48	; 0x30
   8659c:	f805 2d01 	strb.w	r2, [r5, #-1]!
   865a0:	4630      	mov	r0, r6
   865a2:	4639      	mov	r1, r7
   865a4:	2300      	movs	r3, #0
   865a6:	220a      	movs	r2, #10
   865a8:	f7fb fa66 	bl	81a78 <__aeabi_uldivmod>
   865ac:	4606      	mov	r6, r0
   865ae:	460f      	mov	r7, r1
   865b0:	ea56 0307 	orrs.w	r3, r6, r7
   865b4:	d1eb      	bne.n	8658e <_svfiprintf_r+0x98a>
   865b6:	e6da      	b.n	8636e <_svfiprintf_r+0x76a>
   865b8:	aa0d      	add	r2, sp, #52	; 0x34
   865ba:	9902      	ldr	r1, [sp, #8]
   865bc:	9805      	ldr	r0, [sp, #20]
   865be:	f7ff faa7 	bl	85b10 <__ssprint_r>
   865c2:	2800      	cmp	r0, #0
   865c4:	f47f ac32 	bne.w	85e2c <_svfiprintf_r+0x228>
   865c8:	e9dd 120e 	ldrd	r1, r2, [sp, #56]	; 0x38
   865cc:	f10d 0a68 	add.w	sl, sp, #104	; 0x68
   865d0:	f101 0c01 	add.w	ip, r1, #1
   865d4:	a81c      	add	r0, sp, #112	; 0x70
   865d6:	e59f      	b.n	86118 <_svfiprintf_r+0x514>
   865d8:	4603      	mov	r3, r0
   865da:	4c22      	ldr	r4, [pc, #136]	; (86664 <_svfiprintf_r+0xa60>)
   865dc:	e5cc      	b.n	86178 <_svfiprintf_r+0x574>
   865de:	464e      	mov	r6, r9
   865e0:	2e06      	cmp	r6, #6
   865e2:	bf28      	it	cs
   865e4:	2606      	movcs	r6, #6
   865e6:	9406      	str	r4, [sp, #24]
   865e8:	9603      	str	r6, [sp, #12]
   865ea:	4d1f      	ldr	r5, [pc, #124]	; (86668 <_svfiprintf_r+0xa64>)
   865ec:	e518      	b.n	86020 <_svfiprintf_r+0x41c>
   865ee:	4f1f      	ldr	r7, [pc, #124]	; (8666c <_svfiprintf_r+0xa68>)
   865f0:	e558      	b.n	860a4 <_svfiprintf_r+0x4a0>
   865f2:	4f1e      	ldr	r7, [pc, #120]	; (8666c <_svfiprintf_r+0xa68>)
   865f4:	e60d      	b.n	86212 <_svfiprintf_r+0x60e>
   865f6:	46a3      	mov	fp, r4
   865f8:	f04f 0900 	mov.w	r9, #0
   865fc:	f7ff bb4f 	b.w	85c9e <_svfiprintf_r+0x9a>
   86600:	f8cd 900c 	str.w	r9, [sp, #12]
   86604:	9406      	str	r4, [sp, #24]
   86606:	f8cd 8000 	str.w	r8, [sp]
   8660a:	4681      	mov	r9, r0
   8660c:	f89d 402f 	ldrb.w	r4, [sp, #47]	; 0x2f
   86610:	e6b0      	b.n	86374 <_svfiprintf_r+0x770>
   86612:	4603      	mov	r3, r0
   86614:	4661      	mov	r1, ip
   86616:	4c13      	ldr	r4, [pc, #76]	; (86664 <_svfiprintf_r+0xa60>)
   86618:	e6e9      	b.n	863ee <_svfiprintf_r+0x7ea>
   8661a:	9d06      	ldr	r5, [sp, #24]
   8661c:	f89b 3001 	ldrb.w	r3, [fp, #1]
   86620:	682a      	ldr	r2, [r5, #0]
   86622:	46a3      	mov	fp, r4
   86624:	ea42 79e2 	orr.w	r9, r2, r2, asr #31
   86628:	1d2a      	adds	r2, r5, #4
   8662a:	9206      	str	r2, [sp, #24]
   8662c:	f7ff bb35 	b.w	85c9a <_svfiprintf_r+0x96>
   86630:	f04f 32ff 	mov.w	r2, #4294967295	; 0xffffffff
   86634:	230c      	movs	r3, #12
   86636:	9201      	str	r2, [sp, #4]
   86638:	9a05      	ldr	r2, [sp, #20]
   8663a:	6013      	str	r3, [r2, #0]
   8663c:	f7ff bbff 	b.w	85e3e <_svfiprintf_r+0x23a>
   86640:	f88d 002f 	strb.w	r0, [sp, #47]	; 0x2f
   86644:	e618      	b.n	86278 <_svfiprintf_r+0x674>
   86646:	f88d 002f 	strb.w	r0, [sp, #47]	; 0x2f
   8664a:	e645      	b.n	862d8 <_svfiprintf_r+0x6d4>
   8664c:	f88d 002f 	strb.w	r0, [sp, #47]	; 0x2f
   86650:	e670      	b.n	86334 <_svfiprintf_r+0x730>
   86652:	f88d 002f 	strb.w	r0, [sp, #47]	; 0x2f
   86656:	e4a5      	b.n	85fa4 <_svfiprintf_r+0x3a0>
   86658:	f88d 002f 	strb.w	r0, [sp, #47]	; 0x2f
   8665c:	e5f4      	b.n	86248 <_svfiprintf_r+0x644>
   8665e:	f88d 002f 	strb.w	r0, [sp, #47]	; 0x2f
   86662:	e445      	b.n	85ef0 <_svfiprintf_r+0x2ec>
   86664:	00087208 	.word	0x00087208
   86668:	000870a0 	.word	0x000870a0
   8666c:	000871f8 	.word	0x000871f8

00086670 <_wctomb_r>:
   86670:	b410      	push	{r4}
   86672:	4c03      	ldr	r4, [pc, #12]	; (86680 <_wctomb_r+0x10>)
   86674:	f8d4 40e0 	ldr.w	r4, [r4, #224]	; 0xe0
   86678:	46a4      	mov	ip, r4
   8667a:	bc10      	pop	{r4}
   8667c:	4760      	bx	ip
   8667e:	bf00      	nop
   86680:	200705f8 	.word	0x200705f8

00086684 <__ascii_wctomb>:
   86684:	b119      	cbz	r1, 8668e <__ascii_wctomb+0xa>
   86686:	2aff      	cmp	r2, #255	; 0xff
   86688:	d803      	bhi.n	86692 <__ascii_wctomb+0xe>
   8668a:	700a      	strb	r2, [r1, #0]
   8668c:	2101      	movs	r1, #1
   8668e:	4608      	mov	r0, r1
   86690:	4770      	bx	lr
   86692:	238a      	movs	r3, #138	; 0x8a
   86694:	f04f 31ff 	mov.w	r1, #4294967295	; 0xffffffff
   86698:	6003      	str	r3, [r0, #0]
   8669a:	e7f8      	b.n	8668e <__ascii_wctomb+0xa>

0008669c <_calloc_r>:
   8669c:	b510      	push	{r4, lr}
   8669e:	fb02 f101 	mul.w	r1, r2, r1
   866a2:	f7fe f80f 	bl	846c4 <_malloc_r>
   866a6:	4604      	mov	r4, r0
   866a8:	b1e8      	cbz	r0, 866e6 <_calloc_r+0x4a>
   866aa:	f850 2c04 	ldr.w	r2, [r0, #-4]
   866ae:	f022 0203 	bic.w	r2, r2, #3
   866b2:	3a04      	subs	r2, #4
   866b4:	2a24      	cmp	r2, #36	; 0x24
   866b6:	d81f      	bhi.n	866f8 <_calloc_r+0x5c>
   866b8:	2a13      	cmp	r2, #19
   866ba:	d916      	bls.n	866ea <_calloc_r+0x4e>
   866bc:	2300      	movs	r3, #0
   866be:	2a1b      	cmp	r2, #27
   866c0:	e9c0 3300 	strd	r3, r3, [r0]
   866c4:	d91d      	bls.n	86702 <_calloc_r+0x66>
   866c6:	2a24      	cmp	r2, #36	; 0x24
   866c8:	e9c0 3302 	strd	r3, r3, [r0, #8]
   866cc:	bf08      	it	eq
   866ce:	e9c0 3304 	strdeq	r3, r3, [r0, #16]
   866d2:	f04f 0300 	mov.w	r3, #0
   866d6:	bf14      	ite	ne
   866d8:	f100 0210 	addne.w	r2, r0, #16
   866dc:	f100 0218 	addeq.w	r2, r0, #24
   866e0:	e9c2 3300 	strd	r3, r3, [r2]
   866e4:	6093      	str	r3, [r2, #8]
   866e6:	4620      	mov	r0, r4
   866e8:	bd10      	pop	{r4, pc}
   866ea:	4602      	mov	r2, r0
   866ec:	2300      	movs	r3, #0
   866ee:	4620      	mov	r0, r4
   866f0:	e9c2 3300 	strd	r3, r3, [r2]
   866f4:	6093      	str	r3, [r2, #8]
   866f6:	bd10      	pop	{r4, pc}
   866f8:	2100      	movs	r1, #0
   866fa:	f7fb fb83 	bl	81e04 <memset>
   866fe:	4620      	mov	r0, r4
   86700:	bd10      	pop	{r4, pc}
   86702:	f100 0208 	add.w	r2, r0, #8
   86706:	e7f1      	b.n	866ec <_calloc_r+0x50>

00086708 <__aeabi_drsub>:
   86708:	f081 4100 	eor.w	r1, r1, #2147483648	; 0x80000000
   8670c:	e002      	b.n	86714 <__adddf3>
   8670e:	bf00      	nop

00086710 <__aeabi_dsub>:
   86710:	f083 4300 	eor.w	r3, r3, #2147483648	; 0x80000000

00086714 <__adddf3>:
   86714:	b530      	push	{r4, r5, lr}
   86716:	ea4f 0441 	mov.w	r4, r1, lsl #1
   8671a:	ea4f 0543 	mov.w	r5, r3, lsl #1
   8671e:	ea94 0f05 	teq	r4, r5
   86722:	bf08      	it	eq
   86724:	ea90 0f02 	teqeq	r0, r2
   86728:	bf1f      	itttt	ne
   8672a:	ea54 0c00 	orrsne.w	ip, r4, r0
   8672e:	ea55 0c02 	orrsne.w	ip, r5, r2
   86732:	ea7f 5c64 	mvnsne.w	ip, r4, asr #21
   86736:	ea7f 5c65 	mvnsne.w	ip, r5, asr #21
   8673a:	f000 80e2 	beq.w	86902 <__adddf3+0x1ee>
   8673e:	ea4f 5454 	mov.w	r4, r4, lsr #21
   86742:	ebd4 5555 	rsbs	r5, r4, r5, lsr #21
   86746:	bfb8      	it	lt
   86748:	426d      	neglt	r5, r5
   8674a:	dd0c      	ble.n	86766 <__adddf3+0x52>
   8674c:	442c      	add	r4, r5
   8674e:	ea80 0202 	eor.w	r2, r0, r2
   86752:	ea81 0303 	eor.w	r3, r1, r3
   86756:	ea82 0000 	eor.w	r0, r2, r0
   8675a:	ea83 0101 	eor.w	r1, r3, r1
   8675e:	ea80 0202 	eor.w	r2, r0, r2
   86762:	ea81 0303 	eor.w	r3, r1, r3
   86766:	2d36      	cmp	r5, #54	; 0x36
   86768:	bf88      	it	hi
   8676a:	bd30      	pophi	{r4, r5, pc}
   8676c:	f011 4f00 	tst.w	r1, #2147483648	; 0x80000000
   86770:	ea4f 3101 	mov.w	r1, r1, lsl #12
   86774:	f44f 1c80 	mov.w	ip, #1048576	; 0x100000
   86778:	ea4c 3111 	orr.w	r1, ip, r1, lsr #12
   8677c:	d002      	beq.n	86784 <__adddf3+0x70>
   8677e:	4240      	negs	r0, r0
   86780:	eb61 0141 	sbc.w	r1, r1, r1, lsl #1
   86784:	f013 4f00 	tst.w	r3, #2147483648	; 0x80000000
   86788:	ea4f 3303 	mov.w	r3, r3, lsl #12
   8678c:	ea4c 3313 	orr.w	r3, ip, r3, lsr #12
   86790:	d002      	beq.n	86798 <__adddf3+0x84>
   86792:	4252      	negs	r2, r2
   86794:	eb63 0343 	sbc.w	r3, r3, r3, lsl #1
   86798:	ea94 0f05 	teq	r4, r5
   8679c:	f000 80a7 	beq.w	868ee <__adddf3+0x1da>
   867a0:	f1a4 0401 	sub.w	r4, r4, #1
   867a4:	f1d5 0e20 	rsbs	lr, r5, #32
   867a8:	db0d      	blt.n	867c6 <__adddf3+0xb2>
   867aa:	fa02 fc0e 	lsl.w	ip, r2, lr
   867ae:	fa22 f205 	lsr.w	r2, r2, r5
   867b2:	1880      	adds	r0, r0, r2
   867b4:	f141 0100 	adc.w	r1, r1, #0
   867b8:	fa03 f20e 	lsl.w	r2, r3, lr
   867bc:	1880      	adds	r0, r0, r2
   867be:	fa43 f305 	asr.w	r3, r3, r5
   867c2:	4159      	adcs	r1, r3
   867c4:	e00e      	b.n	867e4 <__adddf3+0xd0>
   867c6:	f1a5 0520 	sub.w	r5, r5, #32
   867ca:	f10e 0e20 	add.w	lr, lr, #32
   867ce:	2a01      	cmp	r2, #1
   867d0:	fa03 fc0e 	lsl.w	ip, r3, lr
   867d4:	bf28      	it	cs
   867d6:	f04c 0c02 	orrcs.w	ip, ip, #2
   867da:	fa43 f305 	asr.w	r3, r3, r5
   867de:	18c0      	adds	r0, r0, r3
   867e0:	eb51 71e3 	adcs.w	r1, r1, r3, asr #31
   867e4:	f001 4500 	and.w	r5, r1, #2147483648	; 0x80000000
   867e8:	d507      	bpl.n	867fa <__adddf3+0xe6>
   867ea:	f04f 0e00 	mov.w	lr, #0
   867ee:	f1dc 0c00 	rsbs	ip, ip, #0
   867f2:	eb7e 0000 	sbcs.w	r0, lr, r0
   867f6:	eb6e 0101 	sbc.w	r1, lr, r1
   867fa:	f5b1 1f80 	cmp.w	r1, #1048576	; 0x100000
   867fe:	d31b      	bcc.n	86838 <__adddf3+0x124>
   86800:	f5b1 1f00 	cmp.w	r1, #2097152	; 0x200000
   86804:	d30c      	bcc.n	86820 <__adddf3+0x10c>
   86806:	0849      	lsrs	r1, r1, #1
   86808:	ea5f 0030 	movs.w	r0, r0, rrx
   8680c:	ea4f 0c3c 	mov.w	ip, ip, rrx
   86810:	f104 0401 	add.w	r4, r4, #1
   86814:	ea4f 5244 	mov.w	r2, r4, lsl #21
   86818:	f512 0f80 	cmn.w	r2, #4194304	; 0x400000
   8681c:	f080 809a 	bcs.w	86954 <__adddf3+0x240>
   86820:	f1bc 4f00 	cmp.w	ip, #2147483648	; 0x80000000
   86824:	bf08      	it	eq
   86826:	ea5f 0c50 	movseq.w	ip, r0, lsr #1
   8682a:	f150 0000 	adcs.w	r0, r0, #0
   8682e:	eb41 5104 	adc.w	r1, r1, r4, lsl #20
   86832:	ea41 0105 	orr.w	r1, r1, r5
   86836:	bd30      	pop	{r4, r5, pc}
   86838:	ea5f 0c4c 	movs.w	ip, ip, lsl #1
   8683c:	4140      	adcs	r0, r0
   8683e:	eb41 0101 	adc.w	r1, r1, r1
   86842:	f411 1f80 	tst.w	r1, #1048576	; 0x100000
   86846:	f1a4 0401 	sub.w	r4, r4, #1
   8684a:	d1e9      	bne.n	86820 <__adddf3+0x10c>
   8684c:	f091 0f00 	teq	r1, #0
   86850:	bf04      	itt	eq
   86852:	4601      	moveq	r1, r0
   86854:	2000      	moveq	r0, #0
   86856:	fab1 f381 	clz	r3, r1
   8685a:	bf08      	it	eq
   8685c:	3320      	addeq	r3, #32
   8685e:	f1a3 030b 	sub.w	r3, r3, #11
   86862:	f1b3 0220 	subs.w	r2, r3, #32
   86866:	da0c      	bge.n	86882 <__adddf3+0x16e>
   86868:	320c      	adds	r2, #12
   8686a:	dd08      	ble.n	8687e <__adddf3+0x16a>
   8686c:	f102 0c14 	add.w	ip, r2, #20
   86870:	f1c2 020c 	rsb	r2, r2, #12
   86874:	fa01 f00c 	lsl.w	r0, r1, ip
   86878:	fa21 f102 	lsr.w	r1, r1, r2
   8687c:	e00c      	b.n	86898 <__adddf3+0x184>
   8687e:	f102 0214 	add.w	r2, r2, #20
   86882:	bfd8      	it	le
   86884:	f1c2 0c20 	rsble	ip, r2, #32
   86888:	fa01 f102 	lsl.w	r1, r1, r2
   8688c:	fa20 fc0c 	lsr.w	ip, r0, ip
   86890:	bfdc      	itt	le
   86892:	ea41 010c 	orrle.w	r1, r1, ip
   86896:	4090      	lslle	r0, r2
   86898:	1ae4      	subs	r4, r4, r3
   8689a:	bfa2      	ittt	ge
   8689c:	eb01 5104 	addge.w	r1, r1, r4, lsl #20
   868a0:	4329      	orrge	r1, r5
   868a2:	bd30      	popge	{r4, r5, pc}
   868a4:	ea6f 0404 	mvn.w	r4, r4
   868a8:	3c1f      	subs	r4, #31
   868aa:	da1c      	bge.n	868e6 <__adddf3+0x1d2>
   868ac:	340c      	adds	r4, #12
   868ae:	dc0e      	bgt.n	868ce <__adddf3+0x1ba>
   868b0:	f104 0414 	add.w	r4, r4, #20
   868b4:	f1c4 0220 	rsb	r2, r4, #32
   868b8:	fa20 f004 	lsr.w	r0, r0, r4
   868bc:	fa01 f302 	lsl.w	r3, r1, r2
   868c0:	ea40 0003 	orr.w	r0, r0, r3
   868c4:	fa21 f304 	lsr.w	r3, r1, r4
   868c8:	ea45 0103 	orr.w	r1, r5, r3
   868cc:	bd30      	pop	{r4, r5, pc}
   868ce:	f1c4 040c 	rsb	r4, r4, #12
   868d2:	f1c4 0220 	rsb	r2, r4, #32
   868d6:	fa20 f002 	lsr.w	r0, r0, r2
   868da:	fa01 f304 	lsl.w	r3, r1, r4
   868de:	ea40 0003 	orr.w	r0, r0, r3
   868e2:	4629      	mov	r1, r5
   868e4:	bd30      	pop	{r4, r5, pc}
   868e6:	fa21 f004 	lsr.w	r0, r1, r4
   868ea:	4629      	mov	r1, r5
   868ec:	bd30      	pop	{r4, r5, pc}
   868ee:	f094 0f00 	teq	r4, #0
   868f2:	f483 1380 	eor.w	r3, r3, #1048576	; 0x100000
   868f6:	bf06      	itte	eq
   868f8:	f481 1180 	eoreq.w	r1, r1, #1048576	; 0x100000
   868fc:	3401      	addeq	r4, #1
   868fe:	3d01      	subne	r5, #1
   86900:	e74e      	b.n	867a0 <__adddf3+0x8c>
   86902:	ea7f 5c64 	mvns.w	ip, r4, asr #21
   86906:	bf18      	it	ne
   86908:	ea7f 5c65 	mvnsne.w	ip, r5, asr #21
   8690c:	d029      	beq.n	86962 <__adddf3+0x24e>
   8690e:	ea94 0f05 	teq	r4, r5
   86912:	bf08      	it	eq
   86914:	ea90 0f02 	teqeq	r0, r2
   86918:	d005      	beq.n	86926 <__adddf3+0x212>
   8691a:	ea54 0c00 	orrs.w	ip, r4, r0
   8691e:	bf04      	itt	eq
   86920:	4619      	moveq	r1, r3
   86922:	4610      	moveq	r0, r2
   86924:	bd30      	pop	{r4, r5, pc}
   86926:	ea91 0f03 	teq	r1, r3
   8692a:	bf1e      	ittt	ne
   8692c:	2100      	movne	r1, #0
   8692e:	2000      	movne	r0, #0
   86930:	bd30      	popne	{r4, r5, pc}
   86932:	ea5f 5c54 	movs.w	ip, r4, lsr #21
   86936:	d105      	bne.n	86944 <__adddf3+0x230>
   86938:	0040      	lsls	r0, r0, #1
   8693a:	4149      	adcs	r1, r1
   8693c:	bf28      	it	cs
   8693e:	f041 4100 	orrcs.w	r1, r1, #2147483648	; 0x80000000
   86942:	bd30      	pop	{r4, r5, pc}
   86944:	f514 0480 	adds.w	r4, r4, #4194304	; 0x400000
   86948:	bf3c      	itt	cc
   8694a:	f501 1180 	addcc.w	r1, r1, #1048576	; 0x100000
   8694e:	bd30      	popcc	{r4, r5, pc}
   86950:	f001 4500 	and.w	r5, r1, #2147483648	; 0x80000000
   86954:	f045 41fe 	orr.w	r1, r5, #2130706432	; 0x7f000000
   86958:	f441 0170 	orr.w	r1, r1, #15728640	; 0xf00000
   8695c:	f04f 0000 	mov.w	r0, #0
   86960:	bd30      	pop	{r4, r5, pc}
   86962:	ea7f 5c64 	mvns.w	ip, r4, asr #21
   86966:	bf1a      	itte	ne
   86968:	4619      	movne	r1, r3
   8696a:	4610      	movne	r0, r2
   8696c:	ea7f 5c65 	mvnseq.w	ip, r5, asr #21
   86970:	bf1c      	itt	ne
   86972:	460b      	movne	r3, r1
   86974:	4602      	movne	r2, r0
   86976:	ea50 3401 	orrs.w	r4, r0, r1, lsl #12
   8697a:	bf06      	itte	eq
   8697c:	ea52 3503 	orrseq.w	r5, r2, r3, lsl #12
   86980:	ea91 0f03 	teqeq	r1, r3
   86984:	f441 2100 	orrne.w	r1, r1, #524288	; 0x80000
   86988:	bd30      	pop	{r4, r5, pc}
   8698a:	bf00      	nop

0008698c <__aeabi_ui2d>:
   8698c:	f090 0f00 	teq	r0, #0
   86990:	bf04      	itt	eq
   86992:	2100      	moveq	r1, #0
   86994:	4770      	bxeq	lr
   86996:	b530      	push	{r4, r5, lr}
   86998:	f44f 6480 	mov.w	r4, #1024	; 0x400
   8699c:	f104 0432 	add.w	r4, r4, #50	; 0x32
   869a0:	f04f 0500 	mov.w	r5, #0
   869a4:	f04f 0100 	mov.w	r1, #0
   869a8:	e750      	b.n	8684c <__adddf3+0x138>
   869aa:	bf00      	nop

000869ac <__aeabi_i2d>:
   869ac:	f090 0f00 	teq	r0, #0
   869b0:	bf04      	itt	eq
   869b2:	2100      	moveq	r1, #0
   869b4:	4770      	bxeq	lr
   869b6:	b530      	push	{r4, r5, lr}
   869b8:	f44f 6480 	mov.w	r4, #1024	; 0x400
   869bc:	f104 0432 	add.w	r4, r4, #50	; 0x32
   869c0:	f010 4500 	ands.w	r5, r0, #2147483648	; 0x80000000
   869c4:	bf48      	it	mi
   869c6:	4240      	negmi	r0, r0
   869c8:	f04f 0100 	mov.w	r1, #0
   869cc:	e73e      	b.n	8684c <__adddf3+0x138>
   869ce:	bf00      	nop

000869d0 <__aeabi_f2d>:
   869d0:	0042      	lsls	r2, r0, #1
   869d2:	ea4f 01e2 	mov.w	r1, r2, asr #3
   869d6:	ea4f 0131 	mov.w	r1, r1, rrx
   869da:	ea4f 7002 	mov.w	r0, r2, lsl #28
   869de:	bf1f      	itttt	ne
   869e0:	f012 437f 	andsne.w	r3, r2, #4278190080	; 0xff000000
   869e4:	f093 4f7f 	teqne	r3, #4278190080	; 0xff000000
   869e8:	f081 5160 	eorne.w	r1, r1, #939524096	; 0x38000000
   869ec:	4770      	bxne	lr
   869ee:	f032 427f 	bics.w	r2, r2, #4278190080	; 0xff000000
   869f2:	bf08      	it	eq
   869f4:	4770      	bxeq	lr
   869f6:	f093 4f7f 	teq	r3, #4278190080	; 0xff000000
   869fa:	bf04      	itt	eq
   869fc:	f441 2100 	orreq.w	r1, r1, #524288	; 0x80000
   86a00:	4770      	bxeq	lr
   86a02:	b530      	push	{r4, r5, lr}
   86a04:	f44f 7460 	mov.w	r4, #896	; 0x380
   86a08:	f001 4500 	and.w	r5, r1, #2147483648	; 0x80000000
   86a0c:	f021 4100 	bic.w	r1, r1, #2147483648	; 0x80000000
   86a10:	e71c      	b.n	8684c <__adddf3+0x138>
   86a12:	bf00      	nop

00086a14 <__aeabi_ul2d>:
   86a14:	ea50 0201 	orrs.w	r2, r0, r1
   86a18:	bf08      	it	eq
   86a1a:	4770      	bxeq	lr
   86a1c:	b530      	push	{r4, r5, lr}
   86a1e:	f04f 0500 	mov.w	r5, #0
   86a22:	e00a      	b.n	86a3a <__aeabi_l2d+0x16>

00086a24 <__aeabi_l2d>:
   86a24:	ea50 0201 	orrs.w	r2, r0, r1
   86a28:	bf08      	it	eq
   86a2a:	4770      	bxeq	lr
   86a2c:	b530      	push	{r4, r5, lr}
   86a2e:	f011 4500 	ands.w	r5, r1, #2147483648	; 0x80000000
   86a32:	d502      	bpl.n	86a3a <__aeabi_l2d+0x16>
   86a34:	4240      	negs	r0, r0
   86a36:	eb61 0141 	sbc.w	r1, r1, r1, lsl #1
   86a3a:	f44f 6480 	mov.w	r4, #1024	; 0x400
   86a3e:	f104 0432 	add.w	r4, r4, #50	; 0x32
   86a42:	ea5f 5c91 	movs.w	ip, r1, lsr #22
   86a46:	f43f aed8 	beq.w	867fa <__adddf3+0xe6>
   86a4a:	f04f 0203 	mov.w	r2, #3
   86a4e:	ea5f 0cdc 	movs.w	ip, ip, lsr #3
   86a52:	bf18      	it	ne
   86a54:	3203      	addne	r2, #3
   86a56:	ea5f 0cdc 	movs.w	ip, ip, lsr #3
   86a5a:	bf18      	it	ne
   86a5c:	3203      	addne	r2, #3
   86a5e:	eb02 02dc 	add.w	r2, r2, ip, lsr #3
   86a62:	f1c2 0320 	rsb	r3, r2, #32
   86a66:	fa00 fc03 	lsl.w	ip, r0, r3
   86a6a:	fa20 f002 	lsr.w	r0, r0, r2
   86a6e:	fa01 fe03 	lsl.w	lr, r1, r3
   86a72:	ea40 000e 	orr.w	r0, r0, lr
   86a76:	fa21 f102 	lsr.w	r1, r1, r2
   86a7a:	4414      	add	r4, r2
   86a7c:	e6bd      	b.n	867fa <__adddf3+0xe6>
   86a7e:	bf00      	nop

00086a80 <__aeabi_dmul>:
   86a80:	b570      	push	{r4, r5, r6, lr}
   86a82:	f04f 0cff 	mov.w	ip, #255	; 0xff
   86a86:	f44c 6ce0 	orr.w	ip, ip, #1792	; 0x700
   86a8a:	ea1c 5411 	ands.w	r4, ip, r1, lsr #20
   86a8e:	bf1d      	ittte	ne
   86a90:	ea1c 5513 	andsne.w	r5, ip, r3, lsr #20
   86a94:	ea94 0f0c 	teqne	r4, ip
   86a98:	ea95 0f0c 	teqne	r5, ip
   86a9c:	f000 f8de 	bleq	86c5c <__aeabi_dmul+0x1dc>
   86aa0:	442c      	add	r4, r5
   86aa2:	ea81 0603 	eor.w	r6, r1, r3
   86aa6:	ea21 514c 	bic.w	r1, r1, ip, lsl #21
   86aaa:	ea23 534c 	bic.w	r3, r3, ip, lsl #21
   86aae:	ea50 3501 	orrs.w	r5, r0, r1, lsl #12
   86ab2:	bf18      	it	ne
   86ab4:	ea52 3503 	orrsne.w	r5, r2, r3, lsl #12
   86ab8:	f441 1180 	orr.w	r1, r1, #1048576	; 0x100000
   86abc:	f443 1380 	orr.w	r3, r3, #1048576	; 0x100000
   86ac0:	d038      	beq.n	86b34 <__aeabi_dmul+0xb4>
   86ac2:	fba0 ce02 	umull	ip, lr, r0, r2
   86ac6:	f04f 0500 	mov.w	r5, #0
   86aca:	fbe1 e502 	umlal	lr, r5, r1, r2
   86ace:	f006 4200 	and.w	r2, r6, #2147483648	; 0x80000000
   86ad2:	fbe0 e503 	umlal	lr, r5, r0, r3
   86ad6:	f04f 0600 	mov.w	r6, #0
   86ada:	fbe1 5603 	umlal	r5, r6, r1, r3
   86ade:	f09c 0f00 	teq	ip, #0
   86ae2:	bf18      	it	ne
   86ae4:	f04e 0e01 	orrne.w	lr, lr, #1
   86ae8:	f1a4 04ff 	sub.w	r4, r4, #255	; 0xff
   86aec:	f5b6 7f00 	cmp.w	r6, #512	; 0x200
   86af0:	f564 7440 	sbc.w	r4, r4, #768	; 0x300
   86af4:	d204      	bcs.n	86b00 <__aeabi_dmul+0x80>
   86af6:	ea5f 0e4e 	movs.w	lr, lr, lsl #1
   86afa:	416d      	adcs	r5, r5
   86afc:	eb46 0606 	adc.w	r6, r6, r6
   86b00:	ea42 21c6 	orr.w	r1, r2, r6, lsl #11
   86b04:	ea41 5155 	orr.w	r1, r1, r5, lsr #21
   86b08:	ea4f 20c5 	mov.w	r0, r5, lsl #11
   86b0c:	ea40 505e 	orr.w	r0, r0, lr, lsr #21
   86b10:	ea4f 2ece 	mov.w	lr, lr, lsl #11
   86b14:	f1b4 0cfd 	subs.w	ip, r4, #253	; 0xfd
   86b18:	bf88      	it	hi
   86b1a:	f5bc 6fe0 	cmphi.w	ip, #1792	; 0x700
   86b1e:	d81e      	bhi.n	86b5e <__aeabi_dmul+0xde>
   86b20:	f1be 4f00 	cmp.w	lr, #2147483648	; 0x80000000
   86b24:	bf08      	it	eq
   86b26:	ea5f 0e50 	movseq.w	lr, r0, lsr #1
   86b2a:	f150 0000 	adcs.w	r0, r0, #0
   86b2e:	eb41 5104 	adc.w	r1, r1, r4, lsl #20
   86b32:	bd70      	pop	{r4, r5, r6, pc}
   86b34:	f006 4600 	and.w	r6, r6, #2147483648	; 0x80000000
   86b38:	ea46 0101 	orr.w	r1, r6, r1
   86b3c:	ea40 0002 	orr.w	r0, r0, r2
   86b40:	ea81 0103 	eor.w	r1, r1, r3
   86b44:	ebb4 045c 	subs.w	r4, r4, ip, lsr #1
   86b48:	bfc2      	ittt	gt
   86b4a:	ebd4 050c 	rsbsgt	r5, r4, ip
   86b4e:	ea41 5104 	orrgt.w	r1, r1, r4, lsl #20
   86b52:	bd70      	popgt	{r4, r5, r6, pc}
   86b54:	f441 1180 	orr.w	r1, r1, #1048576	; 0x100000
   86b58:	f04f 0e00 	mov.w	lr, #0
   86b5c:	3c01      	subs	r4, #1
   86b5e:	f300 80ab 	bgt.w	86cb8 <__aeabi_dmul+0x238>
   86b62:	f114 0f36 	cmn.w	r4, #54	; 0x36
   86b66:	bfde      	ittt	le
   86b68:	2000      	movle	r0, #0
   86b6a:	f001 4100 	andle.w	r1, r1, #2147483648	; 0x80000000
   86b6e:	bd70      	pople	{r4, r5, r6, pc}
   86b70:	f1c4 0400 	rsb	r4, r4, #0
   86b74:	3c20      	subs	r4, #32
   86b76:	da35      	bge.n	86be4 <__aeabi_dmul+0x164>
   86b78:	340c      	adds	r4, #12
   86b7a:	dc1b      	bgt.n	86bb4 <__aeabi_dmul+0x134>
   86b7c:	f104 0414 	add.w	r4, r4, #20
   86b80:	f1c4 0520 	rsb	r5, r4, #32
   86b84:	fa00 f305 	lsl.w	r3, r0, r5
   86b88:	fa20 f004 	lsr.w	r0, r0, r4
   86b8c:	fa01 f205 	lsl.w	r2, r1, r5
   86b90:	ea40 0002 	orr.w	r0, r0, r2
   86b94:	f001 4200 	and.w	r2, r1, #2147483648	; 0x80000000
   86b98:	f021 4100 	bic.w	r1, r1, #2147483648	; 0x80000000
   86b9c:	eb10 70d3 	adds.w	r0, r0, r3, lsr #31
   86ba0:	fa21 f604 	lsr.w	r6, r1, r4
   86ba4:	eb42 0106 	adc.w	r1, r2, r6
   86ba8:	ea5e 0e43 	orrs.w	lr, lr, r3, lsl #1
   86bac:	bf08      	it	eq
   86bae:	ea20 70d3 	biceq.w	r0, r0, r3, lsr #31
   86bb2:	bd70      	pop	{r4, r5, r6, pc}
   86bb4:	f1c4 040c 	rsb	r4, r4, #12
   86bb8:	f1c4 0520 	rsb	r5, r4, #32
   86bbc:	fa00 f304 	lsl.w	r3, r0, r4
   86bc0:	fa20 f005 	lsr.w	r0, r0, r5
   86bc4:	fa01 f204 	lsl.w	r2, r1, r4
   86bc8:	ea40 0002 	orr.w	r0, r0, r2
   86bcc:	f001 4100 	and.w	r1, r1, #2147483648	; 0x80000000
   86bd0:	eb10 70d3 	adds.w	r0, r0, r3, lsr #31
   86bd4:	f141 0100 	adc.w	r1, r1, #0
   86bd8:	ea5e 0e43 	orrs.w	lr, lr, r3, lsl #1
   86bdc:	bf08      	it	eq
   86bde:	ea20 70d3 	biceq.w	r0, r0, r3, lsr #31
   86be2:	bd70      	pop	{r4, r5, r6, pc}
   86be4:	f1c4 0520 	rsb	r5, r4, #32
   86be8:	fa00 f205 	lsl.w	r2, r0, r5
   86bec:	ea4e 0e02 	orr.w	lr, lr, r2
   86bf0:	fa20 f304 	lsr.w	r3, r0, r4
   86bf4:	fa01 f205 	lsl.w	r2, r1, r5
   86bf8:	ea43 0302 	orr.w	r3, r3, r2
   86bfc:	fa21 f004 	lsr.w	r0, r1, r4
   86c00:	f001 4100 	and.w	r1, r1, #2147483648	; 0x80000000
   86c04:	fa21 f204 	lsr.w	r2, r1, r4
   86c08:	ea20 0002 	bic.w	r0, r0, r2
   86c0c:	eb00 70d3 	add.w	r0, r0, r3, lsr #31
   86c10:	ea5e 0e43 	orrs.w	lr, lr, r3, lsl #1
   86c14:	bf08      	it	eq
   86c16:	ea20 70d3 	biceq.w	r0, r0, r3, lsr #31
   86c1a:	bd70      	pop	{r4, r5, r6, pc}
   86c1c:	f094 0f00 	teq	r4, #0
   86c20:	d10f      	bne.n	86c42 <__aeabi_dmul+0x1c2>
   86c22:	f001 4600 	and.w	r6, r1, #2147483648	; 0x80000000
   86c26:	0040      	lsls	r0, r0, #1
   86c28:	eb41 0101 	adc.w	r1, r1, r1
   86c2c:	f411 1f80 	tst.w	r1, #1048576	; 0x100000
   86c30:	bf08      	it	eq
   86c32:	3c01      	subeq	r4, #1
   86c34:	d0f7      	beq.n	86c26 <__aeabi_dmul+0x1a6>
   86c36:	ea41 0106 	orr.w	r1, r1, r6
   86c3a:	f095 0f00 	teq	r5, #0
   86c3e:	bf18      	it	ne
   86c40:	4770      	bxne	lr
   86c42:	f003 4600 	and.w	r6, r3, #2147483648	; 0x80000000
   86c46:	0052      	lsls	r2, r2, #1
   86c48:	eb43 0303 	adc.w	r3, r3, r3
   86c4c:	f413 1f80 	tst.w	r3, #1048576	; 0x100000
   86c50:	bf08      	it	eq
   86c52:	3d01      	subeq	r5, #1
   86c54:	d0f7      	beq.n	86c46 <__aeabi_dmul+0x1c6>
   86c56:	ea43 0306 	orr.w	r3, r3, r6
   86c5a:	4770      	bx	lr
   86c5c:	ea94 0f0c 	teq	r4, ip
   86c60:	ea0c 5513 	and.w	r5, ip, r3, lsr #20
   86c64:	bf18      	it	ne
   86c66:	ea95 0f0c 	teqne	r5, ip
   86c6a:	d00c      	beq.n	86c86 <__aeabi_dmul+0x206>
   86c6c:	ea50 0641 	orrs.w	r6, r0, r1, lsl #1
   86c70:	bf18      	it	ne
   86c72:	ea52 0643 	orrsne.w	r6, r2, r3, lsl #1
   86c76:	d1d1      	bne.n	86c1c <__aeabi_dmul+0x19c>
   86c78:	ea81 0103 	eor.w	r1, r1, r3
   86c7c:	f001 4100 	and.w	r1, r1, #2147483648	; 0x80000000
   86c80:	f04f 0000 	mov.w	r0, #0
   86c84:	bd70      	pop	{r4, r5, r6, pc}
   86c86:	ea50 0641 	orrs.w	r6, r0, r1, lsl #1
   86c8a:	bf06      	itte	eq
   86c8c:	4610      	moveq	r0, r2
   86c8e:	4619      	moveq	r1, r3
   86c90:	ea52 0643 	orrsne.w	r6, r2, r3, lsl #1
   86c94:	d019      	beq.n	86cca <__aeabi_dmul+0x24a>
   86c96:	ea94 0f0c 	teq	r4, ip
   86c9a:	d102      	bne.n	86ca2 <__aeabi_dmul+0x222>
   86c9c:	ea50 3601 	orrs.w	r6, r0, r1, lsl #12
   86ca0:	d113      	bne.n	86cca <__aeabi_dmul+0x24a>
   86ca2:	ea95 0f0c 	teq	r5, ip
   86ca6:	d105      	bne.n	86cb4 <__aeabi_dmul+0x234>
   86ca8:	ea52 3603 	orrs.w	r6, r2, r3, lsl #12
   86cac:	bf1c      	itt	ne
   86cae:	4610      	movne	r0, r2
   86cb0:	4619      	movne	r1, r3
   86cb2:	d10a      	bne.n	86cca <__aeabi_dmul+0x24a>
   86cb4:	ea81 0103 	eor.w	r1, r1, r3
   86cb8:	f001 4100 	and.w	r1, r1, #2147483648	; 0x80000000
   86cbc:	f041 41fe 	orr.w	r1, r1, #2130706432	; 0x7f000000
   86cc0:	f441 0170 	orr.w	r1, r1, #15728640	; 0xf00000
   86cc4:	f04f 0000 	mov.w	r0, #0
   86cc8:	bd70      	pop	{r4, r5, r6, pc}
   86cca:	f041 41fe 	orr.w	r1, r1, #2130706432	; 0x7f000000
   86cce:	f441 0178 	orr.w	r1, r1, #16252928	; 0xf80000
   86cd2:	bd70      	pop	{r4, r5, r6, pc}

00086cd4 <__aeabi_ddiv>:
   86cd4:	b570      	push	{r4, r5, r6, lr}
   86cd6:	f04f 0cff 	mov.w	ip, #255	; 0xff
   86cda:	f44c 6ce0 	orr.w	ip, ip, #1792	; 0x700
   86cde:	ea1c 5411 	ands.w	r4, ip, r1, lsr #20
   86ce2:	bf1d      	ittte	ne
   86ce4:	ea1c 5513 	andsne.w	r5, ip, r3, lsr #20
   86ce8:	ea94 0f0c 	teqne	r4, ip
   86cec:	ea95 0f0c 	teqne	r5, ip
   86cf0:	f000 f8a7 	bleq	86e42 <__aeabi_ddiv+0x16e>
   86cf4:	eba4 0405 	sub.w	r4, r4, r5
   86cf8:	ea81 0e03 	eor.w	lr, r1, r3
   86cfc:	ea52 3503 	orrs.w	r5, r2, r3, lsl #12
   86d00:	ea4f 3101 	mov.w	r1, r1, lsl #12
   86d04:	f000 8088 	beq.w	86e18 <__aeabi_ddiv+0x144>
   86d08:	ea4f 3303 	mov.w	r3, r3, lsl #12
   86d0c:	f04f 5580 	mov.w	r5, #268435456	; 0x10000000
   86d10:	ea45 1313 	orr.w	r3, r5, r3, lsr #4
   86d14:	ea43 6312 	orr.w	r3, r3, r2, lsr #24
   86d18:	ea4f 2202 	mov.w	r2, r2, lsl #8
   86d1c:	ea45 1511 	orr.w	r5, r5, r1, lsr #4
   86d20:	ea45 6510 	orr.w	r5, r5, r0, lsr #24
   86d24:	ea4f 2600 	mov.w	r6, r0, lsl #8
   86d28:	f00e 4100 	and.w	r1, lr, #2147483648	; 0x80000000
   86d2c:	429d      	cmp	r5, r3
   86d2e:	bf08      	it	eq
   86d30:	4296      	cmpeq	r6, r2
   86d32:	f144 04fd 	adc.w	r4, r4, #253	; 0xfd
   86d36:	f504 7440 	add.w	r4, r4, #768	; 0x300
   86d3a:	d202      	bcs.n	86d42 <__aeabi_ddiv+0x6e>
   86d3c:	085b      	lsrs	r3, r3, #1
   86d3e:	ea4f 0232 	mov.w	r2, r2, rrx
   86d42:	1ab6      	subs	r6, r6, r2
   86d44:	eb65 0503 	sbc.w	r5, r5, r3
   86d48:	085b      	lsrs	r3, r3, #1
   86d4a:	ea4f 0232 	mov.w	r2, r2, rrx
   86d4e:	f44f 1080 	mov.w	r0, #1048576	; 0x100000
   86d52:	f44f 2c00 	mov.w	ip, #524288	; 0x80000
   86d56:	ebb6 0e02 	subs.w	lr, r6, r2
   86d5a:	eb75 0e03 	sbcs.w	lr, r5, r3
   86d5e:	bf22      	ittt	cs
   86d60:	1ab6      	subcs	r6, r6, r2
   86d62:	4675      	movcs	r5, lr
   86d64:	ea40 000c 	orrcs.w	r0, r0, ip
   86d68:	085b      	lsrs	r3, r3, #1
   86d6a:	ea4f 0232 	mov.w	r2, r2, rrx
   86d6e:	ebb6 0e02 	subs.w	lr, r6, r2
   86d72:	eb75 0e03 	sbcs.w	lr, r5, r3
   86d76:	bf22      	ittt	cs
   86d78:	1ab6      	subcs	r6, r6, r2
   86d7a:	4675      	movcs	r5, lr
   86d7c:	ea40 005c 	orrcs.w	r0, r0, ip, lsr #1
   86d80:	085b      	lsrs	r3, r3, #1
   86d82:	ea4f 0232 	mov.w	r2, r2, rrx
   86d86:	ebb6 0e02 	subs.w	lr, r6, r2
   86d8a:	eb75 0e03 	sbcs.w	lr, r5, r3
   86d8e:	bf22      	ittt	cs
   86d90:	1ab6      	subcs	r6, r6, r2
   86d92:	4675      	movcs	r5, lr
   86d94:	ea40 009c 	orrcs.w	r0, r0, ip, lsr #2
   86d98:	085b      	lsrs	r3, r3, #1
   86d9a:	ea4f 0232 	mov.w	r2, r2, rrx
   86d9e:	ebb6 0e02 	subs.w	lr, r6, r2
   86da2:	eb75 0e03 	sbcs.w	lr, r5, r3
   86da6:	bf22      	ittt	cs
   86da8:	1ab6      	subcs	r6, r6, r2
   86daa:	4675      	movcs	r5, lr
   86dac:	ea40 00dc 	orrcs.w	r0, r0, ip, lsr #3
   86db0:	ea55 0e06 	orrs.w	lr, r5, r6
   86db4:	d018      	beq.n	86de8 <__aeabi_ddiv+0x114>
   86db6:	ea4f 1505 	mov.w	r5, r5, lsl #4
   86dba:	ea45 7516 	orr.w	r5, r5, r6, lsr #28
   86dbe:	ea4f 1606 	mov.w	r6, r6, lsl #4
   86dc2:	ea4f 03c3 	mov.w	r3, r3, lsl #3
   86dc6:	ea43 7352 	orr.w	r3, r3, r2, lsr #29
   86dca:	ea4f 02c2 	mov.w	r2, r2, lsl #3
   86dce:	ea5f 1c1c 	movs.w	ip, ip, lsr #4
   86dd2:	d1c0      	bne.n	86d56 <__aeabi_ddiv+0x82>
   86dd4:	f411 1f80 	tst.w	r1, #1048576	; 0x100000
   86dd8:	d10b      	bne.n	86df2 <__aeabi_ddiv+0x11e>
   86dda:	ea41 0100 	orr.w	r1, r1, r0
   86dde:	f04f 0000 	mov.w	r0, #0
   86de2:	f04f 4c00 	mov.w	ip, #2147483648	; 0x80000000
   86de6:	e7b6      	b.n	86d56 <__aeabi_ddiv+0x82>
   86de8:	f411 1f80 	tst.w	r1, #1048576	; 0x100000
   86dec:	bf04      	itt	eq
   86dee:	4301      	orreq	r1, r0
   86df0:	2000      	moveq	r0, #0
   86df2:	f1b4 0cfd 	subs.w	ip, r4, #253	; 0xfd
   86df6:	bf88      	it	hi
   86df8:	f5bc 6fe0 	cmphi.w	ip, #1792	; 0x700
   86dfc:	f63f aeaf 	bhi.w	86b5e <__aeabi_dmul+0xde>
   86e00:	ebb5 0c03 	subs.w	ip, r5, r3
   86e04:	bf04      	itt	eq
   86e06:	ebb6 0c02 	subseq.w	ip, r6, r2
   86e0a:	ea5f 0c50 	movseq.w	ip, r0, lsr #1
   86e0e:	f150 0000 	adcs.w	r0, r0, #0
   86e12:	eb41 5104 	adc.w	r1, r1, r4, lsl #20
   86e16:	bd70      	pop	{r4, r5, r6, pc}
   86e18:	f00e 4e00 	and.w	lr, lr, #2147483648	; 0x80000000
   86e1c:	ea4e 3111 	orr.w	r1, lr, r1, lsr #12
   86e20:	eb14 045c 	adds.w	r4, r4, ip, lsr #1
   86e24:	bfc2      	ittt	gt
   86e26:	ebd4 050c 	rsbsgt	r5, r4, ip
   86e2a:	ea41 5104 	orrgt.w	r1, r1, r4, lsl #20
   86e2e:	bd70      	popgt	{r4, r5, r6, pc}
   86e30:	f441 1180 	orr.w	r1, r1, #1048576	; 0x100000
   86e34:	f04f 0e00 	mov.w	lr, #0
   86e38:	3c01      	subs	r4, #1
   86e3a:	e690      	b.n	86b5e <__aeabi_dmul+0xde>
   86e3c:	ea45 0e06 	orr.w	lr, r5, r6
   86e40:	e68d      	b.n	86b5e <__aeabi_dmul+0xde>
   86e42:	ea0c 5513 	and.w	r5, ip, r3, lsr #20
   86e46:	ea94 0f0c 	teq	r4, ip
   86e4a:	bf08      	it	eq
   86e4c:	ea95 0f0c 	teqeq	r5, ip
   86e50:	f43f af3b 	beq.w	86cca <__aeabi_dmul+0x24a>
   86e54:	ea94 0f0c 	teq	r4, ip
   86e58:	d10a      	bne.n	86e70 <__aeabi_ddiv+0x19c>
   86e5a:	ea50 3401 	orrs.w	r4, r0, r1, lsl #12
   86e5e:	f47f af34 	bne.w	86cca <__aeabi_dmul+0x24a>
   86e62:	ea95 0f0c 	teq	r5, ip
   86e66:	f47f af25 	bne.w	86cb4 <__aeabi_dmul+0x234>
   86e6a:	4610      	mov	r0, r2
   86e6c:	4619      	mov	r1, r3
   86e6e:	e72c      	b.n	86cca <__aeabi_dmul+0x24a>
   86e70:	ea95 0f0c 	teq	r5, ip
   86e74:	d106      	bne.n	86e84 <__aeabi_ddiv+0x1b0>
   86e76:	ea52 3503 	orrs.w	r5, r2, r3, lsl #12
   86e7a:	f43f aefd 	beq.w	86c78 <__aeabi_dmul+0x1f8>
   86e7e:	4610      	mov	r0, r2
   86e80:	4619      	mov	r1, r3
   86e82:	e722      	b.n	86cca <__aeabi_dmul+0x24a>
   86e84:	ea50 0641 	orrs.w	r6, r0, r1, lsl #1
   86e88:	bf18      	it	ne
   86e8a:	ea52 0643 	orrsne.w	r6, r2, r3, lsl #1
   86e8e:	f47f aec5 	bne.w	86c1c <__aeabi_dmul+0x19c>
   86e92:	ea50 0441 	orrs.w	r4, r0, r1, lsl #1
   86e96:	f47f af0d 	bne.w	86cb4 <__aeabi_dmul+0x234>
   86e9a:	ea52 0543 	orrs.w	r5, r2, r3, lsl #1
   86e9e:	f47f aeeb 	bne.w	86c78 <__aeabi_dmul+0x1f8>
   86ea2:	e712      	b.n	86cca <__aeabi_dmul+0x24a>

00086ea4 <__gedf2>:
   86ea4:	f04f 3cff 	mov.w	ip, #4294967295	; 0xffffffff
   86ea8:	e006      	b.n	86eb8 <__cmpdf2+0x4>
   86eaa:	bf00      	nop

00086eac <__ledf2>:
   86eac:	f04f 0c01 	mov.w	ip, #1
   86eb0:	e002      	b.n	86eb8 <__cmpdf2+0x4>
   86eb2:	bf00      	nop

00086eb4 <__cmpdf2>:
   86eb4:	f04f 0c01 	mov.w	ip, #1
   86eb8:	f84d cd04 	str.w	ip, [sp, #-4]!
   86ebc:	ea4f 0c41 	mov.w	ip, r1, lsl #1
   86ec0:	ea7f 5c6c 	mvns.w	ip, ip, asr #21
   86ec4:	ea4f 0c43 	mov.w	ip, r3, lsl #1
   86ec8:	bf18      	it	ne
   86eca:	ea7f 5c6c 	mvnsne.w	ip, ip, asr #21
   86ece:	d01b      	beq.n	86f08 <__cmpdf2+0x54>
   86ed0:	b001      	add	sp, #4
   86ed2:	ea50 0c41 	orrs.w	ip, r0, r1, lsl #1
   86ed6:	bf0c      	ite	eq
   86ed8:	ea52 0c43 	orrseq.w	ip, r2, r3, lsl #1
   86edc:	ea91 0f03 	teqne	r1, r3
   86ee0:	bf02      	ittt	eq
   86ee2:	ea90 0f02 	teqeq	r0, r2
   86ee6:	2000      	moveq	r0, #0
   86ee8:	4770      	bxeq	lr
   86eea:	f110 0f00 	cmn.w	r0, #0
   86eee:	ea91 0f03 	teq	r1, r3
   86ef2:	bf58      	it	pl
   86ef4:	4299      	cmppl	r1, r3
   86ef6:	bf08      	it	eq
   86ef8:	4290      	cmpeq	r0, r2
   86efa:	bf2c      	ite	cs
   86efc:	17d8      	asrcs	r0, r3, #31
   86efe:	ea6f 70e3 	mvncc.w	r0, r3, asr #31
   86f02:	f040 0001 	orr.w	r0, r0, #1
   86f06:	4770      	bx	lr
   86f08:	ea4f 0c41 	mov.w	ip, r1, lsl #1
   86f0c:	ea7f 5c6c 	mvns.w	ip, ip, asr #21
   86f10:	d102      	bne.n	86f18 <__cmpdf2+0x64>
   86f12:	ea50 3c01 	orrs.w	ip, r0, r1, lsl #12
   86f16:	d107      	bne.n	86f28 <__cmpdf2+0x74>
   86f18:	ea4f 0c43 	mov.w	ip, r3, lsl #1
   86f1c:	ea7f 5c6c 	mvns.w	ip, ip, asr #21
   86f20:	d1d6      	bne.n	86ed0 <__cmpdf2+0x1c>
   86f22:	ea52 3c03 	orrs.w	ip, r2, r3, lsl #12
   86f26:	d0d3      	beq.n	86ed0 <__cmpdf2+0x1c>
   86f28:	f85d 0b04 	ldr.w	r0, [sp], #4
   86f2c:	4770      	bx	lr
   86f2e:	bf00      	nop

00086f30 <__aeabi_cdrcmple>:
   86f30:	4684      	mov	ip, r0
   86f32:	4610      	mov	r0, r2
   86f34:	4662      	mov	r2, ip
   86f36:	468c      	mov	ip, r1
   86f38:	4619      	mov	r1, r3
   86f3a:	4663      	mov	r3, ip
   86f3c:	e000      	b.n	86f40 <__aeabi_cdcmpeq>
   86f3e:	bf00      	nop

00086f40 <__aeabi_cdcmpeq>:
   86f40:	b501      	push	{r0, lr}
   86f42:	f7ff ffb7 	bl	86eb4 <__cmpdf2>
   86f46:	2800      	cmp	r0, #0
   86f48:	bf48      	it	mi
   86f4a:	f110 0f00 	cmnmi.w	r0, #0
   86f4e:	bd01      	pop	{r0, pc}

00086f50 <__aeabi_dcmpeq>:
   86f50:	f84d ed08 	str.w	lr, [sp, #-8]!
   86f54:	f7ff fff4 	bl	86f40 <__aeabi_cdcmpeq>
   86f58:	bf0c      	ite	eq
   86f5a:	2001      	moveq	r0, #1
   86f5c:	2000      	movne	r0, #0
   86f5e:	f85d fb08 	ldr.w	pc, [sp], #8
   86f62:	bf00      	nop

00086f64 <__aeabi_dcmplt>:
   86f64:	f84d ed08 	str.w	lr, [sp, #-8]!
   86f68:	f7ff ffea 	bl	86f40 <__aeabi_cdcmpeq>
   86f6c:	bf34      	ite	cc
   86f6e:	2001      	movcc	r0, #1
   86f70:	2000      	movcs	r0, #0
   86f72:	f85d fb08 	ldr.w	pc, [sp], #8
   86f76:	bf00      	nop

00086f78 <__aeabi_dcmple>:
   86f78:	f84d ed08 	str.w	lr, [sp, #-8]!
   86f7c:	f7ff ffe0 	bl	86f40 <__aeabi_cdcmpeq>
   86f80:	bf94      	ite	ls
   86f82:	2001      	movls	r0, #1
   86f84:	2000      	movhi	r0, #0
   86f86:	f85d fb08 	ldr.w	pc, [sp], #8
   86f8a:	bf00      	nop

00086f8c <__aeabi_dcmpge>:
   86f8c:	f84d ed08 	str.w	lr, [sp, #-8]!
   86f90:	f7ff ffce 	bl	86f30 <__aeabi_cdrcmple>
   86f94:	bf94      	ite	ls
   86f96:	2001      	movls	r0, #1
   86f98:	2000      	movhi	r0, #0
   86f9a:	f85d fb08 	ldr.w	pc, [sp], #8
   86f9e:	bf00      	nop

00086fa0 <__aeabi_dcmpgt>:
   86fa0:	f84d ed08 	str.w	lr, [sp, #-8]!
   86fa4:	f7ff ffc4 	bl	86f30 <__aeabi_cdrcmple>
   86fa8:	bf34      	ite	cc
   86faa:	2001      	movcc	r0, #1
   86fac:	2000      	movcs	r0, #0
   86fae:	f85d fb08 	ldr.w	pc, [sp], #8
   86fb2:	bf00      	nop

00086fb4 <__aeabi_dcmpun>:
   86fb4:	ea4f 0c41 	mov.w	ip, r1, lsl #1
   86fb8:	ea7f 5c6c 	mvns.w	ip, ip, asr #21
   86fbc:	d102      	bne.n	86fc4 <__aeabi_dcmpun+0x10>
   86fbe:	ea50 3c01 	orrs.w	ip, r0, r1, lsl #12
   86fc2:	d10a      	bne.n	86fda <__aeabi_dcmpun+0x26>
   86fc4:	ea4f 0c43 	mov.w	ip, r3, lsl #1
   86fc8:	ea7f 5c6c 	mvns.w	ip, ip, asr #21
   86fcc:	d102      	bne.n	86fd4 <__aeabi_dcmpun+0x20>
   86fce:	ea52 3c03 	orrs.w	ip, r2, r3, lsl #12
   86fd2:	d102      	bne.n	86fda <__aeabi_dcmpun+0x26>
   86fd4:	f04f 0000 	mov.w	r0, #0
   86fd8:	4770      	bx	lr
   86fda:	f04f 0001 	mov.w	r0, #1
   86fde:	4770      	bx	lr

00086fe0 <__aeabi_d2iz>:
   86fe0:	ea4f 0241 	mov.w	r2, r1, lsl #1
   86fe4:	f512 1200 	adds.w	r2, r2, #2097152	; 0x200000
   86fe8:	d215      	bcs.n	87016 <__aeabi_d2iz+0x36>
   86fea:	d511      	bpl.n	87010 <__aeabi_d2iz+0x30>
   86fec:	f46f 7378 	mvn.w	r3, #992	; 0x3e0
   86ff0:	ebb3 5262 	subs.w	r2, r3, r2, asr #21
   86ff4:	d912      	bls.n	8701c <__aeabi_d2iz+0x3c>
   86ff6:	ea4f 23c1 	mov.w	r3, r1, lsl #11
   86ffa:	f043 4300 	orr.w	r3, r3, #2147483648	; 0x80000000
   86ffe:	ea43 5350 	orr.w	r3, r3, r0, lsr #21
   87002:	f011 4f00 	tst.w	r1, #2147483648	; 0x80000000
   87006:	fa23 f002 	lsr.w	r0, r3, r2
   8700a:	bf18      	it	ne
   8700c:	4240      	negne	r0, r0
   8700e:	4770      	bx	lr
   87010:	f04f 0000 	mov.w	r0, #0
   87014:	4770      	bx	lr
   87016:	ea50 3001 	orrs.w	r0, r0, r1, lsl #12
   8701a:	d105      	bne.n	87028 <__aeabi_d2iz+0x48>
   8701c:	f011 4000 	ands.w	r0, r1, #2147483648	; 0x80000000
   87020:	bf08      	it	eq
   87022:	f06f 4000 	mvneq.w	r0, #2147483648	; 0x80000000
   87026:	4770      	bx	lr
   87028:	f04f 0000 	mov.w	r0, #0
   8702c:	4770      	bx	lr
   8702e:	bf00      	nop
   87030:	32252066 	.word	0x32252066
   87034:	207a4864 	.word	0x207a4864
   87038:	6c637963 	.word	0x6c637963
   8703c:	32252065 	.word	0x32252065
   87040:	00252564 	.word	0x00252564

00087044 <_global_impure_ptr>:
   87044:	200701d0                                ... 

00087048 <blanks.7291>:
   87048:	20202020 20202020 20202020 20202020                     

00087058 <zeroes.7292>:
   87058:	30303030 30303030 30303030 30303030     0000000000000000
   87068:	00464e49 00666e69 004e414e 006e616e     INF.inf.NAN.nan.
   87078:	33323130 37363534 42413938 46454443     0123456789ABCDEF
   87088:	00000000 33323130 37363534 62613938     ....0123456789ab
   87098:	66656463 00000000 6c756e28 0000296c     cdef....(null)..
   870a8:	00000030 69666e49 7974696e 00000000     0...Infinity....
   870b8:	004e614e 00000043 49534f50 00000058     NaN.C...POSIX...
   870c8:	0000002e 00000000                       ........

000870d0 <p05.6073>:
   870d0:	00000005 00000019 0000007d 00000000     ........}.......

000870e0 <__mprec_tens>:
   870e0:	00000000 3ff00000 00000000 40240000     .......?......$@
   870f0:	00000000 40590000 00000000 408f4000     ......Y@.....@.@
   87100:	00000000 40c38800 00000000 40f86a00     .......@.....j.@
   87110:	00000000 412e8480 00000000 416312d0     .......A......cA
   87120:	00000000 4197d784 00000000 41cdcd65     .......A....e..A
   87130:	20000000 4202a05f e8000000 42374876     ... _..B....vH7B
   87140:	a2000000 426d1a94 e5400000 42a2309c     ......mB..@..0.B
   87150:	1e900000 42d6bcc4 26340000 430c6bf5     .......B..4&.k.C
   87160:	37e08000 4341c379 85d8a000 43763457     ...7y.AC....W4vC
   87170:	674ec800 43abc16d 60913d00 43e158e4     ..Ngm..C.=.`.X.C
   87180:	78b58c40 4415af1d d6e2ef50 444b1ae4     @..x...DP.....KD
   87190:	064dd592 4480f0cf c7e14af6 44b52d02     ..M....D.J...-.D
   871a0:	79d99db4 44ea7843                       ...yCx.D

000871a8 <__mprec_tinytens>:
   871a8:	97d889bc 3c9cd2b2 d5a8a733 3949f623     .......<3...#.I9
   871b8:	44f4a73d 32a50ffd cf8c979d 255bba08     =..D...2......[%
   871c8:	64ac6f43 0ac80628                       Co.d(...

000871d0 <__mprec_bigtens>:
   871d0:	37e08000 4341c379 b5056e17 4693b8b5     ...7y.AC.n.....F
   871e0:	e93ff9f5 4d384f03 f9301d32 5a827748     ..?..O8M2.0.Hw.Z
   871f0:	7f73bf3c 75154fdd                       <.s..O.u

000871f8 <blanks.7271>:
   871f8:	20202020 20202020 20202020 20202020                     

00087208 <zeroes.7272>:
   87208:	30303030 30303030 30303030 30303030     0000000000000000

00087218 <_ctype_>:
   87218:	20202000 20202020 28282020 20282828     .         ((((( 
   87228:	20202020 20202020 20202020 20202020                     
   87238:	10108820 10101010 10101010 10101010      ...............
   87248:	04040410 04040404 10040404 10101010     ................
   87258:	41411010 41414141 01010101 01010101     ..AAAAAA........
   87268:	01010101 01010101 01010101 10101010     ................
   87278:	42421010 42424242 02020202 02020202     ..BBBBBB........
   87288:	02020202 02020202 02020202 10101010     ................
   87298:	00000020 00000000 00000000 00000000      ...............
	...

0008731c <_init>:
   8731c:	b5f8      	push	{r3, r4, r5, r6, r7, lr}
   8731e:	bf00      	nop
   87320:	bcf8      	pop	{r3, r4, r5, r6, r7}
   87322:	bc08      	pop	{r3}
   87324:	469e      	mov	lr, r3
   87326:	4770      	bx	lr

00087328 <__init_array_start>:
   87328:	000834c1 	.word	0x000834c1

0008732c <__frame_dummy_init_array_entry>:
   8732c:	0008015d                                ]...

00087330 <_fini>:
   87330:	b5f8      	push	{r3, r4, r5, r6, r7, lr}
   87332:	bf00      	nop
   87334:	bcf8      	pop	{r3, r4, r5, r6, r7}
   87336:	bc08      	pop	{r3}
   87338:	469e      	mov	lr, r3
   8733a:	4770      	bx	lr
   8733c:	0000      	movs	r0, r0
	...

00087340 <__system_init_flash_veneer>:
   87340:	f85f f000 	ldr.w	pc, [pc]	; 87344 <__system_init_flash_veneer+0x4>
   87344:	200700d1 	.word	0x200700d1

00087348 <__portable_delay_cycles_veneer>:
   87348:	f85f f000 	ldr.w	pc, [pc]	; 8734c <__portable_delay_cycles_veneer+0x4>
   8734c:	2007018d 	.word	0x2007018d

00087350 <__fini_array_start>:
   87350:	00080135 	.word	0x00080135

Disassembly of section .relocate:

20070000 <SystemInit>:
{
20070000:	b480      	push	{r7}
20070002:	af00      	add	r7, sp, #0
	EFC0->EEFC_FMR = EEFC_FMR_FWS(4);
20070004:	4b2a      	ldr	r3, [pc, #168]	; (200700b0 <SystemInit+0xb0>)
20070006:	f44f 6280 	mov.w	r2, #1024	; 0x400
2007000a:	601a      	str	r2, [r3, #0]
	EFC1->EEFC_FMR = EEFC_FMR_FWS(4);
2007000c:	4b29      	ldr	r3, [pc, #164]	; (200700b4 <SystemInit+0xb4>)
2007000e:	f44f 6280 	mov.w	r2, #1024	; 0x400
20070012:	601a      	str	r2, [r3, #0]
	if (!(PMC->CKGR_MOR & CKGR_MOR_MOSCSEL)) {
20070014:	4b28      	ldr	r3, [pc, #160]	; (200700b8 <SystemInit+0xb8>)
20070016:	6a1b      	ldr	r3, [r3, #32]
20070018:	f003 7380 	and.w	r3, r3, #16777216	; 0x1000000
2007001c:	2b00      	cmp	r3, #0
2007001e:	d109      	bne.n	20070034 <SystemInit+0x34>
		PMC->CKGR_MOR = SYS_CKGR_MOR_KEY_VALUE | SYS_BOARD_OSCOUNT | 
20070020:	4b25      	ldr	r3, [pc, #148]	; (200700b8 <SystemInit+0xb8>)
20070022:	4a26      	ldr	r2, [pc, #152]	; (200700bc <SystemInit+0xbc>)
20070024:	621a      	str	r2, [r3, #32]
		while (!(PMC->PMC_SR & PMC_SR_MOSCXTS)) {
20070026:	bf00      	nop
20070028:	4b23      	ldr	r3, [pc, #140]	; (200700b8 <SystemInit+0xb8>)
2007002a:	6e9b      	ldr	r3, [r3, #104]	; 0x68
2007002c:	f003 0301 	and.w	r3, r3, #1
20070030:	2b00      	cmp	r3, #0
20070032:	d0f9      	beq.n	20070028 <SystemInit+0x28>
	PMC->CKGR_MOR = SYS_CKGR_MOR_KEY_VALUE | SYS_BOARD_OSCOUNT | 
20070034:	4b20      	ldr	r3, [pc, #128]	; (200700b8 <SystemInit+0xb8>)
20070036:	4a22      	ldr	r2, [pc, #136]	; (200700c0 <SystemInit+0xc0>)
20070038:	621a      	str	r2, [r3, #32]
	while (!(PMC->PMC_SR & PMC_SR_MOSCSELS)) {
2007003a:	bf00      	nop
2007003c:	4b1e      	ldr	r3, [pc, #120]	; (200700b8 <SystemInit+0xb8>)
2007003e:	6e9b      	ldr	r3, [r3, #104]	; 0x68
20070040:	f403 3380 	and.w	r3, r3, #65536	; 0x10000
20070044:	2b00      	cmp	r3, #0
20070046:	d0f9      	beq.n	2007003c <SystemInit+0x3c>
 	PMC->PMC_MCKR = (PMC->PMC_MCKR & ~(uint32_t)PMC_MCKR_CSS_Msk) | 
20070048:	4b1b      	ldr	r3, [pc, #108]	; (200700b8 <SystemInit+0xb8>)
2007004a:	6b1b      	ldr	r3, [r3, #48]	; 0x30
2007004c:	f023 0303 	bic.w	r3, r3, #3
20070050:	4a19      	ldr	r2, [pc, #100]	; (200700b8 <SystemInit+0xb8>)
20070052:	f043 0301 	orr.w	r3, r3, #1
20070056:	6313      	str	r3, [r2, #48]	; 0x30
	while (!(PMC->PMC_SR & PMC_SR_MCKRDY)) {
20070058:	bf00      	nop
2007005a:	4b17      	ldr	r3, [pc, #92]	; (200700b8 <SystemInit+0xb8>)
2007005c:	6e9b      	ldr	r3, [r3, #104]	; 0x68
2007005e:	f003 0308 	and.w	r3, r3, #8
20070062:	2b00      	cmp	r3, #0
20070064:	d0f9      	beq.n	2007005a <SystemInit+0x5a>
	PMC->CKGR_PLLAR = SYS_BOARD_PLLAR;
20070066:	4b14      	ldr	r3, [pc, #80]	; (200700b8 <SystemInit+0xb8>)
20070068:	4a16      	ldr	r2, [pc, #88]	; (200700c4 <SystemInit+0xc4>)
2007006a:	629a      	str	r2, [r3, #40]	; 0x28
	while (!(PMC->PMC_SR & PMC_SR_LOCKA)) {
2007006c:	bf00      	nop
2007006e:	4b12      	ldr	r3, [pc, #72]	; (200700b8 <SystemInit+0xb8>)
20070070:	6e9b      	ldr	r3, [r3, #104]	; 0x68
20070072:	f003 0302 	and.w	r3, r3, #2
20070076:	2b00      	cmp	r3, #0
20070078:	d0f9      	beq.n	2007006e <SystemInit+0x6e>
	PMC->PMC_MCKR = (SYS_BOARD_MCKR & ~PMC_MCKR_CSS_Msk) | PMC_MCKR_CSS_MAIN_CLK;
2007007a:	4b0f      	ldr	r3, [pc, #60]	; (200700b8 <SystemInit+0xb8>)
2007007c:	2211      	movs	r2, #17
2007007e:	631a      	str	r2, [r3, #48]	; 0x30
	while (!(PMC->PMC_SR & PMC_SR_MCKRDY)) {
20070080:	bf00      	nop
20070082:	4b0d      	ldr	r3, [pc, #52]	; (200700b8 <SystemInit+0xb8>)
20070084:	6e9b      	ldr	r3, [r3, #104]	; 0x68
20070086:	f003 0308 	and.w	r3, r3, #8
2007008a:	2b00      	cmp	r3, #0
2007008c:	d0f9      	beq.n	20070082 <SystemInit+0x82>
	PMC->PMC_MCKR = SYS_BOARD_MCKR;
2007008e:	4b0a      	ldr	r3, [pc, #40]	; (200700b8 <SystemInit+0xb8>)
20070090:	2212      	movs	r2, #18
20070092:	631a      	str	r2, [r3, #48]	; 0x30
	while (!(PMC->PMC_SR & PMC_SR_MCKRDY)) {
20070094:	bf00      	nop
20070096:	4b08      	ldr	r3, [pc, #32]	; (200700b8 <SystemInit+0xb8>)
20070098:	6e9b      	ldr	r3, [r3, #104]	; 0x68
2007009a:	f003 0308 	and.w	r3, r3, #8
2007009e:	2b00      	cmp	r3, #0
200700a0:	d0f9      	beq.n	20070096 <SystemInit+0x96>
	SystemCoreClock = CHIP_FREQ_CPU_MAX;
200700a2:	4b09      	ldr	r3, [pc, #36]	; (200700c8 <SystemInit+0xc8>)
200700a4:	4a09      	ldr	r2, [pc, #36]	; (200700cc <SystemInit+0xcc>)
200700a6:	601a      	str	r2, [r3, #0]
}
200700a8:	bf00      	nop
200700aa:	46bd      	mov	sp, r7
200700ac:	bc80      	pop	{r7}
200700ae:	4770      	bx	lr
200700b0:	400e0a00 	.word	0x400e0a00
200700b4:	400e0c00 	.word	0x400e0c00
200700b8:	400e0600 	.word	0x400e0600
200700bc:	00370809 	.word	0x00370809
200700c0:	01370809 	.word	0x01370809
200700c4:	200d3f01 	.word	0x200d3f01
200700c8:	200701c0 	.word	0x200701c0
200700cc:	0501bd00 	.word	0x0501bd00

200700d0 <system_init_flash>:
 * Initialize flash.
 */
__no_inline
RAMFUNC
void system_init_flash(uint32_t ul_clk)
{
200700d0:	b480      	push	{r7}
200700d2:	b083      	sub	sp, #12
200700d4:	af00      	add	r7, sp, #0
200700d6:	6078      	str	r0, [r7, #4]
	/* Set FWS for embedded Flash access according to operating frequency */
	if (ul_clk < CHIP_FREQ_FWS_0) {
200700d8:	687b      	ldr	r3, [r7, #4]
200700da:	4a25      	ldr	r2, [pc, #148]	; (20070170 <system_init_flash+0xa0>)
200700dc:	4293      	cmp	r3, r2
200700de:	d806      	bhi.n	200700ee <system_init_flash+0x1e>
		EFC0->EEFC_FMR = EEFC_FMR_FWS(0);
200700e0:	4b24      	ldr	r3, [pc, #144]	; (20070174 <system_init_flash+0xa4>)
200700e2:	2200      	movs	r2, #0
200700e4:	601a      	str	r2, [r3, #0]
		EFC1->EEFC_FMR = EEFC_FMR_FWS(0);
200700e6:	4b24      	ldr	r3, [pc, #144]	; (20070178 <system_init_flash+0xa8>)
200700e8:	2200      	movs	r2, #0
200700ea:	601a      	str	r2, [r3, #0]
		EFC1->EEFC_FMR = EEFC_FMR_FWS(4);	
	} else {
		EFC0->EEFC_FMR = EEFC_FMR_FWS(5);
		EFC1->EEFC_FMR = EEFC_FMR_FWS(5);
	}
}
200700ec:	e03b      	b.n	20070166 <system_init_flash+0x96>
	} else if (ul_clk < CHIP_FREQ_FWS_1) {
200700ee:	687b      	ldr	r3, [r7, #4]
200700f0:	4a22      	ldr	r2, [pc, #136]	; (2007017c <system_init_flash+0xac>)
200700f2:	4293      	cmp	r3, r2
200700f4:	d808      	bhi.n	20070108 <system_init_flash+0x38>
		EFC0->EEFC_FMR = EEFC_FMR_FWS(1);
200700f6:	4b1f      	ldr	r3, [pc, #124]	; (20070174 <system_init_flash+0xa4>)
200700f8:	f44f 7280 	mov.w	r2, #256	; 0x100
200700fc:	601a      	str	r2, [r3, #0]
		EFC1->EEFC_FMR = EEFC_FMR_FWS(1);
200700fe:	4b1e      	ldr	r3, [pc, #120]	; (20070178 <system_init_flash+0xa8>)
20070100:	f44f 7280 	mov.w	r2, #256	; 0x100
20070104:	601a      	str	r2, [r3, #0]
}
20070106:	e02e      	b.n	20070166 <system_init_flash+0x96>
	} else if (ul_clk < CHIP_FREQ_FWS_2) {
20070108:	687b      	ldr	r3, [r7, #4]
2007010a:	4a1d      	ldr	r2, [pc, #116]	; (20070180 <system_init_flash+0xb0>)
2007010c:	4293      	cmp	r3, r2
2007010e:	d808      	bhi.n	20070122 <system_init_flash+0x52>
		EFC0->EEFC_FMR = EEFC_FMR_FWS(2);
20070110:	4b18      	ldr	r3, [pc, #96]	; (20070174 <system_init_flash+0xa4>)
20070112:	f44f 7200 	mov.w	r2, #512	; 0x200
20070116:	601a      	str	r2, [r3, #0]
		EFC1->EEFC_FMR = EEFC_FMR_FWS(2);
20070118:	4b17      	ldr	r3, [pc, #92]	; (20070178 <system_init_flash+0xa8>)
2007011a:	f44f 7200 	mov.w	r2, #512	; 0x200
2007011e:	601a      	str	r2, [r3, #0]
}
20070120:	e021      	b.n	20070166 <system_init_flash+0x96>
	} else if (ul_clk < CHIP_FREQ_FWS_3) {
20070122:	687b      	ldr	r3, [r7, #4]
20070124:	4a17      	ldr	r2, [pc, #92]	; (20070184 <system_init_flash+0xb4>)
20070126:	4293      	cmp	r3, r2
20070128:	d808      	bhi.n	2007013c <system_init_flash+0x6c>
		EFC0->EEFC_FMR = EEFC_FMR_FWS(3);
2007012a:	4b12      	ldr	r3, [pc, #72]	; (20070174 <system_init_flash+0xa4>)
2007012c:	f44f 7240 	mov.w	r2, #768	; 0x300
20070130:	601a      	str	r2, [r3, #0]
		EFC1->EEFC_FMR = EEFC_FMR_FWS(3);
20070132:	4b11      	ldr	r3, [pc, #68]	; (20070178 <system_init_flash+0xa8>)
20070134:	f44f 7240 	mov.w	r2, #768	; 0x300
20070138:	601a      	str	r2, [r3, #0]
}
2007013a:	e014      	b.n	20070166 <system_init_flash+0x96>
	} else if (ul_clk < CHIP_FREQ_FWS_4) {
2007013c:	687b      	ldr	r3, [r7, #4]
2007013e:	4a12      	ldr	r2, [pc, #72]	; (20070188 <system_init_flash+0xb8>)
20070140:	4293      	cmp	r3, r2
20070142:	d808      	bhi.n	20070156 <system_init_flash+0x86>
		EFC0->EEFC_FMR = EEFC_FMR_FWS(4);
20070144:	4b0b      	ldr	r3, [pc, #44]	; (20070174 <system_init_flash+0xa4>)
20070146:	f44f 6280 	mov.w	r2, #1024	; 0x400
2007014a:	601a      	str	r2, [r3, #0]
		EFC1->EEFC_FMR = EEFC_FMR_FWS(4);	
2007014c:	4b0a      	ldr	r3, [pc, #40]	; (20070178 <system_init_flash+0xa8>)
2007014e:	f44f 6280 	mov.w	r2, #1024	; 0x400
20070152:	601a      	str	r2, [r3, #0]
}
20070154:	e007      	b.n	20070166 <system_init_flash+0x96>
		EFC0->EEFC_FMR = EEFC_FMR_FWS(5);
20070156:	4b07      	ldr	r3, [pc, #28]	; (20070174 <system_init_flash+0xa4>)
20070158:	f44f 62a0 	mov.w	r2, #1280	; 0x500
2007015c:	601a      	str	r2, [r3, #0]
		EFC1->EEFC_FMR = EEFC_FMR_FWS(5);
2007015e:	4b06      	ldr	r3, [pc, #24]	; (20070178 <system_init_flash+0xa8>)
20070160:	f44f 62a0 	mov.w	r2, #1280	; 0x500
20070164:	601a      	str	r2, [r3, #0]
}
20070166:	bf00      	nop
20070168:	370c      	adds	r7, #12
2007016a:	46bd      	mov	sp, r7
2007016c:	bc80      	pop	{r7}
2007016e:	4770      	bx	lr
20070170:	0121eabf 	.word	0x0121eabf
20070174:	400e0a00 	.word	0x400e0a00
20070178:	400e0c00 	.word	0x400e0c00
2007017c:	02faf07f 	.word	0x02faf07f
20070180:	03d08fff 	.word	0x03d08fff
20070184:	04c4b3ff 	.word	0x04c4b3ff
20070188:	055d4a7f 	.word	0x055d4a7f

2007018c <portable_delay_cycles>:
RAMFUNC
void portable_delay_cycles(unsigned long n)
{
	UNUSED(n);

	__asm (
2007018c:	f3bf 8f5f 	dmb	sy
20070190:	3801      	subs	r0, #1
20070192:	d1fb      	bne.n	2007018c <portable_delay_cycles>
		"loop: DMB	\n"
		"SUBS R0, R0, #1  \n"
		"BNE.N loop         "
	);
}
20070194:	4770      	bx	lr
	...

20070198 <lcd_buff>:
20070198:	2020 2020 2020 2020 2020 2020 2020 2020                     
200701a8:	2020 2020 2020 2020 2020 2020 2020 2020                     
200701b8:	0000 0000                                   ....

200701bc <lcd_string>:
200701bc:	0198 2007                                   ... 

200701c0 <SystemCoreClock>:
200701c0:	0900 003d 0000 0000                         ..=.....

200701c8 <_impure_ptr>:
200701c8:	01d0 2007 0000 0000                         ... ....

200701d0 <impure_data>:
200701d0:	0000 0000 04bc 2007 0524 2007 058c 2007     ....... $.. ... 
	...
20070278:	0001 0000 0000 0000 330e abcd 1234 e66d     .........3..4.m.
20070288:	deec 0005 000b 0000 0000 0000 0000 0000     ................
	...

200705f8 <__global_locale>:
200705f8:	0043 0000 0000 0000 0000 0000 0000 0000     C...............
	...
20070618:	0043 0000 0000 0000 0000 0000 0000 0000     C...............
	...
20070638:	0043 0000 0000 0000 0000 0000 0000 0000     C...............
	...
20070658:	0043 0000 0000 0000 0000 0000 0000 0000     C...............
	...
20070678:	0043 0000 0000 0000 0000 0000 0000 0000     C...............
	...
20070698:	0043 0000 0000 0000 0000 0000 0000 0000     C...............
	...
200706b8:	0043 0000 0000 0000 0000 0000 0000 0000     C...............
	...
200706d8:	6685 0008 4c21 0008 0000 0000 7218 0008     .f..!L.......r..
200706e8:	70c8 0008 7088 0008 7088 0008 7088 0008     .p...p...p...p..
200706f8:	7088 0008 7088 0008 7088 0008 7088 0008     .p...p...p...p..
20070708:	7088 0008 7088 0008 ffff ffff ffff ffff     .p...p..........
20070718:	ffff ffff ffff 0000 0001 5341 4943 0049     ..........ASCII.
	...
20070740:	0000 5341 4943 0049 0000 0000 0000 0000     ..ASCII.........
	...

20070764 <__malloc_av_>:
	...
2007076c:	0764 2007 0764 2007 076c 2007 076c 2007     d.. d.. l.. l.. 
2007077c:	0774 2007 0774 2007 077c 2007 077c 2007     t.. t.. |.. |.. 
2007078c:	0784 2007 0784 2007 078c 2007 078c 2007     ... ... ... ... 
2007079c:	0794 2007 0794 2007 079c 2007 079c 2007     ... ... ... ... 
200707ac:	07a4 2007 07a4 2007 07ac 2007 07ac 2007     ... ... ... ... 
200707bc:	07b4 2007 07b4 2007 07bc 2007 07bc 2007     ... ... ... ... 
200707cc:	07c4 2007 07c4 2007 07cc 2007 07cc 2007     ... ... ... ... 
200707dc:	07d4 2007 07d4 2007 07dc 2007 07dc 2007     ... ... ... ... 
200707ec:	07e4 2007 07e4 2007 07ec 2007 07ec 2007     ... ... ... ... 
200707fc:	07f4 2007 07f4 2007 07fc 2007 07fc 2007     ... ... ... ... 
2007080c:	0804 2007 0804 2007 080c 2007 080c 2007     ... ... ... ... 
2007081c:	0814 2007 0814 2007 081c 2007 081c 2007     ... ... ... ... 
2007082c:	0824 2007 0824 2007 082c 2007 082c 2007     $.. $.. ,.. ,.. 
2007083c:	0834 2007 0834 2007 083c 2007 083c 2007     4.. 4.. <.. <.. 
2007084c:	0844 2007 0844 2007 084c 2007 084c 2007     D.. D.. L.. L.. 
2007085c:	0854 2007 0854 2007 085c 2007 085c 2007     T.. T.. \.. \.. 
2007086c:	0864 2007 0864 2007 086c 2007 086c 2007     d.. d.. l.. l.. 
2007087c:	0874 2007 0874 2007 087c 2007 087c 2007     t.. t.. |.. |.. 
2007088c:	0884 2007 0884 2007 088c 2007 088c 2007     ... ... ... ... 
2007089c:	0894 2007 0894 2007 089c 2007 089c 2007     ... ... ... ... 
200708ac:	08a4 2007 08a4 2007 08ac 2007 08ac 2007     ... ... ... ... 
200708bc:	08b4 2007 08b4 2007 08bc 2007 08bc 2007     ... ... ... ... 
200708cc:	08c4 2007 08c4 2007 08cc 2007 08cc 2007     ... ... ... ... 
200708dc:	08d4 2007 08d4 2007 08dc 2007 08dc 2007     ... ... ... ... 
200708ec:	08e4 2007 08e4 2007 08ec 2007 08ec 2007     ... ... ... ... 
200708fc:	08f4 2007 08f4 2007 08fc 2007 08fc 2007     ... ... ... ... 
2007090c:	0904 2007 0904 2007 090c 2007 090c 2007     ... ... ... ... 
2007091c:	0914 2007 0914 2007 091c 2007 091c 2007     ... ... ... ... 
2007092c:	0924 2007 0924 2007 092c 2007 092c 2007     $.. $.. ,.. ,.. 
2007093c:	0934 2007 0934 2007 093c 2007 093c 2007     4.. 4.. <.. <.. 
2007094c:	0944 2007 0944 2007 094c 2007 094c 2007     D.. D.. L.. L.. 
2007095c:	0954 2007 0954 2007 095c 2007 095c 2007     T.. T.. \.. \.. 
2007096c:	0964 2007 0964 2007 096c 2007 096c 2007     d.. d.. l.. l.. 
2007097c:	0974 2007 0974 2007 097c 2007 097c 2007     t.. t.. |.. |.. 
2007098c:	0984 2007 0984 2007 098c 2007 098c 2007     ... ... ... ... 
2007099c:	0994 2007 0994 2007 099c 2007 099c 2007     ... ... ... ... 
200709ac:	09a4 2007 09a4 2007 09ac 2007 09ac 2007     ... ... ... ... 
200709bc:	09b4 2007 09b4 2007 09bc 2007 09bc 2007     ... ... ... ... 
200709cc:	09c4 2007 09c4 2007 09cc 2007 09cc 2007     ... ... ... ... 
200709dc:	09d4 2007 09d4 2007 09dc 2007 09dc 2007     ... ... ... ... 
200709ec:	09e4 2007 09e4 2007 09ec 2007 09ec 2007     ... ... ... ... 
200709fc:	09f4 2007 09f4 2007 09fc 2007 09fc 2007     ... ... ... ... 
20070a0c:	0a04 2007 0a04 2007 0a0c 2007 0a0c 2007     ... ... ... ... 
20070a1c:	0a14 2007 0a14 2007 0a1c 2007 0a1c 2007     ... ... ... ... 
20070a2c:	0a24 2007 0a24 2007 0a2c 2007 0a2c 2007     $.. $.. ,.. ,.. 
20070a3c:	0a34 2007 0a34 2007 0a3c 2007 0a3c 2007     4.. 4.. <.. <.. 
20070a4c:	0a44 2007 0a44 2007 0a4c 2007 0a4c 2007     D.. D.. L.. L.. 
20070a5c:	0a54 2007 0a54 2007 0a5c 2007 0a5c 2007     T.. T.. \.. \.. 
20070a6c:	0a64 2007 0a64 2007 0a6c 2007 0a6c 2007     d.. d.. l.. l.. 
20070a7c:	0a74 2007 0a74 2007 0a7c 2007 0a7c 2007     t.. t.. |.. |.. 
20070a8c:	0a84 2007 0a84 2007 0a8c 2007 0a8c 2007     ... ... ... ... 
20070a9c:	0a94 2007 0a94 2007 0a9c 2007 0a9c 2007     ... ... ... ... 
20070aac:	0aa4 2007 0aa4 2007 0aac 2007 0aac 2007     ... ... ... ... 
20070abc:	0ab4 2007 0ab4 2007 0abc 2007 0abc 2007     ... ... ... ... 
20070acc:	0ac4 2007 0ac4 2007 0acc 2007 0acc 2007     ... ... ... ... 
20070adc:	0ad4 2007 0ad4 2007 0adc 2007 0adc 2007     ... ... ... ... 
20070aec:	0ae4 2007 0ae4 2007 0aec 2007 0aec 2007     ... ... ... ... 
20070afc:	0af4 2007 0af4 2007 0afc 2007 0afc 2007     ... ... ... ... 
20070b0c:	0b04 2007 0b04 2007 0b0c 2007 0b0c 2007     ... ... ... ... 
20070b1c:	0b14 2007 0b14 2007 0b1c 2007 0b1c 2007     ... ... ... ... 
20070b2c:	0b24 2007 0b24 2007 0b2c 2007 0b2c 2007     $.. $.. ,.. ,.. 
20070b3c:	0b34 2007 0b34 2007 0b3c 2007 0b3c 2007     4.. 4.. <.. <.. 
20070b4c:	0b44 2007 0b44 2007 0b4c 2007 0b4c 2007     D.. D.. L.. L.. 
20070b5c:	0b54 2007 0b54 2007 0b5c 2007 0b5c 2007     T.. T.. \.. \.. 

20070b6c <__malloc_sbrk_base>:
20070b6c:	ffff ffff                                   ....

20070b70 <__malloc_trim_threshold>:
20070b70:	0000 0002                                   ....
